(dp1
S'output'
p2
S"<type 'exceptions.SyntaxError'> invalid syntax (index.html, line 45)"
p3
sS'layer'
p4
S'/home/bcr/projects/cursojulho12/web2py/applications/ecommerce/views/home/index.html'
p5
sS'code'
p6
S'response.write(\'<!DOCTYPE html>\\n<html lang="en">\\n  <head>\\n    <meta charset="utf-8">\\n    <title>\', escape=False)\nresponse.write(response.title)\nresponse.write(\'</title>\\n    <meta name="viewport" content="width=device-width, initial-scale=1.0">\\n    <meta name="description" content="\', escape=False)\nresponse.write(response.description)\nresponse.write(\'">\\n    <!-- Le styles -->\\n    <link href="\', escape=False)\nresponse.write(URL(\'static\', \'css\', args=\'bootstrap.css\'))\nresponse.write(\'" rel="stylesheet">\\n\\n    <!-- web2py css -->\\n    <link href="\', escape=False)\nresponse.write(URL(\'static\', \'css\', args=\'calendar.css\'))\nresponse.write(\'" rel="stylesheet">\\n    <link href="\', escape=False)\nresponse.write(URL(\'static\', \'css\', args=\'web2py.css\'))\nresponse.write(\'" rel="stylesheet">\\n    \\n    <!-- navbar -->\\n    <style type="text/css">\\n      body {\\n        padding-top: 60px;\\n        padding-bottom: 40px;\\n      }\\n    </style>\\n    \\n    <link href="\', escape=False)\nresponse.write(URL(\'static\', \'css\', args=\'bootstrap-responsive.css\'))\nresponse.write(\'" rel="stylesheet">\\n    \\n    <!-- Le HTML5 shim, for IE6-8 support of HTML5 elements -->\\n    <!--[if lt IE 9]>\\n      <script src="http://html5shim.googlecode.com/svn/trunk/html5.js"></script>\\n    <![endif]-->\\n    \\n    <!-- web2py JS -->\\n    <script src="\', escape=False)\nresponse.write(URL(\'static\', \'js\', args=\'jquery.js\'))\nresponse.write(\'"></script>\\n    <script src="\', escape=False)\nresponse.write(URL(\'static\', \'js\', args=\'calendar.js\'))\nresponse.write(\'"></script>\\n    <script src="\', escape=False)\nresponse.write(URL(\'static\', \'js\', args=\'web2py.js\'))\nresponse.write(\'"></script>\\n    \\n    <!-- bootstrap JS -->\\n    <script src="\', escape=False)\nresponse.write(URL(\'static\', \'js\', args=\'bootstrap.js\'))\nresponse.write(\'"></script>\\n    \\n    \', escape=False)\nresponse.write(\'\\n\\t<style type="text/css">\\n\\t.cat {\\n\\t    background: blue;\\n\\t    color:white;\\n\\t}\\n\\t</style>\\n\', escape=False)\nresponse.write(\'    \\n  </head>\\n  <body>\\n    \', escape=False)\nresponse.write(\'\\n    <div class="navbar navbar-fixed-top">\\n      <div class="navbar-inner">\\n        <div class="container">\\n          <a class="btn btn-navbar" data-toggle="collapse" data-target=".nav-collapse">\\n            <span class="icon-bar"></span>\\n            <span class="icon-bar"></span>\\n            <span class="icon-bar"></span>\\n          </a>\\n          <a class="brand" href="/">Ecommerce</a>\\n          <div class="nav-collapse">\\n            <ul class="nav">\\n              <li class="active"><a href="#">Home</a></li>\\n              <li><a href="#about">About</a></li>\\n              <li><a href="#contact">Contact</a></li>\\n            </ul>\\n          </div><!--/.nav-collapse -->\\n        </div>\\n      </div>\\n    </div>\\n    \', escape=False)\nresponse.write(\'\\n\\n    <div class="container">\\n      \', escape=False)\nresponse.write(\'\\n<div class="hero-unit">\\n\\t<h3> FEATURED </h3>\\n\\t<ul class="thumbnails">\\n\\t  \', escape=False)\nfor product in featured:\n    response.write(\'\\t\\n\\t  <li class="span3">\\n\\t    <div class="thumbnail">\\n\\t      <img src="http://placehold.it/260x180" alt="">\\n\\t      <h4>\', escape=False)\n    response.write(product.name)\n    response.write(\'</h4>\\n\\t      <p><span>\', escape=False)\n    response.write(product.unit_price)\n    response.write(\'</span></p>\\n\\t    </div>\\n\\t  </li>\\n\\t  \', escape=False)\n    pass\nresponse.write(\'\\n\\t</ul>\\n</div>\\t\\n\', escape=False)\nresponse.write(\'\\n\\n      \', escape=False)\nresponse.write(\'\\n<h1> GALLERY </h1>\\n\\n\', escape=False)\n#=UL(*[LI(\nDIV(\nIMG(_src="http://placehold.it/260x180"),\nH4(product.name),\nP(SPAN(product.unit_price)),\n_class="thumbnail"\n),\n_class="span3"\n) for product in products],\n_class="thumbnails"\n)\nresponse.write(\'\\n\\n\', escape=False)\nresponse.write(\'\\n\\n      \', escape=False)\n#include \'../static/fail.html\'\nresponse.write(\'\\n      <hr>\\n      \\n      \', escape=False)\nresponse.write(\'\\n      <footer>\\n        <p>&copy; Company 2012</p>\\n      </footer>\\n      \', escape=False)\nresponse.write(\'\\n\\n    </div> <!-- /container -->\\n  </body>\\n</html>\\n\', escape=False)'
p7
sS'snapshot'
p8
(dp9
S'exception'
p10
(dp11
S'__getslice__'
p12
S"<method-wrapper '__getslice__' of exceptions.SyntaxError object>"
p13
sS'text'
p14
S"') for product in products],\\n'"
p15
sS'__str__'
p16
S"<method-wrapper '__str__' of exceptions.SyntaxError object>"
p17
sS'__reduce__'
p18
S'<built-in method __reduce__ of exceptions.SyntaxError object>'
p19
sS'__dict__'
p20
S'{}'
p21
sS'__sizeof__'
p22
S'<built-in method __sizeof__ of exceptions.SyntaxError object>'
p23
sS'__init__'
p24
S"<method-wrapper '__init__' of exceptions.SyntaxError object>"
p25
sS'__setattr__'
p26
S"<method-wrapper '__setattr__' of exceptions.SyntaxError object>"
p27
sS'__reduce_ex__'
p28
S'<built-in method __reduce_ex__ of exceptions.SyntaxError object>'
p29
sS'__new__'
p30
S'<built-in method __new__ of type object>'
p31
sS'__format__'
p32
S'<built-in method __format__ of exceptions.SyntaxError object>'
p33
sS'__class__'
p34
S"<type 'exceptions.SyntaxError'>"
p35
sS'filename'
p36
S"'/home/bcr/projects/cursojulho12/web2py/applications/ecommerce/views/home/index.html'"
p37
sS'lineno'
p38
S'45'
p39
sS'msg'
p40
S"'invalid syntax'"
p41
sS'__doc__'
p42
S"'Invalid syntax.'"
p43
sS'__getitem__'
p44
S"<method-wrapper '__getitem__' of exceptions.SyntaxError object>"
p45
sS'__setstate__'
p46
S'<built-in method __setstate__ of exceptions.SyntaxError object>'
p47
sS'__getattribute__'
p48
S"<method-wrapper '__getattribute__' of exceptions.SyntaxError object>"
p49
sS'print_file_and_line'
p50
S'None'
p51
sS'args'
p52
S"('invalid syntax', ('/home/bcr/projects/cursojulho12/web2py/applications/ecommerce/views/home/index.html', 45, 1, ') for product in products],\\n'))"
p53
sS'__subclasshook__'
p54
S'<built-in method __subclasshook__ of type object>'
p55
sS'offset'
p56
S'1'
sS'__unicode__'
p57
S'<built-in method __unicode__ of exceptions.SyntaxError object>'
p58
sS'__delattr__'
p59
S"<method-wrapper '__delattr__' of exceptions.SyntaxError object>"
p60
sS'__repr__'
p61
S"<method-wrapper '__repr__' of exceptions.SyntaxError object>"
p62
sS'__hash__'
p63
S"<method-wrapper '__hash__' of exceptions.SyntaxError object>"
p64
ssS'evalue'
p65
S'invalid syntax (index.html, line 45)'
p66
sS'request'
p67
ccopy_reg
_reconstructor
p68
(cgluon.html
BEAUTIFY
p69
c__builtin__
object
p70
NtRp71
(dp72
S'attributes'
p73
(dp74
sS'components'
p75
(lp76
g68
(cgluon.html
TABLE
p77
g70
NtRp78
(dp79
g73
(dp80
S'level'
p81
I5
ssS'parent'
p82
Nsg75
(lp83
g68
(cgluon.html
TR
p84
g70
NtRp85
(dp86
g73
(dp87
sg82
g78
sg75
(lp88
g68
(cgluon.html
TD
p89
g70
NtRp90
(dp91
g73
(dp92
S'_style'
p93
S'font-weight:bold;vertical-align:top'
p94
ssg82
g85
sg75
(lp95
S'ajax'
p96
asbag68
(g89
g70
NtRp97
(dp98
g73
(dp99
S'_valign'
p100
S'top'
p101
ssg82
g85
sg75
(lp102
S':'
asbag68
(g89
g70
NtRp103
(dp104
g73
(dp105
sg82
g85
sg75
(lp106
g68
(g69
g70
NtRp107
(dp108
g73
(dp109
g81
I5
ssg82
g103
sg75
(lp110
S'False'
p111
asbasbasbag68
(g84
g70
NtRp112
(dp113
g73
(dp114
sg82
g78
sg75
(lp115
g68
(g89
g70
NtRp116
(dp117
g73
(dp118
g93
g94
ssg82
g112
sg75
(lp119
S'application'
p120
asbag68
(g89
g70
NtRp121
(dp122
g73
(dp123
g100
g101
ssg82
g112
sg75
(lp124
S':'
asbag68
(g89
g70
NtRp125
(dp126
g73
(dp127
sg82
g112
sg75
(lp128
g68
(g69
g70
NtRp129
(dp130
g73
(dp131
g81
I5
ssg82
g125
sg75
(lp132
S'ecommerce'
p133
asbasbasbag68
(g84
g70
NtRp134
(dp135
g73
(dp136
sg82
g78
sg75
(lp137
g68
(g89
g70
NtRp138
(dp139
g73
(dp140
g93
g94
ssg82
g134
sg75
(lp141
g52
asbag68
(g89
g70
NtRp142
(dp143
g73
(dp144
g100
g101
ssg82
g134
sg75
(lp145
S':'
asbag68
(g89
g70
NtRp146
(dp147
g73
(dp148
sg82
g134
sg75
(lp149
g68
(g69
g70
NtRp150
(dp151
g73
(dp152
g81
I5
ssg82
g146
sg75
(lp153
g68
(g77
g70
NtRp154
(dp155
g73
(dp156
g81
I4
ssg82
Nsg75
(lp157
sbasbasbasbag68
(g84
g70
NtRp158
(dp159
g73
(dp160
sg82
g78
sg75
(lp161
g68
(g89
g70
NtRp162
(dp163
g73
(dp164
g93
g94
ssg82
g158
sg75
(lp165
S'body'
p166
asbag68
(g89
g70
NtRp167
(dp168
g73
(dp169
g100
g101
ssg82
g158
sg75
(lp170
S':'
asbag68
(g89
g70
NtRp171
(dp172
g73
(dp173
sg82
g158
sg75
(lp174
g68
(g69
g70
NtRp175
(dp176
g73
(dp177
g81
I5
ssg82
g171
sg75
(lp178
S'<cStringIO.StringO object at 0x7f932c00b998>'
p179
asbasbasbag68
(g84
g70
NtRp180
(dp181
g73
(dp182
sg82
g78
sg75
(lp183
g68
(g89
g70
NtRp184
(dp185
g73
(dp186
g93
g94
ssg82
g180
sg75
(lp187
S'client'
p188
asbag68
(g89
g70
NtRp189
(dp190
g73
(dp191
g100
g101
ssg82
g180
sg75
(lp192
S':'
asbag68
(g89
g70
NtRp193
(dp194
g73
(dp195
sg82
g180
sg75
(lp196
g68
(g69
g70
NtRp197
(dp198
g73
(dp199
g81
I5
ssg82
g193
sg75
(lp200
S'127.0.0.1'
p201
asbasbasbag68
(g84
g70
NtRp202
(dp203
g73
(dp204
sg82
g78
sg75
(lp205
g68
(g89
g70
NtRp206
(dp207
g73
(dp208
g93
g94
ssg82
g202
sg75
(lp209
S'controller'
p210
asbag68
(g89
g70
NtRp211
(dp212
g73
(dp213
g100
g101
ssg82
g202
sg75
(lp214
S':'
asbag68
(g89
g70
NtRp215
(dp216
g73
(dp217
sg82
g202
sg75
(lp218
g68
(g69
g70
NtRp219
(dp220
g73
(dp221
g81
I5
ssg82
g215
sg75
(lp222
S'home'
p223
asbasbasbag68
(g84
g70
NtRp224
(dp225
g73
(dp226
sg82
g78
sg75
(lp227
g68
(g89
g70
NtRp228
(dp229
g73
(dp230
g93
g94
ssg82
g224
sg75
(lp231
S'cookies'
p232
asbag68
(g89
g70
NtRp233
(dp234
g73
(dp235
g100
g101
ssg82
g224
sg75
(lp236
S':'
asbag68
(g89
g70
NtRp237
(dp238
g73
(dp239
sg82
g224
sg75
(lp240
g68
(g69
g70
NtRp241
(dp242
g73
(dp243
g81
I5
ssg82
g237
sg75
(lp244
g68
(g77
g70
NtRp245
(dp246
g73
(dp247
g81
I4
ssg82
Nsg75
(lp248
g68
(g84
g70
NtRp249
(dp250
g73
(dp251
sg82
g245
sg75
(lp252
g68
(g89
g70
NtRp253
(dp254
g73
(dp255
g93
g94
ssg82
g249
sg75
(lp256
S'csrftoken'
p257
asbag68
(g89
g70
NtRp258
(dp259
g73
(dp260
g100
g101
ssg82
g249
sg75
(lp261
S':'
asbag68
(g89
g70
NtRp262
(dp263
g73
(dp264
sg82
g249
sg75
(lp265
g68
(g69
g70
NtRp266
(dp267
g73
(dp268
g81
I4
ssg82
g262
sg75
(lp269
g68
(g77
g70
NtRp270
(dp271
g73
(dp272
g81
I3
ssg82
Nsg75
(lp273
g68
(g84
g70
NtRp274
(dp275
g73
(dp276
sg82
g270
sg75
(lp277
g68
(g89
g70
NtRp278
(dp279
g73
(dp280
g93
g94
ssg82
g274
sg75
(lp281
S'comment'
p282
asbag68
(g89
g70
NtRp283
(dp284
g73
(dp285
g100
g101
ssg82
g274
sg75
(lp286
S':'
asbag68
(g89
g70
NtRp287
(dp288
g73
(dp289
sg82
g274
sg75
(lp290
g68
(g69
g70
NtRp291
(dp292
g73
(dp293
g81
I3
ssg82
g287
sg75
(lp294
S''
asbasbasbag68
(g84
g70
NtRp295
(dp296
g73
(dp297
sg82
g270
sg75
(lp298
g68
(g89
g70
NtRp299
(dp300
g73
(dp301
g93
g94
ssg82
g295
sg75
(lp302
S'domain'
p303
asbag68
(g89
g70
NtRp304
(dp305
g73
(dp306
g100
g101
ssg82
g295
sg75
(lp307
S':'
asbag68
(g89
g70
NtRp308
(dp309
g73
(dp310
sg82
g295
sg75
(lp311
g68
(g69
g70
NtRp312
(dp313
g73
(dp314
g81
I3
ssg82
g308
sg75
(lp315
S''
asbasbasbag68
(g84
g70
NtRp316
(dp317
g73
(dp318
sg82
g270
sg75
(lp319
g68
(g89
g70
NtRp320
(dp321
g73
(dp322
g93
g94
ssg82
g316
sg75
(lp323
S'expires'
p324
asbag68
(g89
g70
NtRp325
(dp326
g73
(dp327
g100
g101
ssg82
g316
sg75
(lp328
S':'
asbag68
(g89
g70
NtRp329
(dp330
g73
(dp331
sg82
g316
sg75
(lp332
g68
(g69
g70
NtRp333
(dp334
g73
(dp335
g81
I3
ssg82
g329
sg75
(lp336
S''
asbasbasbag68
(g84
g70
NtRp337
(dp338
g73
(dp339
sg82
g270
sg75
(lp340
g68
(g89
g70
NtRp341
(dp342
g73
(dp343
g93
g94
ssg82
g337
sg75
(lp344
S'httponly'
p345
asbag68
(g89
g70
NtRp346
(dp347
g73
(dp348
g100
g101
ssg82
g337
sg75
(lp349
S':'
asbag68
(g89
g70
NtRp350
(dp351
g73
(dp352
sg82
g337
sg75
(lp353
g68
(g69
g70
NtRp354
(dp355
g73
(dp356
g81
I3
ssg82
g350
sg75
(lp357
S''
asbasbasbag68
(g84
g70
NtRp358
(dp359
g73
(dp360
sg82
g270
sg75
(lp361
g68
(g89
g70
NtRp362
(dp363
g73
(dp364
g93
g94
ssg82
g358
sg75
(lp365
S'max-age'
p366
asbag68
(g89
g70
NtRp367
(dp368
g73
(dp369
g100
g101
ssg82
g358
sg75
(lp370
S':'
asbag68
(g89
g70
NtRp371
(dp372
g73
(dp373
sg82
g358
sg75
(lp374
g68
(g69
g70
NtRp375
(dp376
g73
(dp377
g81
I3
ssg82
g371
sg75
(lp378
S''
asbasbasbag68
(g84
g70
NtRp379
(dp380
g73
(dp381
sg82
g270
sg75
(lp382
g68
(g89
g70
NtRp383
(dp384
g73
(dp385
g93
g94
ssg82
g379
sg75
(lp386
S'path'
p387
asbag68
(g89
g70
NtRp388
(dp389
g73
(dp390
g100
g101
ssg82
g379
sg75
(lp391
S':'
asbag68
(g89
g70
NtRp392
(dp393
g73
(dp394
sg82
g379
sg75
(lp395
g68
(g69
g70
NtRp396
(dp397
g73
(dp398
g81
I3
ssg82
g392
sg75
(lp399
S''
asbasbasbag68
(g84
g70
NtRp400
(dp401
g73
(dp402
sg82
g270
sg75
(lp403
g68
(g89
g70
NtRp404
(dp405
g73
(dp406
g93
g94
ssg82
g400
sg75
(lp407
S'secure'
p408
asbag68
(g89
g70
NtRp409
(dp410
g73
(dp411
g100
g101
ssg82
g400
sg75
(lp412
S':'
asbag68
(g89
g70
NtRp413
(dp414
g73
(dp415
sg82
g400
sg75
(lp416
g68
(g69
g70
NtRp417
(dp418
g73
(dp419
g81
I3
ssg82
g413
sg75
(lp420
S''
asbasbasbag68
(g84
g70
NtRp421
(dp422
g73
(dp423
sg82
g270
sg75
(lp424
g68
(g89
g70
NtRp425
(dp426
g73
(dp427
g93
g94
ssg82
g421
sg75
(lp428
S'version'
p429
asbag68
(g89
g70
NtRp430
(dp431
g73
(dp432
g100
g101
ssg82
g421
sg75
(lp433
S':'
asbag68
(g89
g70
NtRp434
(dp435
g73
(dp436
sg82
g421
sg75
(lp437
g68
(g69
g70
NtRp438
(dp439
g73
(dp440
g81
I3
ssg82
g434
sg75
(lp441
S''
asbasbasbasbasbasbasbag68
(g84
g70
NtRp442
(dp443
g73
(dp444
sg82
g245
sg75
(lp445
g68
(g89
g70
NtRp446
(dp447
g73
(dp448
g93
g94
ssg82
g442
sg75
(lp449
S'djdt'
p450
asbag68
(g89
g70
NtRp451
(dp452
g73
(dp453
g100
g101
ssg82
g442
sg75
(lp454
S':'
asbag68
(g89
g70
NtRp455
(dp456
g73
(dp457
sg82
g442
sg75
(lp458
g68
(g69
g70
NtRp459
(dp460
g73
(dp461
g81
I4
ssg82
g455
sg75
(lp462
g68
(g77
g70
NtRp463
(dp464
g73
(dp465
g81
I3
ssg82
Nsg75
(lp466
g68
(g84
g70
NtRp467
(dp468
g73
(dp469
sg82
g463
sg75
(lp470
g68
(g89
g70
NtRp471
(dp472
g73
(dp473
g93
g94
ssg82
g467
sg75
(lp474
g282
asbag68
(g89
g70
NtRp475
(dp476
g73
(dp477
g100
g101
ssg82
g467
sg75
(lp478
S':'
asbag68
(g89
g70
NtRp479
(dp480
g73
(dp481
sg82
g467
sg75
(lp482
g68
(g69
g70
NtRp483
(dp484
g73
(dp485
g81
I3
ssg82
g479
sg75
(lp486
S''
asbasbasbag68
(g84
g70
NtRp487
(dp488
g73
(dp489
sg82
g463
sg75
(lp490
g68
(g89
g70
NtRp491
(dp492
g73
(dp493
g93
g94
ssg82
g487
sg75
(lp494
g303
asbag68
(g89
g70
NtRp495
(dp496
g73
(dp497
g100
g101
ssg82
g487
sg75
(lp498
S':'
asbag68
(g89
g70
NtRp499
(dp500
g73
(dp501
sg82
g487
sg75
(lp502
g68
(g69
g70
NtRp503
(dp504
g73
(dp505
g81
I3
ssg82
g499
sg75
(lp506
S''
asbasbasbag68
(g84
g70
NtRp507
(dp508
g73
(dp509
sg82
g463
sg75
(lp510
g68
(g89
g70
NtRp511
(dp512
g73
(dp513
g93
g94
ssg82
g507
sg75
(lp514
g324
asbag68
(g89
g70
NtRp515
(dp516
g73
(dp517
g100
g101
ssg82
g507
sg75
(lp518
S':'
asbag68
(g89
g70
NtRp519
(dp520
g73
(dp521
sg82
g507
sg75
(lp522
g68
(g69
g70
NtRp523
(dp524
g73
(dp525
g81
I3
ssg82
g519
sg75
(lp526
S''
asbasbasbag68
(g84
g70
NtRp527
(dp528
g73
(dp529
sg82
g463
sg75
(lp530
g68
(g89
g70
NtRp531
(dp532
g73
(dp533
g93
g94
ssg82
g527
sg75
(lp534
g345
asbag68
(g89
g70
NtRp535
(dp536
g73
(dp537
g100
g101
ssg82
g527
sg75
(lp538
S':'
asbag68
(g89
g70
NtRp539
(dp540
g73
(dp541
sg82
g527
sg75
(lp542
g68
(g69
g70
NtRp543
(dp544
g73
(dp545
g81
I3
ssg82
g539
sg75
(lp546
S''
asbasbasbag68
(g84
g70
NtRp547
(dp548
g73
(dp549
sg82
g463
sg75
(lp550
g68
(g89
g70
NtRp551
(dp552
g73
(dp553
g93
g94
ssg82
g547
sg75
(lp554
g366
asbag68
(g89
g70
NtRp555
(dp556
g73
(dp557
g100
g101
ssg82
g547
sg75
(lp558
S':'
asbag68
(g89
g70
NtRp559
(dp560
g73
(dp561
sg82
g547
sg75
(lp562
g68
(g69
g70
NtRp563
(dp564
g73
(dp565
g81
I3
ssg82
g559
sg75
(lp566
S''
asbasbasbag68
(g84
g70
NtRp567
(dp568
g73
(dp569
sg82
g463
sg75
(lp570
g68
(g89
g70
NtRp571
(dp572
g73
(dp573
g93
g94
ssg82
g567
sg75
(lp574
g387
asbag68
(g89
g70
NtRp575
(dp576
g73
(dp577
g100
g101
ssg82
g567
sg75
(lp578
S':'
asbag68
(g89
g70
NtRp579
(dp580
g73
(dp581
sg82
g567
sg75
(lp582
g68
(g69
g70
NtRp583
(dp584
g73
(dp585
g81
I3
ssg82
g579
sg75
(lp586
S''
asbasbasbag68
(g84
g70
NtRp587
(dp588
g73
(dp589
sg82
g463
sg75
(lp590
g68
(g89
g70
NtRp591
(dp592
g73
(dp593
g93
g94
ssg82
g587
sg75
(lp594
g408
asbag68
(g89
g70
NtRp595
(dp596
g73
(dp597
g100
g101
ssg82
g587
sg75
(lp598
S':'
asbag68
(g89
g70
NtRp599
(dp600
g73
(dp601
sg82
g587
sg75
(lp602
g68
(g69
g70
NtRp603
(dp604
g73
(dp605
g81
I3
ssg82
g599
sg75
(lp606
S''
asbasbasbag68
(g84
g70
NtRp607
(dp608
g73
(dp609
sg82
g463
sg75
(lp610
g68
(g89
g70
NtRp611
(dp612
g73
(dp613
g93
g94
ssg82
g607
sg75
(lp614
g429
asbag68
(g89
g70
NtRp615
(dp616
g73
(dp617
g100
g101
ssg82
g607
sg75
(lp618
S':'
asbag68
(g89
g70
NtRp619
(dp620
g73
(dp621
sg82
g607
sg75
(lp622
g68
(g69
g70
NtRp623
(dp624
g73
(dp625
g81
I3
ssg82
g619
sg75
(lp626
S''
asbasbasbasbasbasbasbag68
(g84
g70
NtRp627
(dp628
g73
(dp629
sg82
g245
sg75
(lp630
g68
(g89
g70
NtRp631
(dp632
g73
(dp633
g93
g94
ssg82
g627
sg75
(lp634
S'hblid'
p635
asbag68
(g89
g70
NtRp636
(dp637
g73
(dp638
g100
g101
ssg82
g627
sg75
(lp639
S':'
asbag68
(g89
g70
NtRp640
(dp641
g73
(dp642
sg82
g627
sg75
(lp643
g68
(g69
g70
NtRp644
(dp645
g73
(dp646
g81
I4
ssg82
g640
sg75
(lp647
g68
(g77
g70
NtRp648
(dp649
g73
(dp650
g81
I3
ssg82
Nsg75
(lp651
g68
(g84
g70
NtRp652
(dp653
g73
(dp654
sg82
g648
sg75
(lp655
g68
(g89
g70
NtRp656
(dp657
g73
(dp658
g93
g94
ssg82
g652
sg75
(lp659
g282
asbag68
(g89
g70
NtRp660
(dp661
g73
(dp662
g100
g101
ssg82
g652
sg75
(lp663
S':'
asbag68
(g89
g70
NtRp664
(dp665
g73
(dp666
sg82
g652
sg75
(lp667
g68
(g69
g70
NtRp668
(dp669
g73
(dp670
g81
I3
ssg82
g664
sg75
(lp671
S''
asbasbasbag68
(g84
g70
NtRp672
(dp673
g73
(dp674
sg82
g648
sg75
(lp675
g68
(g89
g70
NtRp676
(dp677
g73
(dp678
g93
g94
ssg82
g672
sg75
(lp679
g303
asbag68
(g89
g70
NtRp680
(dp681
g73
(dp682
g100
g101
ssg82
g672
sg75
(lp683
S':'
asbag68
(g89
g70
NtRp684
(dp685
g73
(dp686
sg82
g672
sg75
(lp687
g68
(g69
g70
NtRp688
(dp689
g73
(dp690
g81
I3
ssg82
g684
sg75
(lp691
S''
asbasbasbag68
(g84
g70
NtRp692
(dp693
g73
(dp694
sg82
g648
sg75
(lp695
g68
(g89
g70
NtRp696
(dp697
g73
(dp698
g93
g94
ssg82
g692
sg75
(lp699
g324
asbag68
(g89
g70
NtRp700
(dp701
g73
(dp702
g100
g101
ssg82
g692
sg75
(lp703
S':'
asbag68
(g89
g70
NtRp704
(dp705
g73
(dp706
sg82
g692
sg75
(lp707
g68
(g69
g70
NtRp708
(dp709
g73
(dp710
g81
I3
ssg82
g704
sg75
(lp711
S''
asbasbasbag68
(g84
g70
NtRp712
(dp713
g73
(dp714
sg82
g648
sg75
(lp715
g68
(g89
g70
NtRp716
(dp717
g73
(dp718
g93
g94
ssg82
g712
sg75
(lp719
g345
asbag68
(g89
g70
NtRp720
(dp721
g73
(dp722
g100
g101
ssg82
g712
sg75
(lp723
S':'
asbag68
(g89
g70
NtRp724
(dp725
g73
(dp726
sg82
g712
sg75
(lp727
g68
(g69
g70
NtRp728
(dp729
g73
(dp730
g81
I3
ssg82
g724
sg75
(lp731
S''
asbasbasbag68
(g84
g70
NtRp732
(dp733
g73
(dp734
sg82
g648
sg75
(lp735
g68
(g89
g70
NtRp736
(dp737
g73
(dp738
g93
g94
ssg82
g732
sg75
(lp739
g366
asbag68
(g89
g70
NtRp740
(dp741
g73
(dp742
g100
g101
ssg82
g732
sg75
(lp743
S':'
asbag68
(g89
g70
NtRp744
(dp745
g73
(dp746
sg82
g732
sg75
(lp747
g68
(g69
g70
NtRp748
(dp749
g73
(dp750
g81
I3
ssg82
g744
sg75
(lp751
S''
asbasbasbag68
(g84
g70
NtRp752
(dp753
g73
(dp754
sg82
g648
sg75
(lp755
g68
(g89
g70
NtRp756
(dp757
g73
(dp758
g93
g94
ssg82
g752
sg75
(lp759
g387
asbag68
(g89
g70
NtRp760
(dp761
g73
(dp762
g100
g101
ssg82
g752
sg75
(lp763
S':'
asbag68
(g89
g70
NtRp764
(dp765
g73
(dp766
sg82
g752
sg75
(lp767
g68
(g69
g70
NtRp768
(dp769
g73
(dp770
g81
I3
ssg82
g764
sg75
(lp771
S''
asbasbasbag68
(g84
g70
NtRp772
(dp773
g73
(dp774
sg82
g648
sg75
(lp775
g68
(g89
g70
NtRp776
(dp777
g73
(dp778
g93
g94
ssg82
g772
sg75
(lp779
g408
asbag68
(g89
g70
NtRp780
(dp781
g73
(dp782
g100
g101
ssg82
g772
sg75
(lp783
S':'
asbag68
(g89
g70
NtRp784
(dp785
g73
(dp786
sg82
g772
sg75
(lp787
g68
(g69
g70
NtRp788
(dp789
g73
(dp790
g81
I3
ssg82
g784
sg75
(lp791
S''
asbasbasbag68
(g84
g70
NtRp792
(dp793
g73
(dp794
sg82
g648
sg75
(lp795
g68
(g89
g70
NtRp796
(dp797
g73
(dp798
g93
g94
ssg82
g792
sg75
(lp799
g429
asbag68
(g89
g70
NtRp800
(dp801
g73
(dp802
g100
g101
ssg82
g792
sg75
(lp803
S':'
asbag68
(g89
g70
NtRp804
(dp805
g73
(dp806
sg82
g792
sg75
(lp807
g68
(g69
g70
NtRp808
(dp809
g73
(dp810
g81
I3
ssg82
g804
sg75
(lp811
S''
asbasbasbasbasbasbasbag68
(g84
g70
NtRp812
(dp813
g73
(dp814
sg82
g245
sg75
(lp815
g68
(g89
g70
NtRp816
(dp817
g73
(dp818
g93
g94
ssg82
g812
sg75
(lp819
S'home_version'
p820
asbag68
(g89
g70
NtRp821
(dp822
g73
(dp823
g100
g101
ssg82
g812
sg75
(lp824
S':'
asbag68
(g89
g70
NtRp825
(dp826
g73
(dp827
sg82
g812
sg75
(lp828
g68
(g69
g70
NtRp829
(dp830
g73
(dp831
g81
I4
ssg82
g825
sg75
(lp832
g68
(g77
g70
NtRp833
(dp834
g73
(dp835
g81
I3
ssg82
Nsg75
(lp836
g68
(g84
g70
NtRp837
(dp838
g73
(dp839
sg82
g833
sg75
(lp840
g68
(g89
g70
NtRp841
(dp842
g73
(dp843
g93
g94
ssg82
g837
sg75
(lp844
g282
asbag68
(g89
g70
NtRp845
(dp846
g73
(dp847
g100
g101
ssg82
g837
sg75
(lp848
S':'
asbag68
(g89
g70
NtRp849
(dp850
g73
(dp851
sg82
g837
sg75
(lp852
g68
(g69
g70
NtRp853
(dp854
g73
(dp855
g81
I3
ssg82
g849
sg75
(lp856
S''
asbasbasbag68
(g84
g70
NtRp857
(dp858
g73
(dp859
sg82
g833
sg75
(lp860
g68
(g89
g70
NtRp861
(dp862
g73
(dp863
g93
g94
ssg82
g857
sg75
(lp864
g303
asbag68
(g89
g70
NtRp865
(dp866
g73
(dp867
g100
g101
ssg82
g857
sg75
(lp868
S':'
asbag68
(g89
g70
NtRp869
(dp870
g73
(dp871
sg82
g857
sg75
(lp872
g68
(g69
g70
NtRp873
(dp874
g73
(dp875
g81
I3
ssg82
g869
sg75
(lp876
S''
asbasbasbag68
(g84
g70
NtRp877
(dp878
g73
(dp879
sg82
g833
sg75
(lp880
g68
(g89
g70
NtRp881
(dp882
g73
(dp883
g93
g94
ssg82
g877
sg75
(lp884
g324
asbag68
(g89
g70
NtRp885
(dp886
g73
(dp887
g100
g101
ssg82
g877
sg75
(lp888
S':'
asbag68
(g89
g70
NtRp889
(dp890
g73
(dp891
sg82
g877
sg75
(lp892
g68
(g69
g70
NtRp893
(dp894
g73
(dp895
g81
I3
ssg82
g889
sg75
(lp896
S''
asbasbasbag68
(g84
g70
NtRp897
(dp898
g73
(dp899
sg82
g833
sg75
(lp900
g68
(g89
g70
NtRp901
(dp902
g73
(dp903
g93
g94
ssg82
g897
sg75
(lp904
g345
asbag68
(g89
g70
NtRp905
(dp906
g73
(dp907
g100
g101
ssg82
g897
sg75
(lp908
S':'
asbag68
(g89
g70
NtRp909
(dp910
g73
(dp911
sg82
g897
sg75
(lp912
g68
(g69
g70
NtRp913
(dp914
g73
(dp915
g81
I3
ssg82
g909
sg75
(lp916
S''
asbasbasbag68
(g84
g70
NtRp917
(dp918
g73
(dp919
sg82
g833
sg75
(lp920
g68
(g89
g70
NtRp921
(dp922
g73
(dp923
g93
g94
ssg82
g917
sg75
(lp924
g366
asbag68
(g89
g70
NtRp925
(dp926
g73
(dp927
g100
g101
ssg82
g917
sg75
(lp928
S':'
asbag68
(g89
g70
NtRp929
(dp930
g73
(dp931
sg82
g917
sg75
(lp932
g68
(g69
g70
NtRp933
(dp934
g73
(dp935
g81
I3
ssg82
g929
sg75
(lp936
S''
asbasbasbag68
(g84
g70
NtRp937
(dp938
g73
(dp939
sg82
g833
sg75
(lp940
g68
(g89
g70
NtRp941
(dp942
g73
(dp943
g93
g94
ssg82
g937
sg75
(lp944
g387
asbag68
(g89
g70
NtRp945
(dp946
g73
(dp947
g100
g101
ssg82
g937
sg75
(lp948
S':'
asbag68
(g89
g70
NtRp949
(dp950
g73
(dp951
sg82
g937
sg75
(lp952
g68
(g69
g70
NtRp953
(dp954
g73
(dp955
g81
I3
ssg82
g949
sg75
(lp956
S''
asbasbasbag68
(g84
g70
NtRp957
(dp958
g73
(dp959
sg82
g833
sg75
(lp960
g68
(g89
g70
NtRp961
(dp962
g73
(dp963
g93
g94
ssg82
g957
sg75
(lp964
g408
asbag68
(g89
g70
NtRp965
(dp966
g73
(dp967
g100
g101
ssg82
g957
sg75
(lp968
S':'
asbag68
(g89
g70
NtRp969
(dp970
g73
(dp971
sg82
g957
sg75
(lp972
g68
(g69
g70
NtRp973
(dp974
g73
(dp975
g81
I3
ssg82
g969
sg75
(lp976
S''
asbasbasbag68
(g84
g70
NtRp977
(dp978
g73
(dp979
sg82
g833
sg75
(lp980
g68
(g89
g70
NtRp981
(dp982
g73
(dp983
g93
g94
ssg82
g977
sg75
(lp984
g429
asbag68
(g89
g70
NtRp985
(dp986
g73
(dp987
g100
g101
ssg82
g977
sg75
(lp988
S':'
asbag68
(g89
g70
NtRp989
(dp990
g73
(dp991
sg82
g977
sg75
(lp992
g68
(g69
g70
NtRp993
(dp994
g73
(dp995
g81
I3
ssg82
g989
sg75
(lp996
S''
asbasbasbasbasbasbasbag68
(g84
g70
NtRp997
(dp998
g73
(dp999
sg82
g245
sg75
(lp1000
g68
(g89
g70
NtRp1001
(dp1002
g73
(dp1003
g93
g94
ssg82
g997
sg75
(lp1004
S'id_region'
p1005
asbag68
(g89
g70
NtRp1006
(dp1007
g73
(dp1008
g100
g101
ssg82
g997
sg75
(lp1009
S':'
asbag68
(g89
g70
NtRp1010
(dp1011
g73
(dp1012
sg82
g997
sg75
(lp1013
g68
(g69
g70
NtRp1014
(dp1015
g73
(dp1016
g81
I4
ssg82
g1010
sg75
(lp1017
g68
(g77
g70
NtRp1018
(dp1019
g73
(dp1020
g81
I3
ssg82
Nsg75
(lp1021
g68
(g84
g70
NtRp1022
(dp1023
g73
(dp1024
sg82
g1018
sg75
(lp1025
g68
(g89
g70
NtRp1026
(dp1027
g73
(dp1028
g93
g94
ssg82
g1022
sg75
(lp1029
g282
asbag68
(g89
g70
NtRp1030
(dp1031
g73
(dp1032
g100
g101
ssg82
g1022
sg75
(lp1033
S':'
asbag68
(g89
g70
NtRp1034
(dp1035
g73
(dp1036
sg82
g1022
sg75
(lp1037
g68
(g69
g70
NtRp1038
(dp1039
g73
(dp1040
g81
I3
ssg82
g1034
sg75
(lp1041
S''
asbasbasbag68
(g84
g70
NtRp1042
(dp1043
g73
(dp1044
sg82
g1018
sg75
(lp1045
g68
(g89
g70
NtRp1046
(dp1047
g73
(dp1048
g93
g94
ssg82
g1042
sg75
(lp1049
g303
asbag68
(g89
g70
NtRp1050
(dp1051
g73
(dp1052
g100
g101
ssg82
g1042
sg75
(lp1053
S':'
asbag68
(g89
g70
NtRp1054
(dp1055
g73
(dp1056
sg82
g1042
sg75
(lp1057
g68
(g69
g70
NtRp1058
(dp1059
g73
(dp1060
g81
I3
ssg82
g1054
sg75
(lp1061
S''
asbasbasbag68
(g84
g70
NtRp1062
(dp1063
g73
(dp1064
sg82
g1018
sg75
(lp1065
g68
(g89
g70
NtRp1066
(dp1067
g73
(dp1068
g93
g94
ssg82
g1062
sg75
(lp1069
g324
asbag68
(g89
g70
NtRp1070
(dp1071
g73
(dp1072
g100
g101
ssg82
g1062
sg75
(lp1073
S':'
asbag68
(g89
g70
NtRp1074
(dp1075
g73
(dp1076
sg82
g1062
sg75
(lp1077
g68
(g69
g70
NtRp1078
(dp1079
g73
(dp1080
g81
I3
ssg82
g1074
sg75
(lp1081
S''
asbasbasbag68
(g84
g70
NtRp1082
(dp1083
g73
(dp1084
sg82
g1018
sg75
(lp1085
g68
(g89
g70
NtRp1086
(dp1087
g73
(dp1088
g93
g94
ssg82
g1082
sg75
(lp1089
g345
asbag68
(g89
g70
NtRp1090
(dp1091
g73
(dp1092
g100
g101
ssg82
g1082
sg75
(lp1093
S':'
asbag68
(g89
g70
NtRp1094
(dp1095
g73
(dp1096
sg82
g1082
sg75
(lp1097
g68
(g69
g70
NtRp1098
(dp1099
g73
(dp1100
g81
I3
ssg82
g1094
sg75
(lp1101
S''
asbasbasbag68
(g84
g70
NtRp1102
(dp1103
g73
(dp1104
sg82
g1018
sg75
(lp1105
g68
(g89
g70
NtRp1106
(dp1107
g73
(dp1108
g93
g94
ssg82
g1102
sg75
(lp1109
g366
asbag68
(g89
g70
NtRp1110
(dp1111
g73
(dp1112
g100
g101
ssg82
g1102
sg75
(lp1113
S':'
asbag68
(g89
g70
NtRp1114
(dp1115
g73
(dp1116
sg82
g1102
sg75
(lp1117
g68
(g69
g70
NtRp1118
(dp1119
g73
(dp1120
g81
I3
ssg82
g1114
sg75
(lp1121
S''
asbasbasbag68
(g84
g70
NtRp1122
(dp1123
g73
(dp1124
sg82
g1018
sg75
(lp1125
g68
(g89
g70
NtRp1126
(dp1127
g73
(dp1128
g93
g94
ssg82
g1122
sg75
(lp1129
g387
asbag68
(g89
g70
NtRp1130
(dp1131
g73
(dp1132
g100
g101
ssg82
g1122
sg75
(lp1133
S':'
asbag68
(g89
g70
NtRp1134
(dp1135
g73
(dp1136
sg82
g1122
sg75
(lp1137
g68
(g69
g70
NtRp1138
(dp1139
g73
(dp1140
g81
I3
ssg82
g1134
sg75
(lp1141
S''
asbasbasbag68
(g84
g70
NtRp1142
(dp1143
g73
(dp1144
sg82
g1018
sg75
(lp1145
g68
(g89
g70
NtRp1146
(dp1147
g73
(dp1148
g93
g94
ssg82
g1142
sg75
(lp1149
g408
asbag68
(g89
g70
NtRp1150
(dp1151
g73
(dp1152
g100
g101
ssg82
g1142
sg75
(lp1153
S':'
asbag68
(g89
g70
NtRp1154
(dp1155
g73
(dp1156
sg82
g1142
sg75
(lp1157
g68
(g69
g70
NtRp1158
(dp1159
g73
(dp1160
g81
I3
ssg82
g1154
sg75
(lp1161
S''
asbasbasbag68
(g84
g70
NtRp1162
(dp1163
g73
(dp1164
sg82
g1018
sg75
(lp1165
g68
(g89
g70
NtRp1166
(dp1167
g73
(dp1168
g93
g94
ssg82
g1162
sg75
(lp1169
g429
asbag68
(g89
g70
NtRp1170
(dp1171
g73
(dp1172
g100
g101
ssg82
g1162
sg75
(lp1173
S':'
asbag68
(g89
g70
NtRp1174
(dp1175
g73
(dp1176
sg82
g1162
sg75
(lp1177
g68
(g69
g70
NtRp1178
(dp1179
g73
(dp1180
g81
I3
ssg82
g1174
sg75
(lp1181
S''
asbasbasbasbasbasbasbag68
(g84
g70
NtRp1182
(dp1183
g73
(dp1184
sg82
g245
sg75
(lp1185
g68
(g89
g70
NtRp1186
(dp1187
g73
(dp1188
g93
g94
ssg82
g1182
sg75
(lp1189
S'olfsk'
p1190
asbag68
(g89
g70
NtRp1191
(dp1192
g73
(dp1193
g100
g101
ssg82
g1182
sg75
(lp1194
S':'
asbag68
(g89
g70
NtRp1195
(dp1196
g73
(dp1197
sg82
g1182
sg75
(lp1198
g68
(g69
g70
NtRp1199
(dp1200
g73
(dp1201
g81
I4
ssg82
g1195
sg75
(lp1202
g68
(g77
g70
NtRp1203
(dp1204
g73
(dp1205
g81
I3
ssg82
Nsg75
(lp1206
g68
(g84
g70
NtRp1207
(dp1208
g73
(dp1209
sg82
g1203
sg75
(lp1210
g68
(g89
g70
NtRp1211
(dp1212
g73
(dp1213
g93
g94
ssg82
g1207
sg75
(lp1214
g282
asbag68
(g89
g70
NtRp1215
(dp1216
g73
(dp1217
g100
g101
ssg82
g1207
sg75
(lp1218
S':'
asbag68
(g89
g70
NtRp1219
(dp1220
g73
(dp1221
sg82
g1207
sg75
(lp1222
g68
(g69
g70
NtRp1223
(dp1224
g73
(dp1225
g81
I3
ssg82
g1219
sg75
(lp1226
S''
asbasbasbag68
(g84
g70
NtRp1227
(dp1228
g73
(dp1229
sg82
g1203
sg75
(lp1230
g68
(g89
g70
NtRp1231
(dp1232
g73
(dp1233
g93
g94
ssg82
g1227
sg75
(lp1234
g303
asbag68
(g89
g70
NtRp1235
(dp1236
g73
(dp1237
g100
g101
ssg82
g1227
sg75
(lp1238
S':'
asbag68
(g89
g70
NtRp1239
(dp1240
g73
(dp1241
sg82
g1227
sg75
(lp1242
g68
(g69
g70
NtRp1243
(dp1244
g73
(dp1245
g81
I3
ssg82
g1239
sg75
(lp1246
S''
asbasbasbag68
(g84
g70
NtRp1247
(dp1248
g73
(dp1249
sg82
g1203
sg75
(lp1250
g68
(g89
g70
NtRp1251
(dp1252
g73
(dp1253
g93
g94
ssg82
g1247
sg75
(lp1254
g324
asbag68
(g89
g70
NtRp1255
(dp1256
g73
(dp1257
g100
g101
ssg82
g1247
sg75
(lp1258
S':'
asbag68
(g89
g70
NtRp1259
(dp1260
g73
(dp1261
sg82
g1247
sg75
(lp1262
g68
(g69
g70
NtRp1263
(dp1264
g73
(dp1265
g81
I3
ssg82
g1259
sg75
(lp1266
S''
asbasbasbag68
(g84
g70
NtRp1267
(dp1268
g73
(dp1269
sg82
g1203
sg75
(lp1270
g68
(g89
g70
NtRp1271
(dp1272
g73
(dp1273
g93
g94
ssg82
g1267
sg75
(lp1274
g345
asbag68
(g89
g70
NtRp1275
(dp1276
g73
(dp1277
g100
g101
ssg82
g1267
sg75
(lp1278
S':'
asbag68
(g89
g70
NtRp1279
(dp1280
g73
(dp1281
sg82
g1267
sg75
(lp1282
g68
(g69
g70
NtRp1283
(dp1284
g73
(dp1285
g81
I3
ssg82
g1279
sg75
(lp1286
S''
asbasbasbag68
(g84
g70
NtRp1287
(dp1288
g73
(dp1289
sg82
g1203
sg75
(lp1290
g68
(g89
g70
NtRp1291
(dp1292
g73
(dp1293
g93
g94
ssg82
g1287
sg75
(lp1294
g366
asbag68
(g89
g70
NtRp1295
(dp1296
g73
(dp1297
g100
g101
ssg82
g1287
sg75
(lp1298
S':'
asbag68
(g89
g70
NtRp1299
(dp1300
g73
(dp1301
sg82
g1287
sg75
(lp1302
g68
(g69
g70
NtRp1303
(dp1304
g73
(dp1305
g81
I3
ssg82
g1299
sg75
(lp1306
S''
asbasbasbag68
(g84
g70
NtRp1307
(dp1308
g73
(dp1309
sg82
g1203
sg75
(lp1310
g68
(g89
g70
NtRp1311
(dp1312
g73
(dp1313
g93
g94
ssg82
g1307
sg75
(lp1314
g387
asbag68
(g89
g70
NtRp1315
(dp1316
g73
(dp1317
g100
g101
ssg82
g1307
sg75
(lp1318
S':'
asbag68
(g89
g70
NtRp1319
(dp1320
g73
(dp1321
sg82
g1307
sg75
(lp1322
g68
(g69
g70
NtRp1323
(dp1324
g73
(dp1325
g81
I3
ssg82
g1319
sg75
(lp1326
S''
asbasbasbag68
(g84
g70
NtRp1327
(dp1328
g73
(dp1329
sg82
g1203
sg75
(lp1330
g68
(g89
g70
NtRp1331
(dp1332
g73
(dp1333
g93
g94
ssg82
g1327
sg75
(lp1334
g408
asbag68
(g89
g70
NtRp1335
(dp1336
g73
(dp1337
g100
g101
ssg82
g1327
sg75
(lp1338
S':'
asbag68
(g89
g70
NtRp1339
(dp1340
g73
(dp1341
sg82
g1327
sg75
(lp1342
g68
(g69
g70
NtRp1343
(dp1344
g73
(dp1345
g81
I3
ssg82
g1339
sg75
(lp1346
S''
asbasbasbag68
(g84
g70
NtRp1347
(dp1348
g73
(dp1349
sg82
g1203
sg75
(lp1350
g68
(g89
g70
NtRp1351
(dp1352
g73
(dp1353
g93
g94
ssg82
g1347
sg75
(lp1354
g429
asbag68
(g89
g70
NtRp1355
(dp1356
g73
(dp1357
g100
g101
ssg82
g1347
sg75
(lp1358
S':'
asbag68
(g89
g70
NtRp1359
(dp1360
g73
(dp1361
sg82
g1347
sg75
(lp1362
g68
(g69
g70
NtRp1363
(dp1364
g73
(dp1365
g81
I3
ssg82
g1359
sg75
(lp1366
S''
asbasbasbasbasbasbasbag68
(g84
g70
NtRp1367
(dp1368
g73
(dp1369
sg82
g245
sg75
(lp1370
g68
(g89
g70
NtRp1371
(dp1372
g73
(dp1373
g93
g94
ssg82
g1367
sg75
(lp1374
S'omp__super_properties'
p1375
asbag68
(g89
g70
NtRp1376
(dp1377
g73
(dp1378
g100
g101
ssg82
g1367
sg75
(lp1379
S':'
asbag68
(g89
g70
NtRp1380
(dp1381
g73
(dp1382
sg82
g1367
sg75
(lp1383
g68
(g69
g70
NtRp1384
(dp1385
g73
(dp1386
g81
I4
ssg82
g1380
sg75
(lp1387
g68
(g77
g70
NtRp1388
(dp1389
g73
(dp1390
g81
I3
ssg82
Nsg75
(lp1391
g68
(g84
g70
NtRp1392
(dp1393
g73
(dp1394
sg82
g1388
sg75
(lp1395
g68
(g89
g70
NtRp1396
(dp1397
g73
(dp1398
g93
g94
ssg82
g1392
sg75
(lp1399
g282
asbag68
(g89
g70
NtRp1400
(dp1401
g73
(dp1402
g100
g101
ssg82
g1392
sg75
(lp1403
S':'
asbag68
(g89
g70
NtRp1404
(dp1405
g73
(dp1406
sg82
g1392
sg75
(lp1407
g68
(g69
g70
NtRp1408
(dp1409
g73
(dp1410
g81
I3
ssg82
g1404
sg75
(lp1411
S''
asbasbasbag68
(g84
g70
NtRp1412
(dp1413
g73
(dp1414
sg82
g1388
sg75
(lp1415
g68
(g89
g70
NtRp1416
(dp1417
g73
(dp1418
g93
g94
ssg82
g1412
sg75
(lp1419
g303
asbag68
(g89
g70
NtRp1420
(dp1421
g73
(dp1422
g100
g101
ssg82
g1412
sg75
(lp1423
S':'
asbag68
(g89
g70
NtRp1424
(dp1425
g73
(dp1426
sg82
g1412
sg75
(lp1427
g68
(g69
g70
NtRp1428
(dp1429
g73
(dp1430
g81
I3
ssg82
g1424
sg75
(lp1431
S''
asbasbasbag68
(g84
g70
NtRp1432
(dp1433
g73
(dp1434
sg82
g1388
sg75
(lp1435
g68
(g89
g70
NtRp1436
(dp1437
g73
(dp1438
g93
g94
ssg82
g1432
sg75
(lp1439
g324
asbag68
(g89
g70
NtRp1440
(dp1441
g73
(dp1442
g100
g101
ssg82
g1432
sg75
(lp1443
S':'
asbag68
(g89
g70
NtRp1444
(dp1445
g73
(dp1446
sg82
g1432
sg75
(lp1447
g68
(g69
g70
NtRp1448
(dp1449
g73
(dp1450
g81
I3
ssg82
g1444
sg75
(lp1451
S''
asbasbasbag68
(g84
g70
NtRp1452
(dp1453
g73
(dp1454
sg82
g1388
sg75
(lp1455
g68
(g89
g70
NtRp1456
(dp1457
g73
(dp1458
g93
g94
ssg82
g1452
sg75
(lp1459
g345
asbag68
(g89
g70
NtRp1460
(dp1461
g73
(dp1462
g100
g101
ssg82
g1452
sg75
(lp1463
S':'
asbag68
(g89
g70
NtRp1464
(dp1465
g73
(dp1466
sg82
g1452
sg75
(lp1467
g68
(g69
g70
NtRp1468
(dp1469
g73
(dp1470
g81
I3
ssg82
g1464
sg75
(lp1471
S''
asbasbasbag68
(g84
g70
NtRp1472
(dp1473
g73
(dp1474
sg82
g1388
sg75
(lp1475
g68
(g89
g70
NtRp1476
(dp1477
g73
(dp1478
g93
g94
ssg82
g1472
sg75
(lp1479
g366
asbag68
(g89
g70
NtRp1480
(dp1481
g73
(dp1482
g100
g101
ssg82
g1472
sg75
(lp1483
S':'
asbag68
(g89
g70
NtRp1484
(dp1485
g73
(dp1486
sg82
g1472
sg75
(lp1487
g68
(g69
g70
NtRp1488
(dp1489
g73
(dp1490
g81
I3
ssg82
g1484
sg75
(lp1491
S''
asbasbasbag68
(g84
g70
NtRp1492
(dp1493
g73
(dp1494
sg82
g1388
sg75
(lp1495
g68
(g89
g70
NtRp1496
(dp1497
g73
(dp1498
g93
g94
ssg82
g1492
sg75
(lp1499
g387
asbag68
(g89
g70
NtRp1500
(dp1501
g73
(dp1502
g100
g101
ssg82
g1492
sg75
(lp1503
S':'
asbag68
(g89
g70
NtRp1504
(dp1505
g73
(dp1506
sg82
g1492
sg75
(lp1507
g68
(g69
g70
NtRp1508
(dp1509
g73
(dp1510
g81
I3
ssg82
g1504
sg75
(lp1511
S''
asbasbasbag68
(g84
g70
NtRp1512
(dp1513
g73
(dp1514
sg82
g1388
sg75
(lp1515
g68
(g89
g70
NtRp1516
(dp1517
g73
(dp1518
g93
g94
ssg82
g1512
sg75
(lp1519
g408
asbag68
(g89
g70
NtRp1520
(dp1521
g73
(dp1522
g100
g101
ssg82
g1512
sg75
(lp1523
S':'
asbag68
(g89
g70
NtRp1524
(dp1525
g73
(dp1526
sg82
g1512
sg75
(lp1527
g68
(g69
g70
NtRp1528
(dp1529
g73
(dp1530
g81
I3
ssg82
g1524
sg75
(lp1531
S''
asbasbasbag68
(g84
g70
NtRp1532
(dp1533
g73
(dp1534
sg82
g1388
sg75
(lp1535
g68
(g89
g70
NtRp1536
(dp1537
g73
(dp1538
g93
g94
ssg82
g1532
sg75
(lp1539
g429
asbag68
(g89
g70
NtRp1540
(dp1541
g73
(dp1542
g100
g101
ssg82
g1532
sg75
(lp1543
S':'
asbag68
(g89
g70
NtRp1544
(dp1545
g73
(dp1546
sg82
g1532
sg75
(lp1547
g68
(g69
g70
NtRp1548
(dp1549
g73
(dp1550
g81
I3
ssg82
g1544
sg75
(lp1551
S''
asbasbasbasbasbasbasbag68
(g84
g70
NtRp1552
(dp1553
g73
(dp1554
sg82
g245
sg75
(lp1555
g68
(g89
g70
NtRp1556
(dp1557
g73
(dp1558
g93
g94
ssg82
g1552
sg75
(lp1559
S'session_id_admin'
p1560
asbag68
(g89
g70
NtRp1561
(dp1562
g73
(dp1563
g100
g101
ssg82
g1552
sg75
(lp1564
S':'
asbag68
(g89
g70
NtRp1565
(dp1566
g73
(dp1567
sg82
g1552
sg75
(lp1568
g68
(g69
g70
NtRp1569
(dp1570
g73
(dp1571
g81
I4
ssg82
g1565
sg75
(lp1572
g68
(g77
g70
NtRp1573
(dp1574
g73
(dp1575
g81
I3
ssg82
Nsg75
(lp1576
g68
(g84
g70
NtRp1577
(dp1578
g73
(dp1579
sg82
g1573
sg75
(lp1580
g68
(g89
g70
NtRp1581
(dp1582
g73
(dp1583
g93
g94
ssg82
g1577
sg75
(lp1584
g282
asbag68
(g89
g70
NtRp1585
(dp1586
g73
(dp1587
g100
g101
ssg82
g1577
sg75
(lp1588
S':'
asbag68
(g89
g70
NtRp1589
(dp1590
g73
(dp1591
sg82
g1577
sg75
(lp1592
g68
(g69
g70
NtRp1593
(dp1594
g73
(dp1595
g81
I3
ssg82
g1589
sg75
(lp1596
S''
asbasbasbag68
(g84
g70
NtRp1597
(dp1598
g73
(dp1599
sg82
g1573
sg75
(lp1600
g68
(g89
g70
NtRp1601
(dp1602
g73
(dp1603
g93
g94
ssg82
g1597
sg75
(lp1604
g303
asbag68
(g89
g70
NtRp1605
(dp1606
g73
(dp1607
g100
g101
ssg82
g1597
sg75
(lp1608
S':'
asbag68
(g89
g70
NtRp1609
(dp1610
g73
(dp1611
sg82
g1597
sg75
(lp1612
g68
(g69
g70
NtRp1613
(dp1614
g73
(dp1615
g81
I3
ssg82
g1609
sg75
(lp1616
S''
asbasbasbag68
(g84
g70
NtRp1617
(dp1618
g73
(dp1619
sg82
g1573
sg75
(lp1620
g68
(g89
g70
NtRp1621
(dp1622
g73
(dp1623
g93
g94
ssg82
g1617
sg75
(lp1624
g324
asbag68
(g89
g70
NtRp1625
(dp1626
g73
(dp1627
g100
g101
ssg82
g1617
sg75
(lp1628
S':'
asbag68
(g89
g70
NtRp1629
(dp1630
g73
(dp1631
sg82
g1617
sg75
(lp1632
g68
(g69
g70
NtRp1633
(dp1634
g73
(dp1635
g81
I3
ssg82
g1629
sg75
(lp1636
S''
asbasbasbag68
(g84
g70
NtRp1637
(dp1638
g73
(dp1639
sg82
g1573
sg75
(lp1640
g68
(g89
g70
NtRp1641
(dp1642
g73
(dp1643
g93
g94
ssg82
g1637
sg75
(lp1644
g345
asbag68
(g89
g70
NtRp1645
(dp1646
g73
(dp1647
g100
g101
ssg82
g1637
sg75
(lp1648
S':'
asbag68
(g89
g70
NtRp1649
(dp1650
g73
(dp1651
sg82
g1637
sg75
(lp1652
g68
(g69
g70
NtRp1653
(dp1654
g73
(dp1655
g81
I3
ssg82
g1649
sg75
(lp1656
S''
asbasbasbag68
(g84
g70
NtRp1657
(dp1658
g73
(dp1659
sg82
g1573
sg75
(lp1660
g68
(g89
g70
NtRp1661
(dp1662
g73
(dp1663
g93
g94
ssg82
g1657
sg75
(lp1664
g366
asbag68
(g89
g70
NtRp1665
(dp1666
g73
(dp1667
g100
g101
ssg82
g1657
sg75
(lp1668
S':'
asbag68
(g89
g70
NtRp1669
(dp1670
g73
(dp1671
sg82
g1657
sg75
(lp1672
g68
(g69
g70
NtRp1673
(dp1674
g73
(dp1675
g81
I3
ssg82
g1669
sg75
(lp1676
S''
asbasbasbag68
(g84
g70
NtRp1677
(dp1678
g73
(dp1679
sg82
g1573
sg75
(lp1680
g68
(g89
g70
NtRp1681
(dp1682
g73
(dp1683
g93
g94
ssg82
g1677
sg75
(lp1684
g387
asbag68
(g89
g70
NtRp1685
(dp1686
g73
(dp1687
g100
g101
ssg82
g1677
sg75
(lp1688
S':'
asbag68
(g89
g70
NtRp1689
(dp1690
g73
(dp1691
sg82
g1677
sg75
(lp1692
g68
(g69
g70
NtRp1693
(dp1694
g73
(dp1695
g81
I3
ssg82
g1689
sg75
(lp1696
S''
asbasbasbag68
(g84
g70
NtRp1697
(dp1698
g73
(dp1699
sg82
g1573
sg75
(lp1700
g68
(g89
g70
NtRp1701
(dp1702
g73
(dp1703
g93
g94
ssg82
g1697
sg75
(lp1704
g408
asbag68
(g89
g70
NtRp1705
(dp1706
g73
(dp1707
g100
g101
ssg82
g1697
sg75
(lp1708
S':'
asbag68
(g89
g70
NtRp1709
(dp1710
g73
(dp1711
sg82
g1697
sg75
(lp1712
g68
(g69
g70
NtRp1713
(dp1714
g73
(dp1715
g81
I3
ssg82
g1709
sg75
(lp1716
S''
asbasbasbag68
(g84
g70
NtRp1717
(dp1718
g73
(dp1719
sg82
g1573
sg75
(lp1720
g68
(g89
g70
NtRp1721
(dp1722
g73
(dp1723
g93
g94
ssg82
g1717
sg75
(lp1724
g429
asbag68
(g89
g70
NtRp1725
(dp1726
g73
(dp1727
g100
g101
ssg82
g1717
sg75
(lp1728
S':'
asbag68
(g89
g70
NtRp1729
(dp1730
g73
(dp1731
sg82
g1717
sg75
(lp1732
g68
(g69
g70
NtRp1733
(dp1734
g73
(dp1735
g81
I3
ssg82
g1729
sg75
(lp1736
S''
asbasbasbasbasbasbasbag68
(g84
g70
NtRp1737
(dp1738
g73
(dp1739
sg82
g245
sg75
(lp1740
g68
(g89
g70
NtRp1741
(dp1742
g73
(dp1743
g93
g94
ssg82
g1737
sg75
(lp1744
S'session_id_ecommerce'
p1745
asbag68
(g89
g70
NtRp1746
(dp1747
g73
(dp1748
g100
g101
ssg82
g1737
sg75
(lp1749
S':'
asbag68
(g89
g70
NtRp1750
(dp1751
g73
(dp1752
sg82
g1737
sg75
(lp1753
g68
(g69
g70
NtRp1754
(dp1755
g73
(dp1756
g81
I4
ssg82
g1750
sg75
(lp1757
g68
(g77
g70
NtRp1758
(dp1759
g73
(dp1760
g81
I3
ssg82
Nsg75
(lp1761
g68
(g84
g70
NtRp1762
(dp1763
g73
(dp1764
sg82
g1758
sg75
(lp1765
g68
(g89
g70
NtRp1766
(dp1767
g73
(dp1768
g93
g94
ssg82
g1762
sg75
(lp1769
g282
asbag68
(g89
g70
NtRp1770
(dp1771
g73
(dp1772
g100
g101
ssg82
g1762
sg75
(lp1773
S':'
asbag68
(g89
g70
NtRp1774
(dp1775
g73
(dp1776
sg82
g1762
sg75
(lp1777
g68
(g69
g70
NtRp1778
(dp1779
g73
(dp1780
g81
I3
ssg82
g1774
sg75
(lp1781
S''
asbasbasbag68
(g84
g70
NtRp1782
(dp1783
g73
(dp1784
sg82
g1758
sg75
(lp1785
g68
(g89
g70
NtRp1786
(dp1787
g73
(dp1788
g93
g94
ssg82
g1782
sg75
(lp1789
g303
asbag68
(g89
g70
NtRp1790
(dp1791
g73
(dp1792
g100
g101
ssg82
g1782
sg75
(lp1793
S':'
asbag68
(g89
g70
NtRp1794
(dp1795
g73
(dp1796
sg82
g1782
sg75
(lp1797
g68
(g69
g70
NtRp1798
(dp1799
g73
(dp1800
g81
I3
ssg82
g1794
sg75
(lp1801
S''
asbasbasbag68
(g84
g70
NtRp1802
(dp1803
g73
(dp1804
sg82
g1758
sg75
(lp1805
g68
(g89
g70
NtRp1806
(dp1807
g73
(dp1808
g93
g94
ssg82
g1802
sg75
(lp1809
g324
asbag68
(g89
g70
NtRp1810
(dp1811
g73
(dp1812
g100
g101
ssg82
g1802
sg75
(lp1813
S':'
asbag68
(g89
g70
NtRp1814
(dp1815
g73
(dp1816
sg82
g1802
sg75
(lp1817
g68
(g69
g70
NtRp1818
(dp1819
g73
(dp1820
g81
I3
ssg82
g1814
sg75
(lp1821
S''
asbasbasbag68
(g84
g70
NtRp1822
(dp1823
g73
(dp1824
sg82
g1758
sg75
(lp1825
g68
(g89
g70
NtRp1826
(dp1827
g73
(dp1828
g93
g94
ssg82
g1822
sg75
(lp1829
g345
asbag68
(g89
g70
NtRp1830
(dp1831
g73
(dp1832
g100
g101
ssg82
g1822
sg75
(lp1833
S':'
asbag68
(g89
g70
NtRp1834
(dp1835
g73
(dp1836
sg82
g1822
sg75
(lp1837
g68
(g69
g70
NtRp1838
(dp1839
g73
(dp1840
g81
I3
ssg82
g1834
sg75
(lp1841
S''
asbasbasbag68
(g84
g70
NtRp1842
(dp1843
g73
(dp1844
sg82
g1758
sg75
(lp1845
g68
(g89
g70
NtRp1846
(dp1847
g73
(dp1848
g93
g94
ssg82
g1842
sg75
(lp1849
g366
asbag68
(g89
g70
NtRp1850
(dp1851
g73
(dp1852
g100
g101
ssg82
g1842
sg75
(lp1853
S':'
asbag68
(g89
g70
NtRp1854
(dp1855
g73
(dp1856
sg82
g1842
sg75
(lp1857
g68
(g69
g70
NtRp1858
(dp1859
g73
(dp1860
g81
I3
ssg82
g1854
sg75
(lp1861
S''
asbasbasbag68
(g84
g70
NtRp1862
(dp1863
g73
(dp1864
sg82
g1758
sg75
(lp1865
g68
(g89
g70
NtRp1866
(dp1867
g73
(dp1868
g93
g94
ssg82
g1862
sg75
(lp1869
g387
asbag68
(g89
g70
NtRp1870
(dp1871
g73
(dp1872
g100
g101
ssg82
g1862
sg75
(lp1873
S':'
asbag68
(g89
g70
NtRp1874
(dp1875
g73
(dp1876
sg82
g1862
sg75
(lp1877
g68
(g69
g70
NtRp1878
(dp1879
g73
(dp1880
g81
I3
ssg82
g1874
sg75
(lp1881
S''
asbasbasbag68
(g84
g70
NtRp1882
(dp1883
g73
(dp1884
sg82
g1758
sg75
(lp1885
g68
(g89
g70
NtRp1886
(dp1887
g73
(dp1888
g93
g94
ssg82
g1882
sg75
(lp1889
g408
asbag68
(g89
g70
NtRp1890
(dp1891
g73
(dp1892
g100
g101
ssg82
g1882
sg75
(lp1893
S':'
asbag68
(g89
g70
NtRp1894
(dp1895
g73
(dp1896
sg82
g1882
sg75
(lp1897
g68
(g69
g70
NtRp1898
(dp1899
g73
(dp1900
g81
I3
ssg82
g1894
sg75
(lp1901
S''
asbasbasbag68
(g84
g70
NtRp1902
(dp1903
g73
(dp1904
sg82
g1758
sg75
(lp1905
g68
(g89
g70
NtRp1906
(dp1907
g73
(dp1908
g93
g94
ssg82
g1902
sg75
(lp1909
g429
asbag68
(g89
g70
NtRp1910
(dp1911
g73
(dp1912
g100
g101
ssg82
g1902
sg75
(lp1913
S':'
asbag68
(g89
g70
NtRp1914
(dp1915
g73
(dp1916
sg82
g1902
sg75
(lp1917
g68
(g69
g70
NtRp1918
(dp1919
g73
(dp1920
g81
I3
ssg82
g1914
sg75
(lp1921
S''
asbasbasbasbasbasbasbag68
(g84
g70
NtRp1922
(dp1923
g73
(dp1924
sg82
g245
sg75
(lp1925
g68
(g89
g70
NtRp1926
(dp1927
g73
(dp1928
g93
g94
ssg82
g1922
sg75
(lp1929
S'session_id_welcome'
p1930
asbag68
(g89
g70
NtRp1931
(dp1932
g73
(dp1933
g100
g101
ssg82
g1922
sg75
(lp1934
S':'
asbag68
(g89
g70
NtRp1935
(dp1936
g73
(dp1937
sg82
g1922
sg75
(lp1938
g68
(g69
g70
NtRp1939
(dp1940
g73
(dp1941
g81
I4
ssg82
g1935
sg75
(lp1942
g68
(g77
g70
NtRp1943
(dp1944
g73
(dp1945
g81
I3
ssg82
Nsg75
(lp1946
g68
(g84
g70
NtRp1947
(dp1948
g73
(dp1949
sg82
g1943
sg75
(lp1950
g68
(g89
g70
NtRp1951
(dp1952
g73
(dp1953
g93
g94
ssg82
g1947
sg75
(lp1954
g282
asbag68
(g89
g70
NtRp1955
(dp1956
g73
(dp1957
g100
g101
ssg82
g1947
sg75
(lp1958
S':'
asbag68
(g89
g70
NtRp1959
(dp1960
g73
(dp1961
sg82
g1947
sg75
(lp1962
g68
(g69
g70
NtRp1963
(dp1964
g73
(dp1965
g81
I3
ssg82
g1959
sg75
(lp1966
S''
asbasbasbag68
(g84
g70
NtRp1967
(dp1968
g73
(dp1969
sg82
g1943
sg75
(lp1970
g68
(g89
g70
NtRp1971
(dp1972
g73
(dp1973
g93
g94
ssg82
g1967
sg75
(lp1974
g303
asbag68
(g89
g70
NtRp1975
(dp1976
g73
(dp1977
g100
g101
ssg82
g1967
sg75
(lp1978
S':'
asbag68
(g89
g70
NtRp1979
(dp1980
g73
(dp1981
sg82
g1967
sg75
(lp1982
g68
(g69
g70
NtRp1983
(dp1984
g73
(dp1985
g81
I3
ssg82
g1979
sg75
(lp1986
S''
asbasbasbag68
(g84
g70
NtRp1987
(dp1988
g73
(dp1989
sg82
g1943
sg75
(lp1990
g68
(g89
g70
NtRp1991
(dp1992
g73
(dp1993
g93
g94
ssg82
g1987
sg75
(lp1994
g324
asbag68
(g89
g70
NtRp1995
(dp1996
g73
(dp1997
g100
g101
ssg82
g1987
sg75
(lp1998
S':'
asbag68
(g89
g70
NtRp1999
(dp2000
g73
(dp2001
sg82
g1987
sg75
(lp2002
g68
(g69
g70
NtRp2003
(dp2004
g73
(dp2005
g81
I3
ssg82
g1999
sg75
(lp2006
S''
asbasbasbag68
(g84
g70
NtRp2007
(dp2008
g73
(dp2009
sg82
g1943
sg75
(lp2010
g68
(g89
g70
NtRp2011
(dp2012
g73
(dp2013
g93
g94
ssg82
g2007
sg75
(lp2014
g345
asbag68
(g89
g70
NtRp2015
(dp2016
g73
(dp2017
g100
g101
ssg82
g2007
sg75
(lp2018
S':'
asbag68
(g89
g70
NtRp2019
(dp2020
g73
(dp2021
sg82
g2007
sg75
(lp2022
g68
(g69
g70
NtRp2023
(dp2024
g73
(dp2025
g81
I3
ssg82
g2019
sg75
(lp2026
S''
asbasbasbag68
(g84
g70
NtRp2027
(dp2028
g73
(dp2029
sg82
g1943
sg75
(lp2030
g68
(g89
g70
NtRp2031
(dp2032
g73
(dp2033
g93
g94
ssg82
g2027
sg75
(lp2034
g366
asbag68
(g89
g70
NtRp2035
(dp2036
g73
(dp2037
g100
g101
ssg82
g2027
sg75
(lp2038
S':'
asbag68
(g89
g70
NtRp2039
(dp2040
g73
(dp2041
sg82
g2027
sg75
(lp2042
g68
(g69
g70
NtRp2043
(dp2044
g73
(dp2045
g81
I3
ssg82
g2039
sg75
(lp2046
S''
asbasbasbag68
(g84
g70
NtRp2047
(dp2048
g73
(dp2049
sg82
g1943
sg75
(lp2050
g68
(g89
g70
NtRp2051
(dp2052
g73
(dp2053
g93
g94
ssg82
g2047
sg75
(lp2054
g387
asbag68
(g89
g70
NtRp2055
(dp2056
g73
(dp2057
g100
g101
ssg82
g2047
sg75
(lp2058
S':'
asbag68
(g89
g70
NtRp2059
(dp2060
g73
(dp2061
sg82
g2047
sg75
(lp2062
g68
(g69
g70
NtRp2063
(dp2064
g73
(dp2065
g81
I3
ssg82
g2059
sg75
(lp2066
S''
asbasbasbag68
(g84
g70
NtRp2067
(dp2068
g73
(dp2069
sg82
g1943
sg75
(lp2070
g68
(g89
g70
NtRp2071
(dp2072
g73
(dp2073
g93
g94
ssg82
g2067
sg75
(lp2074
g408
asbag68
(g89
g70
NtRp2075
(dp2076
g73
(dp2077
g100
g101
ssg82
g2067
sg75
(lp2078
S':'
asbag68
(g89
g70
NtRp2079
(dp2080
g73
(dp2081
sg82
g2067
sg75
(lp2082
g68
(g69
g70
NtRp2083
(dp2084
g73
(dp2085
g81
I3
ssg82
g2079
sg75
(lp2086
S''
asbasbasbag68
(g84
g70
NtRp2087
(dp2088
g73
(dp2089
sg82
g1943
sg75
(lp2090
g68
(g89
g70
NtRp2091
(dp2092
g73
(dp2093
g93
g94
ssg82
g2087
sg75
(lp2094
g429
asbag68
(g89
g70
NtRp2095
(dp2096
g73
(dp2097
g100
g101
ssg82
g2087
sg75
(lp2098
S':'
asbag68
(g89
g70
NtRp2099
(dp2100
g73
(dp2101
sg82
g2087
sg75
(lp2102
g68
(g69
g70
NtRp2103
(dp2104
g73
(dp2105
g81
I3
ssg82
g2099
sg75
(lp2106
S''
asbasbasbasbasbasbasbag68
(g84
g70
NtRp2107
(dp2108
g73
(dp2109
sg82
g245
sg75
(lp2110
g68
(g89
g70
NtRp2111
(dp2112
g73
(dp2113
g93
g94
ssg82
g2107
sg75
(lp2114
S'sessionid'
p2115
asbag68
(g89
g70
NtRp2116
(dp2117
g73
(dp2118
g100
g101
ssg82
g2107
sg75
(lp2119
S':'
asbag68
(g89
g70
NtRp2120
(dp2121
g73
(dp2122
sg82
g2107
sg75
(lp2123
g68
(g69
g70
NtRp2124
(dp2125
g73
(dp2126
g81
I4
ssg82
g2120
sg75
(lp2127
g68
(g77
g70
NtRp2128
(dp2129
g73
(dp2130
g81
I3
ssg82
Nsg75
(lp2131
g68
(g84
g70
NtRp2132
(dp2133
g73
(dp2134
sg82
g2128
sg75
(lp2135
g68
(g89
g70
NtRp2136
(dp2137
g73
(dp2138
g93
g94
ssg82
g2132
sg75
(lp2139
g282
asbag68
(g89
g70
NtRp2140
(dp2141
g73
(dp2142
g100
g101
ssg82
g2132
sg75
(lp2143
S':'
asbag68
(g89
g70
NtRp2144
(dp2145
g73
(dp2146
sg82
g2132
sg75
(lp2147
g68
(g69
g70
NtRp2148
(dp2149
g73
(dp2150
g81
I3
ssg82
g2144
sg75
(lp2151
S''
asbasbasbag68
(g84
g70
NtRp2152
(dp2153
g73
(dp2154
sg82
g2128
sg75
(lp2155
g68
(g89
g70
NtRp2156
(dp2157
g73
(dp2158
g93
g94
ssg82
g2152
sg75
(lp2159
g303
asbag68
(g89
g70
NtRp2160
(dp2161
g73
(dp2162
g100
g101
ssg82
g2152
sg75
(lp2163
S':'
asbag68
(g89
g70
NtRp2164
(dp2165
g73
(dp2166
sg82
g2152
sg75
(lp2167
g68
(g69
g70
NtRp2168
(dp2169
g73
(dp2170
g81
I3
ssg82
g2164
sg75
(lp2171
S''
asbasbasbag68
(g84
g70
NtRp2172
(dp2173
g73
(dp2174
sg82
g2128
sg75
(lp2175
g68
(g89
g70
NtRp2176
(dp2177
g73
(dp2178
g93
g94
ssg82
g2172
sg75
(lp2179
g324
asbag68
(g89
g70
NtRp2180
(dp2181
g73
(dp2182
g100
g101
ssg82
g2172
sg75
(lp2183
S':'
asbag68
(g89
g70
NtRp2184
(dp2185
g73
(dp2186
sg82
g2172
sg75
(lp2187
g68
(g69
g70
NtRp2188
(dp2189
g73
(dp2190
g81
I3
ssg82
g2184
sg75
(lp2191
S''
asbasbasbag68
(g84
g70
NtRp2192
(dp2193
g73
(dp2194
sg82
g2128
sg75
(lp2195
g68
(g89
g70
NtRp2196
(dp2197
g73
(dp2198
g93
g94
ssg82
g2192
sg75
(lp2199
g345
asbag68
(g89
g70
NtRp2200
(dp2201
g73
(dp2202
g100
g101
ssg82
g2192
sg75
(lp2203
S':'
asbag68
(g89
g70
NtRp2204
(dp2205
g73
(dp2206
sg82
g2192
sg75
(lp2207
g68
(g69
g70
NtRp2208
(dp2209
g73
(dp2210
g81
I3
ssg82
g2204
sg75
(lp2211
S''
asbasbasbag68
(g84
g70
NtRp2212
(dp2213
g73
(dp2214
sg82
g2128
sg75
(lp2215
g68
(g89
g70
NtRp2216
(dp2217
g73
(dp2218
g93
g94
ssg82
g2212
sg75
(lp2219
g366
asbag68
(g89
g70
NtRp2220
(dp2221
g73
(dp2222
g100
g101
ssg82
g2212
sg75
(lp2223
S':'
asbag68
(g89
g70
NtRp2224
(dp2225
g73
(dp2226
sg82
g2212
sg75
(lp2227
g68
(g69
g70
NtRp2228
(dp2229
g73
(dp2230
g81
I3
ssg82
g2224
sg75
(lp2231
S''
asbasbasbag68
(g84
g70
NtRp2232
(dp2233
g73
(dp2234
sg82
g2128
sg75
(lp2235
g68
(g89
g70
NtRp2236
(dp2237
g73
(dp2238
g93
g94
ssg82
g2232
sg75
(lp2239
g387
asbag68
(g89
g70
NtRp2240
(dp2241
g73
(dp2242
g100
g101
ssg82
g2232
sg75
(lp2243
S':'
asbag68
(g89
g70
NtRp2244
(dp2245
g73
(dp2246
sg82
g2232
sg75
(lp2247
g68
(g69
g70
NtRp2248
(dp2249
g73
(dp2250
g81
I3
ssg82
g2244
sg75
(lp2251
S''
asbasbasbag68
(g84
g70
NtRp2252
(dp2253
g73
(dp2254
sg82
g2128
sg75
(lp2255
g68
(g89
g70
NtRp2256
(dp2257
g73
(dp2258
g93
g94
ssg82
g2252
sg75
(lp2259
g408
asbag68
(g89
g70
NtRp2260
(dp2261
g73
(dp2262
g100
g101
ssg82
g2252
sg75
(lp2263
S':'
asbag68
(g89
g70
NtRp2264
(dp2265
g73
(dp2266
sg82
g2252
sg75
(lp2267
g68
(g69
g70
NtRp2268
(dp2269
g73
(dp2270
g81
I3
ssg82
g2264
sg75
(lp2271
S''
asbasbasbag68
(g84
g70
NtRp2272
(dp2273
g73
(dp2274
sg82
g2128
sg75
(lp2275
g68
(g89
g70
NtRp2276
(dp2277
g73
(dp2278
g93
g94
ssg82
g2272
sg75
(lp2279
g429
asbag68
(g89
g70
NtRp2280
(dp2281
g73
(dp2282
g100
g101
ssg82
g2272
sg75
(lp2283
S':'
asbag68
(g89
g70
NtRp2284
(dp2285
g73
(dp2286
sg82
g2272
sg75
(lp2287
g68
(g69
g70
NtRp2288
(dp2289
g73
(dp2290
g81
I3
ssg82
g2284
sg75
(lp2291
S''
asbasbasbasbasbasbasbag68
(g84
g70
NtRp2292
(dp2293
g73
(dp2294
sg82
g245
sg75
(lp2295
g68
(g89
g70
NtRp2296
(dp2297
g73
(dp2298
g93
g94
ssg82
g2292
sg75
(lp2299
S'wcsid'
p2300
asbag68
(g89
g70
NtRp2301
(dp2302
g73
(dp2303
g100
g101
ssg82
g2292
sg75
(lp2304
S':'
asbag68
(g89
g70
NtRp2305
(dp2306
g73
(dp2307
sg82
g2292
sg75
(lp2308
g68
(g69
g70
NtRp2309
(dp2310
g73
(dp2311
g81
I4
ssg82
g2305
sg75
(lp2312
g68
(g77
g70
NtRp2313
(dp2314
g73
(dp2315
g81
I3
ssg82
Nsg75
(lp2316
g68
(g84
g70
NtRp2317
(dp2318
g73
(dp2319
sg82
g2313
sg75
(lp2320
g68
(g89
g70
NtRp2321
(dp2322
g73
(dp2323
g93
g94
ssg82
g2317
sg75
(lp2324
g282
asbag68
(g89
g70
NtRp2325
(dp2326
g73
(dp2327
g100
g101
ssg82
g2317
sg75
(lp2328
S':'
asbag68
(g89
g70
NtRp2329
(dp2330
g73
(dp2331
sg82
g2317
sg75
(lp2332
g68
(g69
g70
NtRp2333
(dp2334
g73
(dp2335
g81
I3
ssg82
g2329
sg75
(lp2336
S''
asbasbasbag68
(g84
g70
NtRp2337
(dp2338
g73
(dp2339
sg82
g2313
sg75
(lp2340
g68
(g89
g70
NtRp2341
(dp2342
g73
(dp2343
g93
g94
ssg82
g2337
sg75
(lp2344
g303
asbag68
(g89
g70
NtRp2345
(dp2346
g73
(dp2347
g100
g101
ssg82
g2337
sg75
(lp2348
S':'
asbag68
(g89
g70
NtRp2349
(dp2350
g73
(dp2351
sg82
g2337
sg75
(lp2352
g68
(g69
g70
NtRp2353
(dp2354
g73
(dp2355
g81
I3
ssg82
g2349
sg75
(lp2356
S''
asbasbasbag68
(g84
g70
NtRp2357
(dp2358
g73
(dp2359
sg82
g2313
sg75
(lp2360
g68
(g89
g70
NtRp2361
(dp2362
g73
(dp2363
g93
g94
ssg82
g2357
sg75
(lp2364
g324
asbag68
(g89
g70
NtRp2365
(dp2366
g73
(dp2367
g100
g101
ssg82
g2357
sg75
(lp2368
S':'
asbag68
(g89
g70
NtRp2369
(dp2370
g73
(dp2371
sg82
g2357
sg75
(lp2372
g68
(g69
g70
NtRp2373
(dp2374
g73
(dp2375
g81
I3
ssg82
g2369
sg75
(lp2376
S''
asbasbasbag68
(g84
g70
NtRp2377
(dp2378
g73
(dp2379
sg82
g2313
sg75
(lp2380
g68
(g89
g70
NtRp2381
(dp2382
g73
(dp2383
g93
g94
ssg82
g2377
sg75
(lp2384
g345
asbag68
(g89
g70
NtRp2385
(dp2386
g73
(dp2387
g100
g101
ssg82
g2377
sg75
(lp2388
S':'
asbag68
(g89
g70
NtRp2389
(dp2390
g73
(dp2391
sg82
g2377
sg75
(lp2392
g68
(g69
g70
NtRp2393
(dp2394
g73
(dp2395
g81
I3
ssg82
g2389
sg75
(lp2396
S''
asbasbasbag68
(g84
g70
NtRp2397
(dp2398
g73
(dp2399
sg82
g2313
sg75
(lp2400
g68
(g89
g70
NtRp2401
(dp2402
g73
(dp2403
g93
g94
ssg82
g2397
sg75
(lp2404
g366
asbag68
(g89
g70
NtRp2405
(dp2406
g73
(dp2407
g100
g101
ssg82
g2397
sg75
(lp2408
S':'
asbag68
(g89
g70
NtRp2409
(dp2410
g73
(dp2411
sg82
g2397
sg75
(lp2412
g68
(g69
g70
NtRp2413
(dp2414
g73
(dp2415
g81
I3
ssg82
g2409
sg75
(lp2416
S''
asbasbasbag68
(g84
g70
NtRp2417
(dp2418
g73
(dp2419
sg82
g2313
sg75
(lp2420
g68
(g89
g70
NtRp2421
(dp2422
g73
(dp2423
g93
g94
ssg82
g2417
sg75
(lp2424
g387
asbag68
(g89
g70
NtRp2425
(dp2426
g73
(dp2427
g100
g101
ssg82
g2417
sg75
(lp2428
S':'
asbag68
(g89
g70
NtRp2429
(dp2430
g73
(dp2431
sg82
g2417
sg75
(lp2432
g68
(g69
g70
NtRp2433
(dp2434
g73
(dp2435
g81
I3
ssg82
g2429
sg75
(lp2436
S''
asbasbasbag68
(g84
g70
NtRp2437
(dp2438
g73
(dp2439
sg82
g2313
sg75
(lp2440
g68
(g89
g70
NtRp2441
(dp2442
g73
(dp2443
g93
g94
ssg82
g2437
sg75
(lp2444
g408
asbag68
(g89
g70
NtRp2445
(dp2446
g73
(dp2447
g100
g101
ssg82
g2437
sg75
(lp2448
S':'
asbag68
(g89
g70
NtRp2449
(dp2450
g73
(dp2451
sg82
g2437
sg75
(lp2452
g68
(g69
g70
NtRp2453
(dp2454
g73
(dp2455
g81
I3
ssg82
g2449
sg75
(lp2456
S''
asbasbasbag68
(g84
g70
NtRp2457
(dp2458
g73
(dp2459
sg82
g2313
sg75
(lp2460
g68
(g89
g70
NtRp2461
(dp2462
g73
(dp2463
g93
g94
ssg82
g2457
sg75
(lp2464
g429
asbag68
(g89
g70
NtRp2465
(dp2466
g73
(dp2467
g100
g101
ssg82
g2457
sg75
(lp2468
S':'
asbag68
(g89
g70
NtRp2469
(dp2470
g73
(dp2471
sg82
g2457
sg75
(lp2472
g68
(g69
g70
NtRp2473
(dp2474
g73
(dp2475
g81
I3
ssg82
g2469
sg75
(lp2476
S''
asbasbasbasbasbasbasbasbasbasbasbag68
(g84
g70
NtRp2477
(dp2478
g73
(dp2479
sg82
g78
sg75
(lp2480
g68
(g89
g70
NtRp2481
(dp2482
g73
(dp2483
g93
g94
ssg82
g2477
sg75
(lp2484
S'env'
p2485
asbag68
(g89
g70
NtRp2486
(dp2487
g73
(dp2488
g100
g101
ssg82
g2477
sg75
(lp2489
S':'
asbag68
(g89
g70
NtRp2490
(dp2491
g73
(dp2492
sg82
g2477
sg75
(lp2493
g68
(g69
g70
NtRp2494
(dp2495
g73
(dp2496
g81
I5
ssg82
g2490
sg75
(lp2497
g68
(g77
g70
NtRp2498
(dp2499
g73
(dp2500
g81
I4
ssg82
Nsg75
(lp2501
g68
(g84
g70
NtRp2502
(dp2503
g73
(dp2504
sg82
g2498
sg75
(lp2505
g68
(g89
g70
NtRp2506
(dp2507
g73
(dp2508
g93
g94
ssg82
g2502
sg75
(lp2509
S'app_folders'
p2510
asbag68
(g89
g70
NtRp2511
(dp2512
g73
(dp2513
g100
g101
ssg82
g2502
sg75
(lp2514
S':'
asbag68
(g89
g70
NtRp2515
(dp2516
g73
(dp2517
sg82
g2502
sg75
(lp2518
g68
(g69
g70
NtRp2519
(dp2520
g73
(dp2521
g81
I4
ssg82
g2515
sg75
(lp2522
S"set(['/home/bcr/projects/cursojulho12/web2py/applications/ecommerce/'])"
p2523
asbasbasbag68
(g84
g70
NtRp2524
(dp2525
g73
(dp2526
sg82
g2498
sg75
(lp2527
g68
(g89
g70
NtRp2528
(dp2529
g73
(dp2530
g93
g94
ssg82
g2524
sg75
(lp2531
S'applications_parent'
p2532
asbag68
(g89
g70
NtRp2533
(dp2534
g73
(dp2535
g100
g101
ssg82
g2524
sg75
(lp2536
S':'
asbag68
(g89
g70
NtRp2537
(dp2538
g73
(dp2539
sg82
g2524
sg75
(lp2540
g68
(g69
g70
NtRp2541
(dp2542
g73
(dp2543
g81
I4
ssg82
g2537
sg75
(lp2544
S'/home/bcr/projects/cursojulho12/web2py'
p2545
asbasbasbag68
(g84
g70
NtRp2546
(dp2547
g73
(dp2548
sg82
g2498
sg75
(lp2549
g68
(g89
g70
NtRp2550
(dp2551
g73
(dp2552
g93
g94
ssg82
g2546
sg75
(lp2553
S'cmd_args'
p2554
asbag68
(g89
g70
NtRp2555
(dp2556
g73
(dp2557
g100
g101
ssg82
g2546
sg75
(lp2558
S':'
asbag68
(g89
g70
NtRp2559
(dp2560
g73
(dp2561
sg82
g2546
sg75
(lp2562
g68
(g69
g70
NtRp2563
(dp2564
g73
(dp2565
g81
I4
ssg82
g2559
sg75
(lp2566
g68
(g77
g70
NtRp2567
(dp2568
g73
(dp2569
g81
I3
ssg82
Nsg75
(lp2570
sbasbasbasbag68
(g84
g70
NtRp2571
(dp2572
g73
(dp2573
sg82
g2498
sg75
(lp2574
g68
(g89
g70
NtRp2575
(dp2576
g73
(dp2577
g93
g94
ssg82
g2571
sg75
(lp2578
S'cmd_options'
p2579
asbag68
(g89
g70
NtRp2580
(dp2581
g73
(dp2582
g100
g101
ssg82
g2571
sg75
(lp2583
S':'
asbag68
(g89
g70
NtRp2584
(dp2585
g73
(dp2586
sg82
g2571
sg75
(lp2587
g68
(g69
g70
NtRp2588
(dp2589
g73
(dp2590
g81
I4
ssg82
g2584
sg75
(lp2591
S"<Values at 0x269dc20: {'verbose': False, 'ip': '127.0.0.1', 'shutdown_timeout': 5, 'taskbar': False, 'nocron': False, 'pid_filename': 'httpserver.pid', 'maxthreads': None, 'softcron': False, 'server_name': 'vaiubuntu', 'bpython': False, 'nogui': False, 'port': 8000, 'extcron': False, 'debuglevel': 30, 'test': None, 'folder': '/home/bcr/projects/cursojulho12/web2py', 'config': '', 'import_models': False, 'winservice': '', 'shell': None, 'run': '', 'log_filename': 'httpserver.log', 'args': [''], 'socket_timeout': 5, 'ssl_ca_certificate': None, 'scheduler': None, 'profiler_filename': None, 'ssl_private_key': '', 'password': '1234', 'request_queue_size': 5, 'ssl_certificate': '', 'cronjob': False, 'numthreads': None, 'quiet': False, 'interfaces': None, 'minthreads': None, 'timeout': 10, 'plain': False, 'nobanner': False}>"
p2592
asbasbasbag68
(g84
g70
NtRp2593
(dp2594
g73
(dp2595
sg82
g2498
sg75
(lp2596
g68
(g89
g70
NtRp2597
(dp2598
g73
(dp2599
g93
g94
ssg82
g2593
sg75
(lp2600
S'db_sessions'
p2601
asbag68
(g89
g70
NtRp2602
(dp2603
g73
(dp2604
g100
g101
ssg82
g2593
sg75
(lp2605
S':'
asbag68
(g89
g70
NtRp2606
(dp2607
g73
(dp2608
sg82
g2593
sg75
(lp2609
g68
(g69
g70
NtRp2610
(dp2611
g73
(dp2612
g81
I4
ssg82
g2606
sg75
(lp2613
S'set([])'
p2614
asbasbasbag68
(g84
g70
NtRp2615
(dp2616
g73
(dp2617
sg82
g2498
sg75
(lp2618
g68
(g89
g70
NtRp2619
(dp2620
g73
(dp2621
g93
g94
ssg82
g2615
sg75
(lp2622
S'debugging'
p2623
asbag68
(g89
g70
NtRp2624
(dp2625
g73
(dp2626
g100
g101
ssg82
g2615
sg75
(lp2627
S':'
asbag68
(g89
g70
NtRp2628
(dp2629
g73
(dp2630
sg82
g2615
sg75
(lp2631
g68
(g69
g70
NtRp2632
(dp2633
g73
(dp2634
g81
I4
ssg82
g2628
sg75
(lp2635
g111
asbasbasbag68
(g84
g70
NtRp2636
(dp2637
g73
(dp2638
sg82
g2498
sg75
(lp2639
g68
(g89
g70
NtRp2640
(dp2641
g73
(dp2642
g93
g94
ssg82
g2636
sg75
(lp2643
S'gluon_parent'
p2644
asbag68
(g89
g70
NtRp2645
(dp2646
g73
(dp2647
g100
g101
ssg82
g2636
sg75
(lp2648
S':'
asbag68
(g89
g70
NtRp2649
(dp2650
g73
(dp2651
sg82
g2636
sg75
(lp2652
g68
(g69
g70
NtRp2653
(dp2654
g73
(dp2655
g81
I4
ssg82
g2649
sg75
(lp2656
S'/home/bcr/projects/cursojulho12/web2py'
p2657
asbasbasbag68
(g84
g70
NtRp2658
(dp2659
g73
(dp2660
sg82
g2498
sg75
(lp2661
g68
(g89
g70
NtRp2662
(dp2663
g73
(dp2664
g93
g94
ssg82
g2658
sg75
(lp2665
S'http_accept'
p2666
asbag68
(g89
g70
NtRp2667
(dp2668
g73
(dp2669
g100
g101
ssg82
g2658
sg75
(lp2670
S':'
asbag68
(g89
g70
NtRp2671
(dp2672
g73
(dp2673
sg82
g2658
sg75
(lp2674
g68
(g69
g70
NtRp2675
(dp2676
g73
(dp2677
g81
I4
ssg82
g2671
sg75
(lp2678
S'text/html,application/xhtml+xml,application/xml;q=0.9,*/*;q=0.8'
p2679
asbasbasbag68
(g84
g70
NtRp2680
(dp2681
g73
(dp2682
sg82
g2498
sg75
(lp2683
g68
(g89
g70
NtRp2684
(dp2685
g73
(dp2686
g93
g94
ssg82
g2680
sg75
(lp2687
S'http_accept_charset'
p2688
asbag68
(g89
g70
NtRp2689
(dp2690
g73
(dp2691
g100
g101
ssg82
g2680
sg75
(lp2692
S':'
asbag68
(g89
g70
NtRp2693
(dp2694
g73
(dp2695
sg82
g2680
sg75
(lp2696
g68
(g69
g70
NtRp2697
(dp2698
g73
(dp2699
g81
I4
ssg82
g2693
sg75
(lp2700
S'ISO-8859-1,utf-8;q=0.7,*;q=0.3'
p2701
asbasbasbag68
(g84
g70
NtRp2702
(dp2703
g73
(dp2704
sg82
g2498
sg75
(lp2705
g68
(g89
g70
NtRp2706
(dp2707
g73
(dp2708
g93
g94
ssg82
g2702
sg75
(lp2709
S'http_accept_encoding'
p2710
asbag68
(g89
g70
NtRp2711
(dp2712
g73
(dp2713
g100
g101
ssg82
g2702
sg75
(lp2714
S':'
asbag68
(g89
g70
NtRp2715
(dp2716
g73
(dp2717
sg82
g2702
sg75
(lp2718
g68
(g69
g70
NtRp2719
(dp2720
g73
(dp2721
g81
I4
ssg82
g2715
sg75
(lp2722
S'gzip,deflate,sdch'
p2723
asbasbasbag68
(g84
g70
NtRp2724
(dp2725
g73
(dp2726
sg82
g2498
sg75
(lp2727
g68
(g89
g70
NtRp2728
(dp2729
g73
(dp2730
g93
g94
ssg82
g2724
sg75
(lp2731
S'http_accept_language'
p2732
asbag68
(g89
g70
NtRp2733
(dp2734
g73
(dp2735
g100
g101
ssg82
g2724
sg75
(lp2736
S':'
asbag68
(g89
g70
NtRp2737
(dp2738
g73
(dp2739
sg82
g2724
sg75
(lp2740
g68
(g69
g70
NtRp2741
(dp2742
g73
(dp2743
g81
I4
ssg82
g2737
sg75
(lp2744
S'en-US,en;q=0.8,pt;q=0.6,pt-BR;q=0.4'
p2745
asbasbasbag68
(g84
g70
NtRp2746
(dp2747
g73
(dp2748
sg82
g2498
sg75
(lp2749
g68
(g89
g70
NtRp2750
(dp2751
g73
(dp2752
g93
g94
ssg82
g2746
sg75
(lp2753
S'http_cache_control'
p2754
asbag68
(g89
g70
NtRp2755
(dp2756
g73
(dp2757
g100
g101
ssg82
g2746
sg75
(lp2758
S':'
asbag68
(g89
g70
NtRp2759
(dp2760
g73
(dp2761
sg82
g2746
sg75
(lp2762
g68
(g69
g70
NtRp2763
(dp2764
g73
(dp2765
g81
I4
ssg82
g2759
sg75
(lp2766
S'max-age=0'
p2767
asbasbasbag68
(g84
g70
NtRp2768
(dp2769
g73
(dp2770
sg82
g2498
sg75
(lp2771
g68
(g89
g70
NtRp2772
(dp2773
g73
(dp2774
g93
g94
ssg82
g2768
sg75
(lp2775
S'http_connection'
p2776
asbag68
(g89
g70
NtRp2777
(dp2778
g73
(dp2779
g100
g101
ssg82
g2768
sg75
(lp2780
S':'
asbag68
(g89
g70
NtRp2781
(dp2782
g73
(dp2783
sg82
g2768
sg75
(lp2784
g68
(g69
g70
NtRp2785
(dp2786
g73
(dp2787
g81
I4
ssg82
g2781
sg75
(lp2788
S'keep-alive'
p2789
asbasbasbag68
(g84
g70
NtRp2790
(dp2791
g73
(dp2792
sg82
g2498
sg75
(lp2793
g68
(g89
g70
NtRp2794
(dp2795
g73
(dp2796
g93
g94
ssg82
g2790
sg75
(lp2797
S'http_cookie'
p2798
asbag68
(g89
g70
NtRp2799
(dp2800
g73
(dp2801
g100
g101
ssg82
g2790
sg75
(lp2802
S':'
asbag68
(g89
g70
NtRp2803
(dp2804
g73
(dp2805
sg82
g2790
sg75
(lp2806
g68
(g69
g70
NtRp2807
(dp2808
g73
(dp2809
g81
I4
ssg82
g2803
sg75
(lp2810
S'id_region=3; home_version=2; _ok=8657-378-10-2680; _okbk=cd4%3Dtrue%2Ccd5%3Daway%2Cvi5%3D0%2Cvi4%3D1344624325670%2Cvi3%3Dactive%2Cvi2%3Dfalse%2Cvi1%3Dfalse%2Ccd8%3Dchat%2Ccd6%3D0%2Ccd3%3Dfalse%2Ccd2%3D0%2Ccd1%3D0%2C; omp__super_properties=%7B%22all%22%3A%20%7B%22distinct_id%22%3A%20%222y14JHAnzKTdDAkRFLjSK3X865737102%22%7D%2C%22events%22%3A%20%7B%7D%2C%22funnels%22%3A%20%7B%7D%7D; sessionid=0761b3037e1a08892e53833d78309108; olfsk=olfsk4771358754951507; wcsid=g0Q88sKjBE5RIXGxnfMzJXo865737102; hblid=9Jk2asBlTShyEwW2mFXQxZ8865737104; djdt=hide; _oklv=1344650011431%2Cg0Q88sKjBE5RIXGxnfMzJXo865737102; csrftoken=KbX2XjpX55emy9Ctlalt3acs6OXsn3Af; session_id_welcome=127.0.0.1-8a276bf9-c2f4-42ee-90dc-a26fde56226a; session_id_admin=127.0.0.1-32db6cd0-0893-4da7-9d37-7043cc11ffeb; session_id_ecommerce=127.0.0.1-aef28dfb-c7a2-492b-8184-3c9f9081a86c'
p2811
asbasbasbag68
(g84
g70
NtRp2812
(dp2813
g73
(dp2814
sg82
g2498
sg75
(lp2815
g68
(g89
g70
NtRp2816
(dp2817
g73
(dp2818
g93
g94
ssg82
g2812
sg75
(lp2819
S'http_host'
p2820
asbag68
(g89
g70
NtRp2821
(dp2822
g73
(dp2823
g100
g101
ssg82
g2812
sg75
(lp2824
S':'
asbag68
(g89
g70
NtRp2825
(dp2826
g73
(dp2827
sg82
g2812
sg75
(lp2828
g68
(g69
g70
NtRp2829
(dp2830
g73
(dp2831
g81
I4
ssg82
g2825
sg75
(lp2832
S'localhost:8000'
p2833
asbasbasbag68
(g84
g70
NtRp2834
(dp2835
g73
(dp2836
sg82
g2498
sg75
(lp2837
g68
(g89
g70
NtRp2838
(dp2839
g73
(dp2840
g93
g94
ssg82
g2834
sg75
(lp2841
S'http_user_agent'
p2842
asbag68
(g89
g70
NtRp2843
(dp2844
g73
(dp2845
g100
g101
ssg82
g2834
sg75
(lp2846
S':'
asbag68
(g89
g70
NtRp2847
(dp2848
g73
(dp2849
sg82
g2834
sg75
(lp2850
g68
(g69
g70
NtRp2851
(dp2852
g73
(dp2853
g81
I4
ssg82
g2847
sg75
(lp2854
S'Mozilla/5.0 (X11; Linux x86_64) AppleWebKit/537.1 (KHTML, like Gecko) Chrome/21.0.1180.75 Safari/537.1'
p2855
asbasbasbag68
(g84
g70
NtRp2856
(dp2857
g73
(dp2858
sg82
g2498
sg75
(lp2859
g68
(g89
g70
NtRp2860
(dp2861
g73
(dp2862
g93
g94
ssg82
g2856
sg75
(lp2863
S'is_jython'
p2864
asbag68
(g89
g70
NtRp2865
(dp2866
g73
(dp2867
g100
g101
ssg82
g2856
sg75
(lp2868
S':'
asbag68
(g89
g70
NtRp2869
(dp2870
g73
(dp2871
sg82
g2856
sg75
(lp2872
g68
(g69
g70
NtRp2873
(dp2874
g73
(dp2875
g81
I4
ssg82
g2869
sg75
(lp2876
g111
asbasbasbag68
(g84
g70
NtRp2877
(dp2878
g73
(dp2879
sg82
g2498
sg75
(lp2880
g68
(g89
g70
NtRp2881
(dp2882
g73
(dp2883
g93
g94
ssg82
g2877
sg75
(lp2884
S'is_pypy'
p2885
asbag68
(g89
g70
NtRp2886
(dp2887
g73
(dp2888
g100
g101
ssg82
g2877
sg75
(lp2889
S':'
asbag68
(g89
g70
NtRp2890
(dp2891
g73
(dp2892
sg82
g2877
sg75
(lp2893
g68
(g69
g70
NtRp2894
(dp2895
g73
(dp2896
g81
I4
ssg82
g2890
sg75
(lp2897
g111
asbasbasbag68
(g84
g70
NtRp2898
(dp2899
g73
(dp2900
sg82
g2498
sg75
(lp2901
g68
(g89
g70
NtRp2902
(dp2903
g73
(dp2904
g93
g94
ssg82
g2898
sg75
(lp2905
S'path_info'
p2906
asbag68
(g89
g70
NtRp2907
(dp2908
g73
(dp2909
g100
g101
ssg82
g2898
sg75
(lp2910
S':'
asbag68
(g89
g70
NtRp2911
(dp2912
g73
(dp2913
sg82
g2898
sg75
(lp2914
g68
(g69
g70
NtRp2915
(dp2916
g73
(dp2917
g81
I4
ssg82
g2911
sg75
(lp2918
S'/'
asbasbasbag68
(g84
g70
NtRp2919
(dp2920
g73
(dp2921
sg82
g2498
sg75
(lp2922
g68
(g89
g70
NtRp2923
(dp2924
g73
(dp2925
g93
g94
ssg82
g2919
sg75
(lp2926
S'query_string'
p2927
asbag68
(g89
g70
NtRp2928
(dp2929
g73
(dp2930
g100
g101
ssg82
g2919
sg75
(lp2931
S':'
asbag68
(g89
g70
NtRp2932
(dp2933
g73
(dp2934
sg82
g2919
sg75
(lp2935
g68
(g69
g70
NtRp2936
(dp2937
g73
(dp2938
g81
I4
ssg82
g2932
sg75
(lp2939
S''
asbasbasbag68
(g84
g70
NtRp2940
(dp2941
g73
(dp2942
sg82
g2498
sg75
(lp2943
g68
(g89
g70
NtRp2944
(dp2945
g73
(dp2946
g93
g94
ssg82
g2940
sg75
(lp2947
S'remote_addr'
p2948
asbag68
(g89
g70
NtRp2949
(dp2950
g73
(dp2951
g100
g101
ssg82
g2940
sg75
(lp2952
S':'
asbag68
(g89
g70
NtRp2953
(dp2954
g73
(dp2955
sg82
g2940
sg75
(lp2956
g68
(g69
g70
NtRp2957
(dp2958
g73
(dp2959
g81
I4
ssg82
g2953
sg75
(lp2960
g201
asbasbasbag68
(g84
g70
NtRp2961
(dp2962
g73
(dp2963
sg82
g2498
sg75
(lp2964
g68
(g89
g70
NtRp2965
(dp2966
g73
(dp2967
g93
g94
ssg82
g2961
sg75
(lp2968
S'remote_port'
p2969
asbag68
(g89
g70
NtRp2970
(dp2971
g73
(dp2972
g100
g101
ssg82
g2961
sg75
(lp2973
S':'
asbag68
(g89
g70
NtRp2974
(dp2975
g73
(dp2976
sg82
g2961
sg75
(lp2977
g68
(g69
g70
NtRp2978
(dp2979
g73
(dp2980
g81
I4
ssg82
g2974
sg75
(lp2981
S'46822'
p2982
asbasbasbag68
(g84
g70
NtRp2983
(dp2984
g73
(dp2985
sg82
g2498
sg75
(lp2986
g68
(g89
g70
NtRp2987
(dp2988
g73
(dp2989
g93
g94
ssg82
g2983
sg75
(lp2990
S'request_method'
p2991
asbag68
(g89
g70
NtRp2992
(dp2993
g73
(dp2994
g100
g101
ssg82
g2983
sg75
(lp2995
S':'
asbag68
(g89
g70
NtRp2996
(dp2997
g73
(dp2998
sg82
g2983
sg75
(lp2999
g68
(g69
g70
NtRp3000
(dp3001
g73
(dp3002
g81
I4
ssg82
g2996
sg75
(lp3003
S'GET'
p3004
asbasbasbag68
(g84
g70
NtRp3005
(dp3006
g73
(dp3007
sg82
g2498
sg75
(lp3008
g68
(g89
g70
NtRp3009
(dp3010
g73
(dp3011
g93
g94
ssg82
g3005
sg75
(lp3012
S'request_uri'
p3013
asbag68
(g89
g70
NtRp3014
(dp3015
g73
(dp3016
g100
g101
ssg82
g3005
sg75
(lp3017
S':'
asbag68
(g89
g70
NtRp3018
(dp3019
g73
(dp3020
sg82
g3005
sg75
(lp3021
g68
(g69
g70
NtRp3022
(dp3023
g73
(dp3024
g81
I4
ssg82
g3018
sg75
(lp3025
S'/ecommerce/home/index'
p3026
asbasbasbag68
(g84
g70
NtRp3027
(dp3028
g73
(dp3029
sg82
g2498
sg75
(lp3030
g68
(g89
g70
NtRp3031
(dp3032
g73
(dp3033
g93
g94
ssg82
g3027
sg75
(lp3034
S'script_name'
p3035
asbag68
(g89
g70
NtRp3036
(dp3037
g73
(dp3038
g100
g101
ssg82
g3027
sg75
(lp3039
S':'
asbag68
(g89
g70
NtRp3040
(dp3041
g73
(dp3042
sg82
g3027
sg75
(lp3043
g68
(g69
g70
NtRp3044
(dp3045
g73
(dp3046
g81
I4
ssg82
g3040
sg75
(lp3047
S''
asbasbasbag68
(g84
g70
NtRp3048
(dp3049
g73
(dp3050
sg82
g2498
sg75
(lp3051
g68
(g89
g70
NtRp3052
(dp3053
g73
(dp3054
g93
g94
ssg82
g3048
sg75
(lp3055
S'server_name'
p3056
asbag68
(g89
g70
NtRp3057
(dp3058
g73
(dp3059
g100
g101
ssg82
g3048
sg75
(lp3060
S':'
asbag68
(g89
g70
NtRp3061
(dp3062
g73
(dp3063
sg82
g3048
sg75
(lp3064
g68
(g69
g70
NtRp3065
(dp3066
g73
(dp3067
g81
I4
ssg82
g3061
sg75
(lp3068
S'vaiubuntu'
p3069
asbasbasbag68
(g84
g70
NtRp3070
(dp3071
g73
(dp3072
sg82
g2498
sg75
(lp3073
g68
(g89
g70
NtRp3074
(dp3075
g73
(dp3076
g93
g94
ssg82
g3070
sg75
(lp3077
S'server_port'
p3078
asbag68
(g89
g70
NtRp3079
(dp3080
g73
(dp3081
g100
g101
ssg82
g3070
sg75
(lp3082
S':'
asbag68
(g89
g70
NtRp3083
(dp3084
g73
(dp3085
sg82
g3070
sg75
(lp3086
g68
(g69
g70
NtRp3087
(dp3088
g73
(dp3089
g81
I4
ssg82
g3083
sg75
(lp3090
S'8000'
p3091
asbasbasbag68
(g84
g70
NtRp3092
(dp3093
g73
(dp3094
sg82
g2498
sg75
(lp3095
g68
(g89
g70
NtRp3096
(dp3097
g73
(dp3098
g93
g94
ssg82
g3092
sg75
(lp3099
S'server_protocol'
p3100
asbag68
(g89
g70
NtRp3101
(dp3102
g73
(dp3103
g100
g101
ssg82
g3092
sg75
(lp3104
S':'
asbag68
(g89
g70
NtRp3105
(dp3106
g73
(dp3107
sg82
g3092
sg75
(lp3108
g68
(g69
g70
NtRp3109
(dp3110
g73
(dp3111
g81
I4
ssg82
g3105
sg75
(lp3112
S'HTTP/1.1'
p3113
asbasbasbag68
(g84
g70
NtRp3114
(dp3115
g73
(dp3116
sg82
g2498
sg75
(lp3117
g68
(g89
g70
NtRp3118
(dp3119
g73
(dp3120
g93
g94
ssg82
g3114
sg75
(lp3121
S'server_software'
p3122
asbag68
(g89
g70
NtRp3123
(dp3124
g73
(dp3125
g100
g101
ssg82
g3114
sg75
(lp3126
S':'
asbag68
(g89
g70
NtRp3127
(dp3128
g73
(dp3129
sg82
g3114
sg75
(lp3130
g68
(g69
g70
NtRp3131
(dp3132
g73
(dp3133
g81
I4
ssg82
g3127
sg75
(lp3134
S'Rocket 1.2.4'
p3135
asbasbasbag68
(g84
g70
NtRp3136
(dp3137
g73
(dp3138
sg82
g2498
sg75
(lp3139
g68
(g89
g70
NtRp3140
(dp3141
g73
(dp3142
g93
g94
ssg82
g3136
sg75
(lp3143
S'web2py_crontype'
p3144
asbag68
(g89
g70
NtRp3145
(dp3146
g73
(dp3147
g100
g101
ssg82
g3136
sg75
(lp3148
S':'
asbag68
(g89
g70
NtRp3149
(dp3150
g73
(dp3151
sg82
g3136
sg75
(lp3152
g68
(g69
g70
NtRp3153
(dp3154
g73
(dp3155
g81
I4
ssg82
g3149
sg75
(lp3156
S'hard'
p3157
asbasbasbag68
(g84
g70
NtRp3158
(dp3159
g73
(dp3160
sg82
g2498
sg75
(lp3161
g68
(g89
g70
NtRp3162
(dp3163
g73
(dp3164
g93
g94
ssg82
g3158
sg75
(lp3165
S'web2py_original_uri'
p3166
asbag68
(g89
g70
NtRp3167
(dp3168
g73
(dp3169
g100
g101
ssg82
g3158
sg75
(lp3170
S':'
asbag68
(g89
g70
NtRp3171
(dp3172
g73
(dp3173
sg82
g3158
sg75
(lp3174
g68
(g69
g70
NtRp3175
(dp3176
g73
(dp3177
g81
I4
ssg82
g3171
sg75
(lp3178
S'/'
asbasbasbag68
(g84
g70
NtRp3179
(dp3180
g73
(dp3181
sg82
g2498
sg75
(lp3182
g68
(g89
g70
NtRp3183
(dp3184
g73
(dp3185
g93
g94
ssg82
g3179
sg75
(lp3186
S'web2py_path'
p3187
asbag68
(g89
g70
NtRp3188
(dp3189
g73
(dp3190
g100
g101
ssg82
g3179
sg75
(lp3191
S':'
asbag68
(g89
g70
NtRp3192
(dp3193
g73
(dp3194
sg82
g3179
sg75
(lp3195
g68
(g69
g70
NtRp3196
(dp3197
g73
(dp3198
g81
I4
ssg82
g3192
sg75
(lp3199
g2545
asbasbasbag68
(g84
g70
NtRp3200
(dp3201
g73
(dp3202
sg82
g2498
sg75
(lp3203
g68
(g89
g70
NtRp3204
(dp3205
g73
(dp3206
g93
g94
ssg82
g3200
sg75
(lp3207
S'web2py_version'
p3208
asbag68
(g89
g70
NtRp3209
(dp3210
g73
(dp3211
g100
g101
ssg82
g3200
sg75
(lp3212
S':'
asbag68
(g89
g70
NtRp3213
(dp3214
g73
(dp3215
sg82
g3200
sg75
(lp3216
g68
(g69
g70
NtRp3217
(dp3218
g73
(dp3219
g81
I4
ssg82
g3213
sg75
(lp3220
g68
(g77
g70
NtRp3221
(dp3222
g73
(dp3223
g81
I3
ssg82
Nsg75
(lp3224
g68
(g84
g70
NtRp3225
(dp3226
g73
(dp3227
sg82
g3221
sg75
(lp3228
g68
(g89
g70
NtRp3229
(dp3230
g73
(dp3231
sg82
g3225
sg75
(lp3232
g68
(g69
g70
NtRp3233
(dp3234
g73
(dp3235
g81
I3
ssg82
g3229
sg75
(lp3236
S'1'
asbasbasbag68
(g84
g70
NtRp3237
(dp3238
g73
(dp3239
sg82
g3221
sg75
(lp3240
g68
(g89
g70
NtRp3241
(dp3242
g73
(dp3243
sg82
g3237
sg75
(lp3244
g68
(g69
g70
NtRp3245
(dp3246
g73
(dp3247
g81
I3
ssg82
g3241
sg75
(lp3248
S'99'
p3249
asbasbasbag68
(g84
g70
NtRp3250
(dp3251
g73
(dp3252
sg82
g3221
sg75
(lp3253
g68
(g89
g70
NtRp3254
(dp3255
g73
(dp3256
sg82
g3250
sg75
(lp3257
g68
(g69
g70
NtRp3258
(dp3259
g73
(dp3260
g81
I3
ssg82
g3254
sg75
(lp3261
S'7'
asbasbasbag68
(g84
g70
NtRp3262
(dp3263
g73
(dp3264
sg82
g3221
sg75
(lp3265
g68
(g89
g70
NtRp3266
(dp3267
g73
(dp3268
sg82
g3262
sg75
(lp3269
g68
(g69
g70
NtRp3270
(dp3271
g73
(dp3272
g81
I3
ssg82
g3266
sg75
(lp3273
S'datetime.datetime(2012, 3, 4, 22, 12, 8)'
p3274
asbasbasbag68
(g84
g70
NtRp3275
(dp3276
g73
(dp3277
sg82
g3221
sg75
(lp3278
g68
(g89
g70
NtRp3279
(dp3280
g73
(dp3281
sg82
g3275
sg75
(lp3282
g68
(g69
g70
NtRp3283
(dp3284
g73
(dp3285
g81
I3
ssg82
g3279
sg75
(lp3286
S'stable'
p3287
asbasbasbasbasbasbasbag68
(g84
g70
NtRp3288
(dp3289
g73
(dp3290
sg82
g2498
sg75
(lp3291
g68
(g89
g70
NtRp3292
(dp3293
g73
(dp3294
g93
g94
ssg82
g3288
sg75
(lp3295
S'wsgi_errors'
p3296
asbag68
(g89
g70
NtRp3297
(dp3298
g73
(dp3299
g100
g101
ssg82
g3288
sg75
(lp3300
S':'
asbag68
(g89
g70
NtRp3301
(dp3302
g73
(dp3303
sg82
g3288
sg75
(lp3304
g68
(g69
g70
NtRp3305
(dp3306
g73
(dp3307
g81
I4
ssg82
g3301
sg75
(lp3308
S"<open file '<stderr>', mode 'w' at 0x7f935df03270>"
p3309
asbasbasbag68
(g84
g70
NtRp3310
(dp3311
g73
(dp3312
sg82
g2498
sg75
(lp3313
g68
(g89
g70
NtRp3314
(dp3315
g73
(dp3316
g93
g94
ssg82
g3310
sg75
(lp3317
S'wsgi_file_wrapper'
p3318
asbag68
(g89
g70
NtRp3319
(dp3320
g73
(dp3321
g100
g101
ssg82
g3310
sg75
(lp3322
S':'
asbag68
(g89
g70
NtRp3323
(dp3324
g73
(dp3325
sg82
g3310
sg75
(lp3326
g68
(g69
g70
NtRp3327
(dp3328
g73
(dp3329
g81
I4
ssg82
g3323
sg75
(lp3330
S'<class wsgiref.util.FileWrapper at 0x2570e88>'
p3331
asbasbasbag68
(g84
g70
NtRp3332
(dp3333
g73
(dp3334
sg82
g2498
sg75
(lp3335
g68
(g89
g70
NtRp3336
(dp3337
g73
(dp3338
g93
g94
ssg82
g3332
sg75
(lp3339
S'wsgi_input'
p3340
asbag68
(g89
g70
NtRp3341
(dp3342
g73
(dp3343
g100
g101
ssg82
g3332
sg75
(lp3344
S':'
asbag68
(g89
g70
NtRp3345
(dp3346
g73
(dp3347
sg82
g3332
sg75
(lp3348
g68
(g69
g70
NtRp3349
(dp3350
g73
(dp3351
g81
I4
ssg82
g3345
sg75
(lp3352
S'<socket._fileobject object at 0x7f9344170f50>'
p3353
asbasbasbag68
(g84
g70
NtRp3354
(dp3355
g73
(dp3356
sg82
g2498
sg75
(lp3357
g68
(g89
g70
NtRp3358
(dp3359
g73
(dp3360
g93
g94
ssg82
g3354
sg75
(lp3361
S'wsgi_multiprocess'
p3362
asbag68
(g89
g70
NtRp3363
(dp3364
g73
(dp3365
g100
g101
ssg82
g3354
sg75
(lp3366
S':'
asbag68
(g89
g70
NtRp3367
(dp3368
g73
(dp3369
sg82
g3354
sg75
(lp3370
g68
(g69
g70
NtRp3371
(dp3372
g73
(dp3373
g81
I4
ssg82
g3367
sg75
(lp3374
g111
asbasbasbag68
(g84
g70
NtRp3375
(dp3376
g73
(dp3377
sg82
g2498
sg75
(lp3378
g68
(g89
g70
NtRp3379
(dp3380
g73
(dp3381
g93
g94
ssg82
g3375
sg75
(lp3382
S'wsgi_multithread'
p3383
asbag68
(g89
g70
NtRp3384
(dp3385
g73
(dp3386
g100
g101
ssg82
g3375
sg75
(lp3387
S':'
asbag68
(g89
g70
NtRp3388
(dp3389
g73
(dp3390
sg82
g3375
sg75
(lp3391
g68
(g69
g70
NtRp3392
(dp3393
g73
(dp3394
g81
I4
ssg82
g3388
sg75
(lp3395
S'True'
p3396
asbasbasbag68
(g84
g70
NtRp3397
(dp3398
g73
(dp3399
sg82
g2498
sg75
(lp3400
g68
(g89
g70
NtRp3401
(dp3402
g73
(dp3403
g93
g94
ssg82
g3397
sg75
(lp3404
S'wsgi_run_once'
p3405
asbag68
(g89
g70
NtRp3406
(dp3407
g73
(dp3408
g100
g101
ssg82
g3397
sg75
(lp3409
S':'
asbag68
(g89
g70
NtRp3410
(dp3411
g73
(dp3412
sg82
g3397
sg75
(lp3413
g68
(g69
g70
NtRp3414
(dp3415
g73
(dp3416
g81
I4
ssg82
g3410
sg75
(lp3417
g111
asbasbasbag68
(g84
g70
NtRp3418
(dp3419
g73
(dp3420
sg82
g2498
sg75
(lp3421
g68
(g89
g70
NtRp3422
(dp3423
g73
(dp3424
g93
g94
ssg82
g3418
sg75
(lp3425
S'wsgi_url_scheme'
p3426
asbag68
(g89
g70
NtRp3427
(dp3428
g73
(dp3429
g100
g101
ssg82
g3418
sg75
(lp3430
S':'
asbag68
(g89
g70
NtRp3431
(dp3432
g73
(dp3433
sg82
g3418
sg75
(lp3434
g68
(g69
g70
NtRp3435
(dp3436
g73
(dp3437
g81
I4
ssg82
g3431
sg75
(lp3438
S'http'
p3439
asbasbasbag68
(g84
g70
NtRp3440
(dp3441
g73
(dp3442
sg82
g2498
sg75
(lp3443
g68
(g89
g70
NtRp3444
(dp3445
g73
(dp3446
g93
g94
ssg82
g3440
sg75
(lp3447
S'wsgi_version'
p3448
asbag68
(g89
g70
NtRp3449
(dp3450
g73
(dp3451
g100
g101
ssg82
g3440
sg75
(lp3452
S':'
asbag68
(g89
g70
NtRp3453
(dp3454
g73
(dp3455
sg82
g3440
sg75
(lp3456
g68
(g69
g70
NtRp3457
(dp3458
g73
(dp3459
g81
I4
ssg82
g3453
sg75
(lp3460
g68
(g77
g70
NtRp3461
(dp3462
g73
(dp3463
g81
I3
ssg82
Nsg75
(lp3464
g68
(g84
g70
NtRp3465
(dp3466
g73
(dp3467
sg82
g3461
sg75
(lp3468
g68
(g89
g70
NtRp3469
(dp3470
g73
(dp3471
sg82
g3465
sg75
(lp3472
g68
(g69
g70
NtRp3473
(dp3474
g73
(dp3475
g81
I3
ssg82
g3469
sg75
(lp3476
S'1'
asbasbasbag68
(g84
g70
NtRp3477
(dp3478
g73
(dp3479
sg82
g3461
sg75
(lp3480
g68
(g89
g70
NtRp3481
(dp3482
g73
(dp3483
sg82
g3477
sg75
(lp3484
g68
(g69
g70
NtRp3485
(dp3486
g73
(dp3487
g81
I3
ssg82
g3481
sg75
(lp3488
S'0'
asbasbasbasbasbasbasbasbasbasbasbag68
(g84
g70
NtRp3489
(dp3490
g73
(dp3491
sg82
g78
sg75
(lp3492
g68
(g89
g70
NtRp3493
(dp3494
g73
(dp3495
g93
g94
ssg82
g3489
sg75
(lp3496
S'extension'
p3497
asbag68
(g89
g70
NtRp3498
(dp3499
g73
(dp3500
g100
g101
ssg82
g3489
sg75
(lp3501
S':'
asbag68
(g89
g70
NtRp3502
(dp3503
g73
(dp3504
sg82
g3489
sg75
(lp3505
g68
(g69
g70
NtRp3506
(dp3507
g73
(dp3508
g81
I5
ssg82
g3502
sg75
(lp3509
S'html'
p3510
asbasbasbag68
(g84
g70
NtRp3511
(dp3512
g73
(dp3513
sg82
g78
sg75
(lp3514
g68
(g89
g70
NtRp3515
(dp3516
g73
(dp3517
g93
g94
ssg82
g3511
sg75
(lp3518
S'folder'
p3519
asbag68
(g89
g70
NtRp3520
(dp3521
g73
(dp3522
g100
g101
ssg82
g3511
sg75
(lp3523
S':'
asbag68
(g89
g70
NtRp3524
(dp3525
g73
(dp3526
sg82
g3511
sg75
(lp3527
g68
(g69
g70
NtRp3528
(dp3529
g73
(dp3530
g81
I5
ssg82
g3524
sg75
(lp3531
S'/home/bcr/projects/cursojulho12/web2py/applications/ecommerce/'
p3532
asbasbasbag68
(g84
g70
NtRp3533
(dp3534
g73
(dp3535
sg82
g78
sg75
(lp3536
g68
(g89
g70
NtRp3537
(dp3538
g73
(dp3539
g93
g94
ssg82
g3533
sg75
(lp3540
S'function'
p3541
asbag68
(g89
g70
NtRp3542
(dp3543
g73
(dp3544
g100
g101
ssg82
g3533
sg75
(lp3545
S':'
asbag68
(g89
g70
NtRp3546
(dp3547
g73
(dp3548
sg82
g3533
sg75
(lp3549
g68
(g69
g70
NtRp3550
(dp3551
g73
(dp3552
g81
I5
ssg82
g3546
sg75
(lp3553
S'index'
p3554
asbasbasbag68
(g84
g70
NtRp3555
(dp3556
g73
(dp3557
sg82
g78
sg75
(lp3558
g68
(g89
g70
NtRp3559
(dp3560
g73
(dp3561
g93
g94
ssg82
g3555
sg75
(lp3562
S'get_vars'
p3563
asbag68
(g89
g70
NtRp3564
(dp3565
g73
(dp3566
g100
g101
ssg82
g3555
sg75
(lp3567
S':'
asbag68
(g89
g70
NtRp3568
(dp3569
g73
(dp3570
sg82
g3555
sg75
(lp3571
g68
(g69
g70
NtRp3572
(dp3573
g73
(dp3574
g81
I5
ssg82
g3568
sg75
(lp3575
g68
(g77
g70
NtRp3576
(dp3577
g73
(dp3578
g81
I4
ssg82
Nsg75
(lp3579
sbasbasbasbag68
(g84
g70
NtRp3580
(dp3581
g73
(dp3582
sg82
g78
sg75
(lp3583
g68
(g89
g70
NtRp3584
(dp3585
g73
(dp3586
g93
g94
ssg82
g3580
sg75
(lp3587
S'global_settings'
p3588
asbag68
(g89
g70
NtRp3589
(dp3590
g73
(dp3591
g100
g101
ssg82
g3580
sg75
(lp3592
S':'
asbag68
(g89
g70
NtRp3593
(dp3594
g73
(dp3595
sg82
g3580
sg75
(lp3596
g68
(g69
g70
NtRp3597
(dp3598
g73
(dp3599
g81
I5
ssg82
g3593
sg75
(lp3600
g68
(g77
g70
NtRp3601
(dp3602
g73
(dp3603
g81
I4
ssg82
Nsg75
(lp3604
g68
(g84
g70
NtRp3605
(dp3606
g73
(dp3607
sg82
g3601
sg75
(lp3608
g68
(g89
g70
NtRp3609
(dp3610
g73
(dp3611
g93
g94
ssg82
g3605
sg75
(lp3612
g2510
asbag68
(g89
g70
NtRp3613
(dp3614
g73
(dp3615
g100
g101
ssg82
g3605
sg75
(lp3616
S':'
asbag68
(g89
g70
NtRp3617
(dp3618
g73
(dp3619
sg82
g3605
sg75
(lp3620
g68
(g69
g70
NtRp3621
(dp3622
g73
(dp3623
g81
I4
ssg82
g3617
sg75
(lp3624
S"set(['/home/bcr/projects/cursojulho12/web2py/applications/ecommerce/'])"
p3625
asbasbasbag68
(g84
g70
NtRp3626
(dp3627
g73
(dp3628
sg82
g3601
sg75
(lp3629
g68
(g89
g70
NtRp3630
(dp3631
g73
(dp3632
g93
g94
ssg82
g3626
sg75
(lp3633
g2532
asbag68
(g89
g70
NtRp3634
(dp3635
g73
(dp3636
g100
g101
ssg82
g3626
sg75
(lp3637
S':'
asbag68
(g89
g70
NtRp3638
(dp3639
g73
(dp3640
sg82
g3626
sg75
(lp3641
g68
(g69
g70
NtRp3642
(dp3643
g73
(dp3644
g81
I4
ssg82
g3638
sg75
(lp3645
g2545
asbasbasbag68
(g84
g70
NtRp3646
(dp3647
g73
(dp3648
sg82
g3601
sg75
(lp3649
g68
(g89
g70
NtRp3650
(dp3651
g73
(dp3652
g93
g94
ssg82
g3646
sg75
(lp3653
g2554
asbag68
(g89
g70
NtRp3654
(dp3655
g73
(dp3656
g100
g101
ssg82
g3646
sg75
(lp3657
S':'
asbag68
(g89
g70
NtRp3658
(dp3659
g73
(dp3660
sg82
g3646
sg75
(lp3661
g68
(g69
g70
NtRp3662
(dp3663
g73
(dp3664
g81
I4
ssg82
g3658
sg75
(lp3665
g68
(g77
g70
NtRp3666
(dp3667
g73
(dp3668
g81
I3
ssg82
Nsg75
(lp3669
sbasbasbasbag68
(g84
g70
NtRp3670
(dp3671
g73
(dp3672
sg82
g3601
sg75
(lp3673
g68
(g89
g70
NtRp3674
(dp3675
g73
(dp3676
g93
g94
ssg82
g3670
sg75
(lp3677
g2579
asbag68
(g89
g70
NtRp3678
(dp3679
g73
(dp3680
g100
g101
ssg82
g3670
sg75
(lp3681
S':'
asbag68
(g89
g70
NtRp3682
(dp3683
g73
(dp3684
sg82
g3670
sg75
(lp3685
g68
(g69
g70
NtRp3686
(dp3687
g73
(dp3688
g81
I4
ssg82
g3682
sg75
(lp3689
S"<Values at 0x269dc20: {'verbose': False, 'ip': '127.0.0.1', 'shutdown_timeout': 5, 'taskbar': False, 'nocron': False, 'pid_filename': 'httpserver.pid', 'maxthreads': None, 'softcron': False, 'server_name': 'vaiubuntu', 'bpython': False, 'nogui': False, 'port': 8000, 'extcron': False, 'debuglevel': 30, 'test': None, 'folder': '/home/bcr/projects/cursojulho12/web2py', 'config': '', 'import_models': False, 'winservice': '', 'shell': None, 'run': '', 'log_filename': 'httpserver.log', 'args': [''], 'socket_timeout': 5, 'ssl_ca_certificate': None, 'scheduler': None, 'profiler_filename': None, 'ssl_private_key': '', 'password': '1234', 'request_queue_size': 5, 'ssl_certificate': '', 'cronjob': False, 'numthreads': None, 'quiet': False, 'interfaces': None, 'minthreads': None, 'timeout': 10, 'plain': False, 'nobanner': False}>"
p3690
asbasbasbag68
(g84
g70
NtRp3691
(dp3692
g73
(dp3693
sg82
g3601
sg75
(lp3694
g68
(g89
g70
NtRp3695
(dp3696
g73
(dp3697
g93
g94
ssg82
g3691
sg75
(lp3698
g2601
asbag68
(g89
g70
NtRp3699
(dp3700
g73
(dp3701
g100
g101
ssg82
g3691
sg75
(lp3702
S':'
asbag68
(g89
g70
NtRp3703
(dp3704
g73
(dp3705
sg82
g3691
sg75
(lp3706
g68
(g69
g70
NtRp3707
(dp3708
g73
(dp3709
g81
I4
ssg82
g3703
sg75
(lp3710
S'set([])'
p3711
asbasbasbag68
(g84
g70
NtRp3712
(dp3713
g73
(dp3714
sg82
g3601
sg75
(lp3715
g68
(g89
g70
NtRp3716
(dp3717
g73
(dp3718
g93
g94
ssg82
g3712
sg75
(lp3719
g2623
asbag68
(g89
g70
NtRp3720
(dp3721
g73
(dp3722
g100
g101
ssg82
g3712
sg75
(lp3723
S':'
asbag68
(g89
g70
NtRp3724
(dp3725
g73
(dp3726
sg82
g3712
sg75
(lp3727
g68
(g69
g70
NtRp3728
(dp3729
g73
(dp3730
g81
I4
ssg82
g3724
sg75
(lp3731
g111
asbasbasbag68
(g84
g70
NtRp3732
(dp3733
g73
(dp3734
sg82
g3601
sg75
(lp3735
g68
(g89
g70
NtRp3736
(dp3737
g73
(dp3738
g93
g94
ssg82
g3732
sg75
(lp3739
g2644
asbag68
(g89
g70
NtRp3740
(dp3741
g73
(dp3742
g100
g101
ssg82
g3732
sg75
(lp3743
S':'
asbag68
(g89
g70
NtRp3744
(dp3745
g73
(dp3746
sg82
g3732
sg75
(lp3747
g68
(g69
g70
NtRp3748
(dp3749
g73
(dp3750
g81
I4
ssg82
g3744
sg75
(lp3751
g2657
asbasbasbag68
(g84
g70
NtRp3752
(dp3753
g73
(dp3754
sg82
g3601
sg75
(lp3755
g68
(g89
g70
NtRp3756
(dp3757
g73
(dp3758
g93
g94
ssg82
g3752
sg75
(lp3759
g2864
asbag68
(g89
g70
NtRp3760
(dp3761
g73
(dp3762
g100
g101
ssg82
g3752
sg75
(lp3763
S':'
asbag68
(g89
g70
NtRp3764
(dp3765
g73
(dp3766
sg82
g3752
sg75
(lp3767
g68
(g69
g70
NtRp3768
(dp3769
g73
(dp3770
g81
I4
ssg82
g3764
sg75
(lp3771
g111
asbasbasbag68
(g84
g70
NtRp3772
(dp3773
g73
(dp3774
sg82
g3601
sg75
(lp3775
g68
(g89
g70
NtRp3776
(dp3777
g73
(dp3778
g93
g94
ssg82
g3772
sg75
(lp3779
g2885
asbag68
(g89
g70
NtRp3780
(dp3781
g73
(dp3782
g100
g101
ssg82
g3772
sg75
(lp3783
S':'
asbag68
(g89
g70
NtRp3784
(dp3785
g73
(dp3786
sg82
g3772
sg75
(lp3787
g68
(g69
g70
NtRp3788
(dp3789
g73
(dp3790
g81
I4
ssg82
g3784
sg75
(lp3791
g111
asbasbasbag68
(g84
g70
NtRp3792
(dp3793
g73
(dp3794
sg82
g3601
sg75
(lp3795
g68
(g89
g70
NtRp3796
(dp3797
g73
(dp3798
g93
g94
ssg82
g3792
sg75
(lp3799
g3144
asbag68
(g89
g70
NtRp3800
(dp3801
g73
(dp3802
g100
g101
ssg82
g3792
sg75
(lp3803
S':'
asbag68
(g89
g70
NtRp3804
(dp3805
g73
(dp3806
sg82
g3792
sg75
(lp3807
g68
(g69
g70
NtRp3808
(dp3809
g73
(dp3810
g81
I4
ssg82
g3804
sg75
(lp3811
g3157
asbasbasbag68
(g84
g70
NtRp3812
(dp3813
g73
(dp3814
sg82
g3601
sg75
(lp3815
g68
(g89
g70
NtRp3816
(dp3817
g73
(dp3818
g93
g94
ssg82
g3812
sg75
(lp3819
g3208
asbag68
(g89
g70
NtRp3820
(dp3821
g73
(dp3822
g100
g101
ssg82
g3812
sg75
(lp3823
S':'
asbag68
(g89
g70
NtRp3824
(dp3825
g73
(dp3826
sg82
g3812
sg75
(lp3827
g68
(g69
g70
NtRp3828
(dp3829
g73
(dp3830
g81
I4
ssg82
g3824
sg75
(lp3831
g68
(g77
g70
NtRp3832
(dp3833
g73
(dp3834
g81
I3
ssg82
Nsg75
(lp3835
g68
(g84
g70
NtRp3836
(dp3837
g73
(dp3838
sg82
g3832
sg75
(lp3839
g68
(g89
g70
NtRp3840
(dp3841
g73
(dp3842
sg82
g3836
sg75
(lp3843
g68
(g69
g70
NtRp3844
(dp3845
g73
(dp3846
g81
I3
ssg82
g3840
sg75
(lp3847
S'1'
asbasbasbag68
(g84
g70
NtRp3848
(dp3849
g73
(dp3850
sg82
g3832
sg75
(lp3851
g68
(g89
g70
NtRp3852
(dp3853
g73
(dp3854
sg82
g3848
sg75
(lp3855
g68
(g69
g70
NtRp3856
(dp3857
g73
(dp3858
g81
I3
ssg82
g3852
sg75
(lp3859
S'99'
p3860
asbasbasbag68
(g84
g70
NtRp3861
(dp3862
g73
(dp3863
sg82
g3832
sg75
(lp3864
g68
(g89
g70
NtRp3865
(dp3866
g73
(dp3867
sg82
g3861
sg75
(lp3868
g68
(g69
g70
NtRp3869
(dp3870
g73
(dp3871
g81
I3
ssg82
g3865
sg75
(lp3872
S'7'
asbasbasbag68
(g84
g70
NtRp3873
(dp3874
g73
(dp3875
sg82
g3832
sg75
(lp3876
g68
(g89
g70
NtRp3877
(dp3878
g73
(dp3879
sg82
g3873
sg75
(lp3880
g68
(g69
g70
NtRp3881
(dp3882
g73
(dp3883
g81
I3
ssg82
g3877
sg75
(lp3884
S'datetime.datetime(2012, 3, 4, 22, 12, 8)'
p3885
asbasbasbag68
(g84
g70
NtRp3886
(dp3887
g73
(dp3888
sg82
g3832
sg75
(lp3889
g68
(g89
g70
NtRp3890
(dp3891
g73
(dp3892
sg82
g3886
sg75
(lp3893
g68
(g69
g70
NtRp3894
(dp3895
g73
(dp3896
g81
I3
ssg82
g3890
sg75
(lp3897
g3287
asbasbasbasbasbasbasbasbasbasbasbag68
(g84
g70
NtRp3898
(dp3899
g73
(dp3900
sg82
g78
sg75
(lp3901
g68
(g89
g70
NtRp3902
(dp3903
g73
(dp3904
g93
g94
ssg82
g3898
sg75
(lp3905
S'is_https'
p3906
asbag68
(g89
g70
NtRp3907
(dp3908
g73
(dp3909
g100
g101
ssg82
g3898
sg75
(lp3910
S':'
asbag68
(g89
g70
NtRp3911
(dp3912
g73
(dp3913
sg82
g3898
sg75
(lp3914
g68
(g69
g70
NtRp3915
(dp3916
g73
(dp3917
g81
I5
ssg82
g3911
sg75
(lp3918
g111
asbasbasbag68
(g84
g70
NtRp3919
(dp3920
g73
(dp3921
sg82
g78
sg75
(lp3922
g68
(g89
g70
NtRp3923
(dp3924
g73
(dp3925
g93
g94
ssg82
g3919
sg75
(lp3926
S'is_local'
p3927
asbag68
(g89
g70
NtRp3928
(dp3929
g73
(dp3930
g100
g101
ssg82
g3919
sg75
(lp3931
S':'
asbag68
(g89
g70
NtRp3932
(dp3933
g73
(dp3934
sg82
g3919
sg75
(lp3935
g68
(g69
g70
NtRp3936
(dp3937
g73
(dp3938
g81
I5
ssg82
g3932
sg75
(lp3939
g3396
asbasbasbag68
(g84
g70
NtRp3940
(dp3941
g73
(dp3942
sg82
g78
sg75
(lp3943
g68
(g89
g70
NtRp3944
(dp3945
g73
(dp3946
g93
g94
ssg82
g3940
sg75
(lp3947
S'is_restful'
p3948
asbag68
(g89
g70
NtRp3949
(dp3950
g73
(dp3951
g100
g101
ssg82
g3940
sg75
(lp3952
S':'
asbag68
(g89
g70
NtRp3953
(dp3954
g73
(dp3955
sg82
g3940
sg75
(lp3956
g68
(g69
g70
NtRp3957
(dp3958
g73
(dp3959
g81
I5
ssg82
g3953
sg75
(lp3960
g111
asbasbasbag68
(g84
g70
NtRp3961
(dp3962
g73
(dp3963
sg82
g78
sg75
(lp3964
g68
(g89
g70
NtRp3965
(dp3966
g73
(dp3967
g93
g94
ssg82
g3961
sg75
(lp3968
S'now'
p3969
asbag68
(g89
g70
NtRp3970
(dp3971
g73
(dp3972
g100
g101
ssg82
g3961
sg75
(lp3973
S':'
asbag68
(g89
g70
NtRp3974
(dp3975
g73
(dp3976
sg82
g3961
sg75
(lp3977
g68
(g69
g70
NtRp3978
(dp3979
g73
(dp3980
g81
I5
ssg82
g3974
sg75
(lp3981
S'datetime.datetime(2012, 8, 11, 2, 48, 56, 27016)'
p3982
asbasbasbag68
(g84
g70
NtRp3983
(dp3984
g73
(dp3985
sg82
g78
sg75
(lp3986
g68
(g89
g70
NtRp3987
(dp3988
g73
(dp3989
g93
g94
ssg82
g3983
sg75
(lp3990
S'post_vars'
p3991
asbag68
(g89
g70
NtRp3992
(dp3993
g73
(dp3994
g100
g101
ssg82
g3983
sg75
(lp3995
S':'
asbag68
(g89
g70
NtRp3996
(dp3997
g73
(dp3998
sg82
g3983
sg75
(lp3999
g68
(g69
g70
NtRp4000
(dp4001
g73
(dp4002
g81
I5
ssg82
g3996
sg75
(lp4003
g68
(g77
g70
NtRp4004
(dp4005
g73
(dp4006
g81
I4
ssg82
Nsg75
(lp4007
sbasbasbasbag68
(g84
g70
NtRp4008
(dp4009
g73
(dp4010
sg82
g78
sg75
(lp4011
g68
(g89
g70
NtRp4012
(dp4013
g73
(dp4014
g93
g94
ssg82
g4008
sg75
(lp4015
S'url'
p4016
asbag68
(g89
g70
NtRp4017
(dp4018
g73
(dp4019
g100
g101
ssg82
g4008
sg75
(lp4020
S':'
asbag68
(g89
g70
NtRp4021
(dp4022
g73
(dp4023
sg82
g4008
sg75
(lp4024
g68
(g69
g70
NtRp4025
(dp4026
g73
(dp4027
g81
I5
ssg82
g4021
sg75
(lp4028
S'/'
asbasbasbag68
(g84
g70
NtRp4029
(dp4030
g73
(dp4031
sg82
g78
sg75
(lp4032
g68
(g89
g70
NtRp4033
(dp4034
g73
(dp4035
g93
g94
ssg82
g4029
sg75
(lp4036
S'utcnow'
p4037
asbag68
(g89
g70
NtRp4038
(dp4039
g73
(dp4040
g100
g101
ssg82
g4029
sg75
(lp4041
S':'
asbag68
(g89
g70
NtRp4042
(dp4043
g73
(dp4044
sg82
g4029
sg75
(lp4045
g68
(g69
g70
NtRp4046
(dp4047
g73
(dp4048
g81
I5
ssg82
g4042
sg75
(lp4049
S'datetime.datetime(2012, 8, 11, 5, 48, 56, 27035)'
p4050
asbasbasbag68
(g84
g70
NtRp4051
(dp4052
g73
(dp4053
sg82
g78
sg75
(lp4054
g68
(g89
g70
NtRp4055
(dp4056
g73
(dp4057
g93
g94
ssg82
g4051
sg75
(lp4058
S'uuid'
p4059
asbag68
(g89
g70
NtRp4060
(dp4061
g73
(dp4062
g100
g101
ssg82
g4051
sg75
(lp4063
S':'
asbag68
(g89
g70
NtRp4064
(dp4065
g73
(dp4066
sg82
g4051
sg75
(lp4067
g68
(g69
g70
NtRp4068
(dp4069
g73
(dp4070
g81
I5
ssg82
g4064
sg75
(lp4071
S'ecommerce/127.0.0.1.2012-08-11.02-48-56.27545d2f-c1c1-4739-b8b4-74cfd514a80f'
p4072
asbasbasbag68
(g84
g70
NtRp4073
(dp4074
g73
(dp4075
sg82
g78
sg75
(lp4076
g68
(g89
g70
NtRp4077
(dp4078
g73
(dp4079
g93
g94
ssg82
g4073
sg75
(lp4080
S'vars'
p4081
asbag68
(g89
g70
NtRp4082
(dp4083
g73
(dp4084
g100
g101
ssg82
g4073
sg75
(lp4085
S':'
asbag68
(g89
g70
NtRp4086
(dp4087
g73
(dp4088
sg82
g4073
sg75
(lp4089
g68
(g69
g70
NtRp4090
(dp4091
g73
(dp4092
g81
I5
ssg82
g4086
sg75
(lp4093
g68
(g77
g70
NtRp4094
(dp4095
g73
(dp4096
g81
I4
ssg82
Nsg75
(lp4097
sbasbasbasbag68
(g84
g70
NtRp4098
(dp4099
g73
(dp4100
sg82
g78
sg75
(lp4101
g68
(g89
g70
NtRp4102
(dp4103
g73
(dp4104
g93
g94
ssg82
g4098
sg75
(lp4105
S'wsgi'
p4106
asbag68
(g89
g70
NtRp4107
(dp4108
g73
(dp4109
g100
g101
ssg82
g4098
sg75
(lp4110
S':'
asbag68
(g89
g70
NtRp4111
(dp4112
g73
(dp4113
sg82
g4098
sg75
(lp4114
g68
(g69
g70
NtRp4115
(dp4116
g73
(dp4117
g81
I5
ssg82
g4111
sg75
(lp4118
g68
(g77
g70
NtRp4119
(dp4120
g73
(dp4121
g81
I4
ssg82
Nsg75
(lp4122
g68
(g84
g70
NtRp4123
(dp4124
g73
(dp4125
sg82
g4119
sg75
(lp4126
g68
(g89
g70
NtRp4127
(dp4128
g73
(dp4129
g93
g94
ssg82
g4123
sg75
(lp4130
S'environ'
p4131
asbag68
(g89
g70
NtRp4132
(dp4133
g73
(dp4134
g100
g101
ssg82
g4123
sg75
(lp4135
S':'
asbag68
(g89
g70
NtRp4136
(dp4137
g73
(dp4138
sg82
g4123
sg75
(lp4139
g68
(g69
g70
NtRp4140
(dp4141
g73
(dp4142
g81
I4
ssg82
g4136
sg75
(lp4143
g68
(g77
g70
NtRp4144
(dp4145
g73
(dp4146
g81
I3
ssg82
Nsg75
(lp4147
g68
(g84
g70
NtRp4148
(dp4149
g73
(dp4150
sg82
g4144
sg75
(lp4151
g68
(g89
g70
NtRp4152
(dp4153
g73
(dp4154
g93
g94
ssg82
g4148
sg75
(lp4155
S'HTTP_ACCEPT'
p4156
asbag68
(g89
g70
NtRp4157
(dp4158
g73
(dp4159
g100
g101
ssg82
g4148
sg75
(lp4160
S':'
asbag68
(g89
g70
NtRp4161
(dp4162
g73
(dp4163
sg82
g4148
sg75
(lp4164
g68
(g69
g70
NtRp4165
(dp4166
g73
(dp4167
g81
I3
ssg82
g4161
sg75
(lp4168
g2679
asbasbasbag68
(g84
g70
NtRp4169
(dp4170
g73
(dp4171
sg82
g4144
sg75
(lp4172
g68
(g89
g70
NtRp4173
(dp4174
g73
(dp4175
g93
g94
ssg82
g4169
sg75
(lp4176
S'HTTP_ACCEPT_CHARSET'
p4177
asbag68
(g89
g70
NtRp4178
(dp4179
g73
(dp4180
g100
g101
ssg82
g4169
sg75
(lp4181
S':'
asbag68
(g89
g70
NtRp4182
(dp4183
g73
(dp4184
sg82
g4169
sg75
(lp4185
g68
(g69
g70
NtRp4186
(dp4187
g73
(dp4188
g81
I3
ssg82
g4182
sg75
(lp4189
g2701
asbasbasbag68
(g84
g70
NtRp4190
(dp4191
g73
(dp4192
sg82
g4144
sg75
(lp4193
g68
(g89
g70
NtRp4194
(dp4195
g73
(dp4196
g93
g94
ssg82
g4190
sg75
(lp4197
S'HTTP_ACCEPT_ENCODING'
p4198
asbag68
(g89
g70
NtRp4199
(dp4200
g73
(dp4201
g100
g101
ssg82
g4190
sg75
(lp4202
S':'
asbag68
(g89
g70
NtRp4203
(dp4204
g73
(dp4205
sg82
g4190
sg75
(lp4206
g68
(g69
g70
NtRp4207
(dp4208
g73
(dp4209
g81
I3
ssg82
g4203
sg75
(lp4210
g2723
asbasbasbag68
(g84
g70
NtRp4211
(dp4212
g73
(dp4213
sg82
g4144
sg75
(lp4214
g68
(g89
g70
NtRp4215
(dp4216
g73
(dp4217
g93
g94
ssg82
g4211
sg75
(lp4218
S'HTTP_ACCEPT_LANGUAGE'
p4219
asbag68
(g89
g70
NtRp4220
(dp4221
g73
(dp4222
g100
g101
ssg82
g4211
sg75
(lp4223
S':'
asbag68
(g89
g70
NtRp4224
(dp4225
g73
(dp4226
sg82
g4211
sg75
(lp4227
g68
(g69
g70
NtRp4228
(dp4229
g73
(dp4230
g81
I3
ssg82
g4224
sg75
(lp4231
g2745
asbasbasbag68
(g84
g70
NtRp4232
(dp4233
g73
(dp4234
sg82
g4144
sg75
(lp4235
g68
(g89
g70
NtRp4236
(dp4237
g73
(dp4238
g93
g94
ssg82
g4232
sg75
(lp4239
S'HTTP_CACHE_CONTROL'
p4240
asbag68
(g89
g70
NtRp4241
(dp4242
g73
(dp4243
g100
g101
ssg82
g4232
sg75
(lp4244
S':'
asbag68
(g89
g70
NtRp4245
(dp4246
g73
(dp4247
sg82
g4232
sg75
(lp4248
g68
(g69
g70
NtRp4249
(dp4250
g73
(dp4251
g81
I3
ssg82
g4245
sg75
(lp4252
g2767
asbasbasbag68
(g84
g70
NtRp4253
(dp4254
g73
(dp4255
sg82
g4144
sg75
(lp4256
g68
(g89
g70
NtRp4257
(dp4258
g73
(dp4259
g93
g94
ssg82
g4253
sg75
(lp4260
S'HTTP_CONNECTION'
p4261
asbag68
(g89
g70
NtRp4262
(dp4263
g73
(dp4264
g100
g101
ssg82
g4253
sg75
(lp4265
S':'
asbag68
(g89
g70
NtRp4266
(dp4267
g73
(dp4268
sg82
g4253
sg75
(lp4269
g68
(g69
g70
NtRp4270
(dp4271
g73
(dp4272
g81
I3
ssg82
g4266
sg75
(lp4273
g2789
asbasbasbag68
(g84
g70
NtRp4274
(dp4275
g73
(dp4276
sg82
g4144
sg75
(lp4277
g68
(g89
g70
NtRp4278
(dp4279
g73
(dp4280
g93
g94
ssg82
g4274
sg75
(lp4281
S'HTTP_COOKIE'
p4282
asbag68
(g89
g70
NtRp4283
(dp4284
g73
(dp4285
g100
g101
ssg82
g4274
sg75
(lp4286
S':'
asbag68
(g89
g70
NtRp4287
(dp4288
g73
(dp4289
sg82
g4274
sg75
(lp4290
g68
(g69
g70
NtRp4291
(dp4292
g73
(dp4293
g81
I3
ssg82
g4287
sg75
(lp4294
g2811
asbasbasbag68
(g84
g70
NtRp4295
(dp4296
g73
(dp4297
sg82
g4144
sg75
(lp4298
g68
(g89
g70
NtRp4299
(dp4300
g73
(dp4301
g93
g94
ssg82
g4295
sg75
(lp4302
S'HTTP_HOST'
p4303
asbag68
(g89
g70
NtRp4304
(dp4305
g73
(dp4306
g100
g101
ssg82
g4295
sg75
(lp4307
S':'
asbag68
(g89
g70
NtRp4308
(dp4309
g73
(dp4310
sg82
g4295
sg75
(lp4311
g68
(g69
g70
NtRp4312
(dp4313
g73
(dp4314
g81
I3
ssg82
g4308
sg75
(lp4315
g2833
asbasbasbag68
(g84
g70
NtRp4316
(dp4317
g73
(dp4318
sg82
g4144
sg75
(lp4319
g68
(g89
g70
NtRp4320
(dp4321
g73
(dp4322
g93
g94
ssg82
g4316
sg75
(lp4323
S'HTTP_USER_AGENT'
p4324
asbag68
(g89
g70
NtRp4325
(dp4326
g73
(dp4327
g100
g101
ssg82
g4316
sg75
(lp4328
S':'
asbag68
(g89
g70
NtRp4329
(dp4330
g73
(dp4331
sg82
g4316
sg75
(lp4332
g68
(g69
g70
NtRp4333
(dp4334
g73
(dp4335
g81
I3
ssg82
g4329
sg75
(lp4336
g2855
asbasbasbag68
(g84
g70
NtRp4337
(dp4338
g73
(dp4339
sg82
g4144
sg75
(lp4340
g68
(g89
g70
NtRp4341
(dp4342
g73
(dp4343
g93
g94
ssg82
g4337
sg75
(lp4344
S'PATH_INFO'
p4345
asbag68
(g89
g70
NtRp4346
(dp4347
g73
(dp4348
g100
g101
ssg82
g4337
sg75
(lp4349
S':'
asbag68
(g89
g70
NtRp4350
(dp4351
g73
(dp4352
sg82
g4337
sg75
(lp4353
g68
(g69
g70
NtRp4354
(dp4355
g73
(dp4356
g81
I3
ssg82
g4350
sg75
(lp4357
S'/'
asbasbasbag68
(g84
g70
NtRp4358
(dp4359
g73
(dp4360
sg82
g4144
sg75
(lp4361
g68
(g89
g70
NtRp4362
(dp4363
g73
(dp4364
g93
g94
ssg82
g4358
sg75
(lp4365
S'QUERY_STRING'
p4366
asbag68
(g89
g70
NtRp4367
(dp4368
g73
(dp4369
g100
g101
ssg82
g4358
sg75
(lp4370
S':'
asbag68
(g89
g70
NtRp4371
(dp4372
g73
(dp4373
sg82
g4358
sg75
(lp4374
g68
(g69
g70
NtRp4375
(dp4376
g73
(dp4377
g81
I3
ssg82
g4371
sg75
(lp4378
S''
asbasbasbag68
(g84
g70
NtRp4379
(dp4380
g73
(dp4381
sg82
g4144
sg75
(lp4382
g68
(g89
g70
NtRp4383
(dp4384
g73
(dp4385
g93
g94
ssg82
g4379
sg75
(lp4386
S'REMOTE_ADDR'
p4387
asbag68
(g89
g70
NtRp4388
(dp4389
g73
(dp4390
g100
g101
ssg82
g4379
sg75
(lp4391
S':'
asbag68
(g89
g70
NtRp4392
(dp4393
g73
(dp4394
sg82
g4379
sg75
(lp4395
g68
(g69
g70
NtRp4396
(dp4397
g73
(dp4398
g81
I3
ssg82
g4392
sg75
(lp4399
g201
asbasbasbag68
(g84
g70
NtRp4400
(dp4401
g73
(dp4402
sg82
g4144
sg75
(lp4403
g68
(g89
g70
NtRp4404
(dp4405
g73
(dp4406
g93
g94
ssg82
g4400
sg75
(lp4407
S'REMOTE_PORT'
p4408
asbag68
(g89
g70
NtRp4409
(dp4410
g73
(dp4411
g100
g101
ssg82
g4400
sg75
(lp4412
S':'
asbag68
(g89
g70
NtRp4413
(dp4414
g73
(dp4415
sg82
g4400
sg75
(lp4416
g68
(g69
g70
NtRp4417
(dp4418
g73
(dp4419
g81
I3
ssg82
g4413
sg75
(lp4420
g2982
asbasbasbag68
(g84
g70
NtRp4421
(dp4422
g73
(dp4423
sg82
g4144
sg75
(lp4424
g68
(g89
g70
NtRp4425
(dp4426
g73
(dp4427
g93
g94
ssg82
g4421
sg75
(lp4428
S'REQUEST_METHOD'
p4429
asbag68
(g89
g70
NtRp4430
(dp4431
g73
(dp4432
g100
g101
ssg82
g4421
sg75
(lp4433
S':'
asbag68
(g89
g70
NtRp4434
(dp4435
g73
(dp4436
sg82
g4421
sg75
(lp4437
g68
(g69
g70
NtRp4438
(dp4439
g73
(dp4440
g81
I3
ssg82
g4434
sg75
(lp4441
g3004
asbasbasbag68
(g84
g70
NtRp4442
(dp4443
g73
(dp4444
sg82
g4144
sg75
(lp4445
g68
(g89
g70
NtRp4446
(dp4447
g73
(dp4448
g93
g94
ssg82
g4442
sg75
(lp4449
S'REQUEST_URI'
p4450
asbag68
(g89
g70
NtRp4451
(dp4452
g73
(dp4453
g100
g101
ssg82
g4442
sg75
(lp4454
S':'
asbag68
(g89
g70
NtRp4455
(dp4456
g73
(dp4457
sg82
g4442
sg75
(lp4458
g68
(g69
g70
NtRp4459
(dp4460
g73
(dp4461
g81
I3
ssg82
g4455
sg75
(lp4462
g3026
asbasbasbag68
(g84
g70
NtRp4463
(dp4464
g73
(dp4465
sg82
g4144
sg75
(lp4466
g68
(g89
g70
NtRp4467
(dp4468
g73
(dp4469
g93
g94
ssg82
g4463
sg75
(lp4470
S'SCRIPT_NAME'
p4471
asbag68
(g89
g70
NtRp4472
(dp4473
g73
(dp4474
g100
g101
ssg82
g4463
sg75
(lp4475
S':'
asbag68
(g89
g70
NtRp4476
(dp4477
g73
(dp4478
sg82
g4463
sg75
(lp4479
g68
(g69
g70
NtRp4480
(dp4481
g73
(dp4482
g81
I3
ssg82
g4476
sg75
(lp4483
S''
asbasbasbag68
(g84
g70
NtRp4484
(dp4485
g73
(dp4486
sg82
g4144
sg75
(lp4487
g68
(g89
g70
NtRp4488
(dp4489
g73
(dp4490
g93
g94
ssg82
g4484
sg75
(lp4491
S'SERVER_NAME'
p4492
asbag68
(g89
g70
NtRp4493
(dp4494
g73
(dp4495
g100
g101
ssg82
g4484
sg75
(lp4496
S':'
asbag68
(g89
g70
NtRp4497
(dp4498
g73
(dp4499
sg82
g4484
sg75
(lp4500
g68
(g69
g70
NtRp4501
(dp4502
g73
(dp4503
g81
I3
ssg82
g4497
sg75
(lp4504
g3069
asbasbasbag68
(g84
g70
NtRp4505
(dp4506
g73
(dp4507
sg82
g4144
sg75
(lp4508
g68
(g89
g70
NtRp4509
(dp4510
g73
(dp4511
g93
g94
ssg82
g4505
sg75
(lp4512
S'SERVER_PORT'
p4513
asbag68
(g89
g70
NtRp4514
(dp4515
g73
(dp4516
g100
g101
ssg82
g4505
sg75
(lp4517
S':'
asbag68
(g89
g70
NtRp4518
(dp4519
g73
(dp4520
sg82
g4505
sg75
(lp4521
g68
(g69
g70
NtRp4522
(dp4523
g73
(dp4524
g81
I3
ssg82
g4518
sg75
(lp4525
g3091
asbasbasbag68
(g84
g70
NtRp4526
(dp4527
g73
(dp4528
sg82
g4144
sg75
(lp4529
g68
(g89
g70
NtRp4530
(dp4531
g73
(dp4532
g93
g94
ssg82
g4526
sg75
(lp4533
S'SERVER_PROTOCOL'
p4534
asbag68
(g89
g70
NtRp4535
(dp4536
g73
(dp4537
g100
g101
ssg82
g4526
sg75
(lp4538
S':'
asbag68
(g89
g70
NtRp4539
(dp4540
g73
(dp4541
sg82
g4526
sg75
(lp4542
g68
(g69
g70
NtRp4543
(dp4544
g73
(dp4545
g81
I3
ssg82
g4539
sg75
(lp4546
g3113
asbasbasbag68
(g84
g70
NtRp4547
(dp4548
g73
(dp4549
sg82
g4144
sg75
(lp4550
g68
(g89
g70
NtRp4551
(dp4552
g73
(dp4553
g93
g94
ssg82
g4547
sg75
(lp4554
S'SERVER_SOFTWARE'
p4555
asbag68
(g89
g70
NtRp4556
(dp4557
g73
(dp4558
g100
g101
ssg82
g4547
sg75
(lp4559
S':'
asbag68
(g89
g70
NtRp4560
(dp4561
g73
(dp4562
sg82
g4547
sg75
(lp4563
g68
(g69
g70
NtRp4564
(dp4565
g73
(dp4566
g81
I3
ssg82
g4560
sg75
(lp4567
g3135
asbasbasbag68
(g84
g70
NtRp4568
(dp4569
g73
(dp4570
sg82
g4144
sg75
(lp4571
g68
(g89
g70
NtRp4572
(dp4573
g73
(dp4574
g93
g94
ssg82
g4568
sg75
(lp4575
S'WEB2PY_ORIGINAL_URI'
p4576
asbag68
(g89
g70
NtRp4577
(dp4578
g73
(dp4579
g100
g101
ssg82
g4568
sg75
(lp4580
S':'
asbag68
(g89
g70
NtRp4581
(dp4582
g73
(dp4583
sg82
g4568
sg75
(lp4584
g68
(g69
g70
NtRp4585
(dp4586
g73
(dp4587
g81
I3
ssg82
g4581
sg75
(lp4588
S'/'
asbasbasbag68
(g84
g70
NtRp4589
(dp4590
g73
(dp4591
sg82
g4144
sg75
(lp4592
g68
(g89
g70
NtRp4593
(dp4594
g73
(dp4595
g93
g94
ssg82
g4589
sg75
(lp4596
S'wsgi.errors'
p4597
asbag68
(g89
g70
NtRp4598
(dp4599
g73
(dp4600
g100
g101
ssg82
g4589
sg75
(lp4601
S':'
asbag68
(g89
g70
NtRp4602
(dp4603
g73
(dp4604
sg82
g4589
sg75
(lp4605
g68
(g69
g70
NtRp4606
(dp4607
g73
(dp4608
g81
I3
ssg82
g4602
sg75
(lp4609
S"<open file '<stderr>', mode 'w' at 0x7f935df03270>"
p4610
asbasbasbag68
(g84
g70
NtRp4611
(dp4612
g73
(dp4613
sg82
g4144
sg75
(lp4614
g68
(g89
g70
NtRp4615
(dp4616
g73
(dp4617
g93
g94
ssg82
g4611
sg75
(lp4618
S'wsgi.file_wrapper'
p4619
asbag68
(g89
g70
NtRp4620
(dp4621
g73
(dp4622
g100
g101
ssg82
g4611
sg75
(lp4623
S':'
asbag68
(g89
g70
NtRp4624
(dp4625
g73
(dp4626
sg82
g4611
sg75
(lp4627
g68
(g69
g70
NtRp4628
(dp4629
g73
(dp4630
g81
I3
ssg82
g4624
sg75
(lp4631
S'<class wsgiref.util.FileWrapper at 0x2570e88>'
p4632
asbasbasbag68
(g84
g70
NtRp4633
(dp4634
g73
(dp4635
sg82
g4144
sg75
(lp4636
g68
(g89
g70
NtRp4637
(dp4638
g73
(dp4639
g93
g94
ssg82
g4633
sg75
(lp4640
S'wsgi.input'
p4641
asbag68
(g89
g70
NtRp4642
(dp4643
g73
(dp4644
g100
g101
ssg82
g4633
sg75
(lp4645
S':'
asbag68
(g89
g70
NtRp4646
(dp4647
g73
(dp4648
sg82
g4633
sg75
(lp4649
g68
(g69
g70
NtRp4650
(dp4651
g73
(dp4652
g81
I3
ssg82
g4646
sg75
(lp4653
S'<cStringIO.StringO object at 0x7f932c00b998>'
p4654
asbasbasbag68
(g84
g70
NtRp4655
(dp4656
g73
(dp4657
sg82
g4144
sg75
(lp4658
g68
(g89
g70
NtRp4659
(dp4660
g73
(dp4661
g93
g94
ssg82
g4655
sg75
(lp4662
S'wsgi.multiprocess'
p4663
asbag68
(g89
g70
NtRp4664
(dp4665
g73
(dp4666
g100
g101
ssg82
g4655
sg75
(lp4667
S':'
asbag68
(g89
g70
NtRp4668
(dp4669
g73
(dp4670
sg82
g4655
sg75
(lp4671
g68
(g69
g70
NtRp4672
(dp4673
g73
(dp4674
g81
I3
ssg82
g4668
sg75
(lp4675
g111
asbasbasbag68
(g84
g70
NtRp4676
(dp4677
g73
(dp4678
sg82
g4144
sg75
(lp4679
g68
(g89
g70
NtRp4680
(dp4681
g73
(dp4682
g93
g94
ssg82
g4676
sg75
(lp4683
S'wsgi.multithread'
p4684
asbag68
(g89
g70
NtRp4685
(dp4686
g73
(dp4687
g100
g101
ssg82
g4676
sg75
(lp4688
S':'
asbag68
(g89
g70
NtRp4689
(dp4690
g73
(dp4691
sg82
g4676
sg75
(lp4692
g68
(g69
g70
NtRp4693
(dp4694
g73
(dp4695
g81
I3
ssg82
g4689
sg75
(lp4696
g3396
asbasbasbag68
(g84
g70
NtRp4697
(dp4698
g73
(dp4699
sg82
g4144
sg75
(lp4700
g68
(g89
g70
NtRp4701
(dp4702
g73
(dp4703
g93
g94
ssg82
g4697
sg75
(lp4704
S'wsgi.run_once'
p4705
asbag68
(g89
g70
NtRp4706
(dp4707
g73
(dp4708
g100
g101
ssg82
g4697
sg75
(lp4709
S':'
asbag68
(g89
g70
NtRp4710
(dp4711
g73
(dp4712
sg82
g4697
sg75
(lp4713
g68
(g69
g70
NtRp4714
(dp4715
g73
(dp4716
g81
I3
ssg82
g4710
sg75
(lp4717
g111
asbasbasbag68
(g84
g70
NtRp4718
(dp4719
g73
(dp4720
sg82
g4144
sg75
(lp4721
g68
(g89
g70
NtRp4722
(dp4723
g73
(dp4724
g93
g94
ssg82
g4718
sg75
(lp4725
S'wsgi.url_scheme'
p4726
asbag68
(g89
g70
NtRp4727
(dp4728
g73
(dp4729
g100
g101
ssg82
g4718
sg75
(lp4730
S':'
asbag68
(g89
g70
NtRp4731
(dp4732
g73
(dp4733
sg82
g4718
sg75
(lp4734
g68
(g69
g70
NtRp4735
(dp4736
g73
(dp4737
g81
I3
ssg82
g4731
sg75
(lp4738
g3439
asbasbasbag68
(g84
g70
NtRp4739
(dp4740
g73
(dp4741
sg82
g4144
sg75
(lp4742
g68
(g89
g70
NtRp4743
(dp4744
g73
(dp4745
g93
g94
ssg82
g4739
sg75
(lp4746
S'wsgi.version'
p4747
asbag68
(g89
g70
NtRp4748
(dp4749
g73
(dp4750
g100
g101
ssg82
g4739
sg75
(lp4751
S':'
asbag68
(g89
g70
NtRp4752
(dp4753
g73
(dp4754
sg82
g4739
sg75
(lp4755
g68
(g69
g70
NtRp4756
(dp4757
g73
(dp4758
g81
I3
ssg82
g4752
sg75
(lp4759
S'1'
asbasbasbasbasbasbasbasbasbasbasbasbasbsS'frames'
p4760
(lp4761
(dp4762
S'file'
p4763
S'/home/bcr/projects/cursojulho12/web2py/gluon/restricted.py'
p4764
sS'dump'
p4765
(dp4766
S'code'
p4767
S'\'response.write(\\\'<!DOCTYPE html>\\\\n<html lang="en"...ntainer -->\\\\n  </body>\\\\n</html>\\\\n\\\', escape=False)\''
p4768
sS'layer'
p4769
S"'/home/bcr/projects/cursojulho12/web2py/applications/ecommerce/views/home/index.html'"
p4770
sS'global compile2'
p4771
S'<function compile2>'
p4772
sS'ccode'
p4773
S'undefined'
p4774
ssS'lnum'
p4775
I204
sS'lines'
p4776
(dp4777
I199
S"    environment['__name__'] = '__restricted__'"
p4778
sI200
S'    try:'
p4779
sI201
S'        if type(code) == types.CodeType:'
p4780
sI202
S'            ccode = code'
p4781
sI203
S'        else:'
p4782
sI204
S'            ccode = compile2(code,layer)'
p4783
sI205
S'        exec ccode in environment'
p4784
sI206
S'    except HTTP:'
p4785
sI207
S'        raise'
p4786
sI208
S'    except RestrictedError:'
p4787
ssS'call'
p4788
S'(code=\'response.write(\\\'<!DOCTYPE html>\\\\n<html lang="en"...ntainer -->\\\\n  </body>\\\\n</html>\\\\n\\\', escape=False)\', environment={\'A\': <class \'gluon.html.A\'>, \'Auth\': <class \'gluon.tools.Auth\'>, \'B\': <class \'gluon.html.B\'>, \'BEAUTIFY\': <class \'gluon.html.BEAUTIFY\'>, \'BODY\': <class \'gluon.html.BODY\'>, \'BR\': <class \'gluon.html.BR\'>, \'BUTTON\': <class \'gluon.html.BUTTON\'>, \'CAT\': <class \'gluon.html.CAT\'>, \'CENTER\': <class \'gluon.html.CENTER\'>, \'CLEANUP\': <class \'gluon.validators.CLEANUP\'>, ...}, layer=\'/home/bcr/projects/cursojulho12/web2py/applications/ecommerce/views/home/index.html\')'
p4789
sS'func'
p4790
S'restricted'
p4791
sa(dp4792
g4763
S'/home/bcr/projects/cursojulho12/web2py/gluon/restricted.py'
p4793
sg4765
(dp4794
S'builtincompile'
p4795
S'<built-in function compile>'
p4796
sS'code'
p4797
S'\'response.write(\\\'<!DOCTYPE html>\\\\n<html lang="en"...ntainer -->\\\\n  </body>\\\\n</html>\\\\n\\\', escape=False)\''
p4798
sS'code.rstrip'
p4799
S'<built-in method rstrip of str object>'
p4800
sS').replace'
p4801
g4774
sS'layer'
p4802
S"'/home/bcr/projects/cursojulho12/web2py/applications/ecommerce/views/home/index.html'"
p4803
ssg4775
I189
sg4776
(dp4804
I192
S'    """'
p4805
sI193
S'    runs code in environment and returns the output. if an exception occurs'
p4806
sI184
S''
sI185
S'def compile2(code,layer):'
p4807
sI186
S'    """'
p4808
sI187
S"    The +'\\n' is necessary else compile fails when code ends in a comment."
p4809
sI188
S'    """'
p4810
sI189
S"    return compile(code.rstrip().replace('\\r\\n','\\n')+'\\n', layer, 'exec')"
p4811
sI190
S''
sI191
S"def restricted(code, environment=None, layer='Unknown'):"
p4812
ssg4788
S'(code=\'response.write(\\\'<!DOCTYPE html>\\\\n<html lang="en"...ntainer -->\\\\n  </body>\\\\n</html>\\\\n\\\', escape=False)\', layer=\'/home/bcr/projects/cursojulho12/web2py/applications/ecommerce/views/home/index.html\')'
p4813
sg4790
S'compile2'
p4814
sasS'pyver'
p4815
S'Python 2.7.3: /usr/bin/python'
p4816
sS'session'
p4817
g68
(g69
g70
NtRp4818
(dp4819
g73
(dp4820
sg75
(lp4821
g68
(g77
g70
NtRp4822
(dp4823
g73
(dp4824
g81
I5
ssg82
Nsg75
(lp4825
sbasbsS'etype'
p4826
S"<type 'exceptions.SyntaxError'>"
p4827
sS'date'
p4828
S'Sat Aug 11 02:48:56 2012'
p4829
sS'response'
p4830
g68
(g69
g70
NtRp4831
(dp4832
g73
(dp4833
sg75
(lp4834
g68
(g77
g70
NtRp4835
(dp4836
g73
(dp4837
g81
I5
ssg82
Nsg75
(lp4838
g68
(g84
g70
NtRp4839
(dp4840
g73
(dp4841
sg82
g4835
sg75
(lp4842
g68
(g89
g70
NtRp4843
(dp4844
g73
(dp4845
g93
g94
ssg82
g4839
sg75
(lp4846
g166
asbag68
(g89
g70
NtRp4847
(dp4848
g73
(dp4849
g100
g101
ssg82
g4839
sg75
(lp4850
S':'
asbag68
(g89
g70
NtRp4851
(dp4852
g73
(dp4853
sg82
g4839
sg75
(lp4854
g68
(g69
g70
NtRp4855
(dp4856
g73
(dp4857
g81
I5
ssg82
g4851
sg75
(lp4858
S'<cStringIO.StringO object at 0x7f932c019a08>'
p4859
asbasbasbag68
(g84
g70
NtRp4860
(dp4861
g73
(dp4862
sg82
g4835
sg75
(lp4863
g68
(g89
g70
NtRp4864
(dp4865
g73
(dp4866
g93
g94
ssg82
g4860
sg75
(lp4867
g232
asbag68
(g89
g70
NtRp4868
(dp4869
g73
(dp4870
g100
g101
ssg82
g4860
sg75
(lp4871
S':'
asbag68
(g89
g70
NtRp4872
(dp4873
g73
(dp4874
sg82
g4860
sg75
(lp4875
g68
(g69
g70
NtRp4876
(dp4877
g73
(dp4878
g81
I5
ssg82
g4872
sg75
(lp4879
g68
(g77
g70
NtRp4880
(dp4881
g73
(dp4882
g81
I4
ssg82
Nsg75
(lp4883
g68
(g84
g70
NtRp4884
(dp4885
g73
(dp4886
sg82
g4880
sg75
(lp4887
g68
(g89
g70
NtRp4888
(dp4889
g73
(dp4890
g93
g94
ssg82
g4884
sg75
(lp4891
S'session_id_ecommerce'
p4892
asbag68
(g89
g70
NtRp4893
(dp4894
g73
(dp4895
g100
g101
ssg82
g4884
sg75
(lp4896
S':'
asbag68
(g89
g70
NtRp4897
(dp4898
g73
(dp4899
sg82
g4884
sg75
(lp4900
g68
(g69
g70
NtRp4901
(dp4902
g73
(dp4903
g81
I4
ssg82
g4897
sg75
(lp4904
g68
(g77
g70
NtRp4905
(dp4906
g73
(dp4907
g81
I3
ssg82
Nsg75
(lp4908
g68
(g84
g70
NtRp4909
(dp4910
g73
(dp4911
sg82
g4905
sg75
(lp4912
g68
(g89
g70
NtRp4913
(dp4914
g73
(dp4915
g93
g94
ssg82
g4909
sg75
(lp4916
g282
asbag68
(g89
g70
NtRp4917
(dp4918
g73
(dp4919
g100
g101
ssg82
g4909
sg75
(lp4920
S':'
asbag68
(g89
g70
NtRp4921
(dp4922
g73
(dp4923
sg82
g4909
sg75
(lp4924
g68
(g69
g70
NtRp4925
(dp4926
g73
(dp4927
g81
I3
ssg82
g4921
sg75
(lp4928
S''
asbasbasbag68
(g84
g70
NtRp4929
(dp4930
g73
(dp4931
sg82
g4905
sg75
(lp4932
g68
(g89
g70
NtRp4933
(dp4934
g73
(dp4935
g93
g94
ssg82
g4929
sg75
(lp4936
g303
asbag68
(g89
g70
NtRp4937
(dp4938
g73
(dp4939
g100
g101
ssg82
g4929
sg75
(lp4940
S':'
asbag68
(g89
g70
NtRp4941
(dp4942
g73
(dp4943
sg82
g4929
sg75
(lp4944
g68
(g69
g70
NtRp4945
(dp4946
g73
(dp4947
g81
I3
ssg82
g4941
sg75
(lp4948
S''
asbasbasbag68
(g84
g70
NtRp4949
(dp4950
g73
(dp4951
sg82
g4905
sg75
(lp4952
g68
(g89
g70
NtRp4953
(dp4954
g73
(dp4955
g93
g94
ssg82
g4949
sg75
(lp4956
g324
asbag68
(g89
g70
NtRp4957
(dp4958
g73
(dp4959
g100
g101
ssg82
g4949
sg75
(lp4960
S':'
asbag68
(g89
g70
NtRp4961
(dp4962
g73
(dp4963
sg82
g4949
sg75
(lp4964
g68
(g69
g70
NtRp4965
(dp4966
g73
(dp4967
g81
I3
ssg82
g4961
sg75
(lp4968
S''
asbasbasbag68
(g84
g70
NtRp4969
(dp4970
g73
(dp4971
sg82
g4905
sg75
(lp4972
g68
(g89
g70
NtRp4973
(dp4974
g73
(dp4975
g93
g94
ssg82
g4969
sg75
(lp4976
g345
asbag68
(g89
g70
NtRp4977
(dp4978
g73
(dp4979
g100
g101
ssg82
g4969
sg75
(lp4980
S':'
asbag68
(g89
g70
NtRp4981
(dp4982
g73
(dp4983
sg82
g4969
sg75
(lp4984
g68
(g69
g70
NtRp4985
(dp4986
g73
(dp4987
g81
I3
ssg82
g4981
sg75
(lp4988
S''
asbasbasbag68
(g84
g70
NtRp4989
(dp4990
g73
(dp4991
sg82
g4905
sg75
(lp4992
g68
(g89
g70
NtRp4993
(dp4994
g73
(dp4995
g93
g94
ssg82
g4989
sg75
(lp4996
g366
asbag68
(g89
g70
NtRp4997
(dp4998
g73
(dp4999
g100
g101
ssg82
g4989
sg75
(lp5000
S':'
asbag68
(g89
g70
NtRp5001
(dp5002
g73
(dp5003
sg82
g4989
sg75
(lp5004
g68
(g69
g70
NtRp5005
(dp5006
g73
(dp5007
g81
I3
ssg82
g5001
sg75
(lp5008
S''
asbasbasbag68
(g84
g70
NtRp5009
(dp5010
g73
(dp5011
sg82
g4905
sg75
(lp5012
g68
(g89
g70
NtRp5013
(dp5014
g73
(dp5015
g93
g94
ssg82
g5009
sg75
(lp5016
g387
asbag68
(g89
g70
NtRp5017
(dp5018
g73
(dp5019
g100
g101
ssg82
g5009
sg75
(lp5020
S':'
asbag68
(g89
g70
NtRp5021
(dp5022
g73
(dp5023
sg82
g5009
sg75
(lp5024
g68
(g69
g70
NtRp5025
(dp5026
g73
(dp5027
g81
I3
ssg82
g5021
sg75
(lp5028
S'/'
asbasbasbag68
(g84
g70
NtRp5029
(dp5030
g73
(dp5031
sg82
g4905
sg75
(lp5032
g68
(g89
g70
NtRp5033
(dp5034
g73
(dp5035
g93
g94
ssg82
g5029
sg75
(lp5036
g408
asbag68
(g89
g70
NtRp5037
(dp5038
g73
(dp5039
g100
g101
ssg82
g5029
sg75
(lp5040
S':'
asbag68
(g89
g70
NtRp5041
(dp5042
g73
(dp5043
sg82
g5029
sg75
(lp5044
g68
(g69
g70
NtRp5045
(dp5046
g73
(dp5047
g81
I3
ssg82
g5041
sg75
(lp5048
S''
asbasbasbag68
(g84
g70
NtRp5049
(dp5050
g73
(dp5051
sg82
g4905
sg75
(lp5052
g68
(g89
g70
NtRp5053
(dp5054
g73
(dp5055
g93
g94
ssg82
g5049
sg75
(lp5056
g429
asbag68
(g89
g70
NtRp5057
(dp5058
g73
(dp5059
g100
g101
ssg82
g5049
sg75
(lp5060
S':'
asbag68
(g89
g70
NtRp5061
(dp5062
g73
(dp5063
sg82
g5049
sg75
(lp5064
g68
(g69
g70
NtRp5065
(dp5066
g73
(dp5067
g81
I3
ssg82
g5061
sg75
(lp5068
S''
asbasbasbasbasbasbasbasbasbasbasbag68
(g84
g70
NtRp5069
(dp5070
g73
(dp5071
sg82
g4835
sg75
(lp5072
g68
(g89
g70
NtRp5073
(dp5074
g73
(dp5075
g93
g94
ssg82
g5069
sg75
(lp5076
S'delimiters'
p5077
asbag68
(g89
g70
NtRp5078
(dp5079
g73
(dp5080
g100
g101
ssg82
g5069
sg75
(lp5081
S':'
asbag68
(g89
g70
NtRp5082
(dp5083
g73
(dp5084
sg82
g5069
sg75
(lp5085
g68
(g69
g70
NtRp5086
(dp5087
g73
(dp5088
g81
I5
ssg82
g5082
sg75
(lp5089
g68
(g77
g70
NtRp5090
(dp5091
g73
(dp5092
g81
I4
ssg82
Nsg75
(lp5093
g68
(g84
g70
NtRp5094
(dp5095
g73
(dp5096
sg82
g5090
sg75
(lp5097
g68
(g89
g70
NtRp5098
(dp5099
g73
(dp5100
sg82
g5094
sg75
(lp5101
g68
(g69
g70
NtRp5102
(dp5103
g73
(dp5104
g81
I4
ssg82
g5098
sg75
(lp5105
S'{{'
p5106
asbasbasbag68
(g84
g70
NtRp5107
(dp5108
g73
(dp5109
sg82
g5090
sg75
(lp5110
g68
(g89
g70
NtRp5111
(dp5112
g73
(dp5113
sg82
g5107
sg75
(lp5114
g68
(g69
g70
NtRp5115
(dp5116
g73
(dp5117
g81
I4
ssg82
g5111
sg75
(lp5118
S'}}'
p5119
asbasbasbasbasbasbasbag68
(g84
g70
NtRp5120
(dp5121
g73
(dp5122
sg82
g4835
sg75
(lp5123
g68
(g89
g70
NtRp5124
(dp5125
g73
(dp5126
g93
g94
ssg82
g5120
sg75
(lp5127
S'description'
p5128
asbag68
(g89
g70
NtRp5129
(dp5130
g73
(dp5131
g100
g101
ssg82
g5120
sg75
(lp5132
S':'
asbag68
(g89
g70
NtRp5133
(dp5134
g73
(dp5135
sg82
g5120
sg75
(lp5136
g68
(g69
g70
NtRp5137
(dp5138
g73
(dp5139
g81
I5
ssg82
g5133
sg75
(lp5140
S'Ecommerce'
p5141
asbasbasbag68
(g84
g70
NtRp5142
(dp5143
g73
(dp5144
sg82
g4835
sg75
(lp5145
g68
(g89
g70
NtRp5146
(dp5147
g73
(dp5148
g93
g94
ssg82
g5142
sg75
(lp5149
S'files'
p5150
asbag68
(g89
g70
NtRp5151
(dp5152
g73
(dp5153
g100
g101
ssg82
g5142
sg75
(lp5154
S':'
asbag68
(g89
g70
NtRp5155
(dp5156
g73
(dp5157
sg82
g5142
sg75
(lp5158
g68
(g69
g70
NtRp5159
(dp5160
g73
(dp5161
g81
I5
ssg82
g5155
sg75
(lp5162
g68
(g77
g70
NtRp5163
(dp5164
g73
(dp5165
g81
I4
ssg82
Nsg75
(lp5166
sbasbasbasbag68
(g84
g70
NtRp5167
(dp5168
g73
(dp5169
sg82
g4835
sg75
(lp5170
g68
(g89
g70
NtRp5171
(dp5172
g73
(dp5173
g93
g94
ssg82
g5167
sg75
(lp5174
S'flash'
p5175
asbag68
(g89
g70
NtRp5176
(dp5177
g73
(dp5178
g100
g101
ssg82
g5167
sg75
(lp5179
S':'
asbag68
(g89
g70
NtRp5180
(dp5181
g73
(dp5182
sg82
g5167
sg75
(lp5183
g68
(g69
g70
NtRp5184
(dp5185
g73
(dp5186
g81
I5
ssg82
g5180
sg75
(lp5187
S''
asbasbasbag68
(g84
g70
NtRp5188
(dp5189
g73
(dp5190
sg82
g4835
sg75
(lp5191
g68
(g89
g70
NtRp5192
(dp5193
g73
(dp5194
g93
g94
ssg82
g5188
sg75
(lp5195
S'generic_patterns'
p5196
asbag68
(g89
g70
NtRp5197
(dp5198
g73
(dp5199
g100
g101
ssg82
g5188
sg75
(lp5200
S':'
asbag68
(g89
g70
NtRp5201
(dp5202
g73
(dp5203
sg82
g5188
sg75
(lp5204
g68
(g69
g70
NtRp5205
(dp5206
g73
(dp5207
g81
I5
ssg82
g5201
sg75
(lp5208
g68
(g77
g70
NtRp5209
(dp5210
g73
(dp5211
g81
I4
ssg82
Nsg75
(lp5212
sbasbasbasbag68
(g84
g70
NtRp5213
(dp5214
g73
(dp5215
sg82
g4835
sg75
(lp5216
g68
(g89
g70
NtRp5217
(dp5218
g73
(dp5219
g93
g94
ssg82
g5213
sg75
(lp5220
S'headers'
p5221
asbag68
(g89
g70
NtRp5222
(dp5223
g73
(dp5224
g100
g101
ssg82
g5213
sg75
(lp5225
S':'
asbag68
(g89
g70
NtRp5226
(dp5227
g73
(dp5228
sg82
g5213
sg75
(lp5229
g68
(g69
g70
NtRp5230
(dp5231
g73
(dp5232
g81
I5
ssg82
g5226
sg75
(lp5233
g68
(g77
g70
NtRp5234
(dp5235
g73
(dp5236
g81
I4
ssg82
Nsg75
(lp5237
g68
(g84
g70
NtRp5238
(dp5239
g73
(dp5240
sg82
g5234
sg75
(lp5241
g68
(g89
g70
NtRp5242
(dp5243
g73
(dp5244
g93
g94
ssg82
g5238
sg75
(lp5245
S'Cache-Control'
p5246
asbag68
(g89
g70
NtRp5247
(dp5248
g73
(dp5249
g100
g101
ssg82
g5238
sg75
(lp5250
S':'
asbag68
(g89
g70
NtRp5251
(dp5252
g73
(dp5253
sg82
g5238
sg75
(lp5254
g68
(g69
g70
NtRp5255
(dp5256
g73
(dp5257
g81
I4
ssg82
g5251
sg75
(lp5258
S'no-store, no-cache, must-revalidate, post-check=0, pre-check=0'
p5259
asbasbasbag68
(g84
g70
NtRp5260
(dp5261
g73
(dp5262
sg82
g5234
sg75
(lp5263
g68
(g89
g70
NtRp5264
(dp5265
g73
(dp5266
g93
g94
ssg82
g5260
sg75
(lp5267
S'Content-Type'
p5268
asbag68
(g89
g70
NtRp5269
(dp5270
g73
(dp5271
g100
g101
ssg82
g5260
sg75
(lp5272
S':'
asbag68
(g89
g70
NtRp5273
(dp5274
g73
(dp5275
sg82
g5260
sg75
(lp5276
g68
(g69
g70
NtRp5277
(dp5278
g73
(dp5279
g81
I4
ssg82
g5273
sg75
(lp5280
S'text/html; charset=utf-8'
p5281
asbasbasbag68
(g84
g70
NtRp5282
(dp5283
g73
(dp5284
sg82
g5234
sg75
(lp5285
g68
(g89
g70
NtRp5286
(dp5287
g73
(dp5288
g93
g94
ssg82
g5282
sg75
(lp5289
S'Expires'
p5290
asbag68
(g89
g70
NtRp5291
(dp5292
g73
(dp5293
g100
g101
ssg82
g5282
sg75
(lp5294
S':'
asbag68
(g89
g70
NtRp5295
(dp5296
g73
(dp5297
sg82
g5282
sg75
(lp5298
g68
(g69
g70
NtRp5299
(dp5300
g73
(dp5301
g81
I4
ssg82
g5295
sg75
(lp5302
S'Sat, 11 Aug 2012 05:48:56 GMT'
p5303
asbasbasbag68
(g84
g70
NtRp5304
(dp5305
g73
(dp5306
sg82
g5234
sg75
(lp5307
g68
(g89
g70
NtRp5308
(dp5309
g73
(dp5310
g93
g94
ssg82
g5304
sg75
(lp5311
S'Pragma'
p5312
asbag68
(g89
g70
NtRp5313
(dp5314
g73
(dp5315
g100
g101
ssg82
g5304
sg75
(lp5316
S':'
asbag68
(g89
g70
NtRp5317
(dp5318
g73
(dp5319
sg82
g5304
sg75
(lp5320
g68
(g69
g70
NtRp5321
(dp5322
g73
(dp5323
g81
I4
ssg82
g5317
sg75
(lp5324
S'no-cache'
p5325
asbasbasbag68
(g84
g70
NtRp5326
(dp5327
g73
(dp5328
sg82
g5234
sg75
(lp5329
g68
(g89
g70
NtRp5330
(dp5331
g73
(dp5332
g93
g94
ssg82
g5326
sg75
(lp5333
S'X-Powered-By'
p5334
asbag68
(g89
g70
NtRp5335
(dp5336
g73
(dp5337
g100
g101
ssg82
g5326
sg75
(lp5338
S':'
asbag68
(g89
g70
NtRp5339
(dp5340
g73
(dp5341
sg82
g5326
sg75
(lp5342
g68
(g69
g70
NtRp5343
(dp5344
g73
(dp5345
g81
I4
ssg82
g5339
sg75
(lp5346
S'web2py'
p5347
asbasbasbasbasbasbasbag68
(g84
g70
NtRp5348
(dp5349
g73
(dp5350
sg82
g4835
sg75
(lp5351
g68
(g89
g70
NtRp5352
(dp5353
g73
(dp5354
g93
g94
ssg82
g5348
sg75
(lp5355
S'menu'
p5356
asbag68
(g89
g70
NtRp5357
(dp5358
g73
(dp5359
g100
g101
ssg82
g5348
sg75
(lp5360
S':'
asbag68
(g89
g70
NtRp5361
(dp5362
g73
(dp5363
sg82
g5348
sg75
(lp5364
g68
(g69
g70
NtRp5365
(dp5366
g73
(dp5367
g81
I5
ssg82
g5361
sg75
(lp5368
g68
(g77
g70
NtRp5369
(dp5370
g73
(dp5371
g81
I4
ssg82
Nsg75
(lp5372
sbasbasbasbag68
(g84
g70
NtRp5373
(dp5374
g73
(dp5375
sg82
g4835
sg75
(lp5376
g68
(g89
g70
NtRp5377
(dp5378
g73
(dp5379
g93
g94
ssg82
g5373
sg75
(lp5380
S'meta'
p5381
asbag68
(g89
g70
NtRp5382
(dp5383
g73
(dp5384
g100
g101
ssg82
g5373
sg75
(lp5385
S':'
asbag68
(g89
g70
NtRp5386
(dp5387
g73
(dp5388
sg82
g5373
sg75
(lp5389
g68
(g69
g70
NtRp5390
(dp5391
g73
(dp5392
g81
I5
ssg82
g5386
sg75
(lp5393
g68
(g77
g70
NtRp5394
(dp5395
g73
(dp5396
g81
I4
ssg82
Nsg75
(lp5397
sbasbasbasbag68
(g84
g70
NtRp5398
(dp5399
g73
(dp5400
sg82
g4835
sg75
(lp5401
g68
(g89
g70
NtRp5402
(dp5403
g73
(dp5404
g93
g94
ssg82
g5398
sg75
(lp5405
S'postprocessing'
p5406
asbag68
(g89
g70
NtRp5407
(dp5408
g73
(dp5409
g100
g101
ssg82
g5398
sg75
(lp5410
S':'
asbag68
(g89
g70
NtRp5411
(dp5412
g73
(dp5413
sg82
g5398
sg75
(lp5414
g68
(g69
g70
NtRp5415
(dp5416
g73
(dp5417
g81
I5
ssg82
g5411
sg75
(lp5418
g68
(g77
g70
NtRp5419
(dp5420
g73
(dp5421
g81
I4
ssg82
Nsg75
(lp5422
sbasbasbasbag68
(g84
g70
NtRp5423
(dp5424
g73
(dp5425
sg82
g4835
sg75
(lp5426
g68
(g89
g70
NtRp5427
(dp5428
g73
(dp5429
g93
g94
ssg82
g5423
sg75
(lp5430
S'session_filename'
p5431
asbag68
(g89
g70
NtRp5432
(dp5433
g73
(dp5434
g100
g101
ssg82
g5423
sg75
(lp5435
S':'
asbag68
(g89
g70
NtRp5436
(dp5437
g73
(dp5438
sg82
g5423
sg75
(lp5439
g68
(g69
g70
NtRp5440
(dp5441
g73
(dp5442
g81
I5
ssg82
g5436
sg75
(lp5443
S'/home/bcr/projects/cursojulho12/web2py/applications/ecommerce/sessions/127.0.0.1-e0e7056a-700f-423a-9841-a0a6b9ba511f'
p5444
asbasbasbag68
(g84
g70
NtRp5445
(dp5446
g73
(dp5447
sg82
g4835
sg75
(lp5448
g68
(g89
g70
NtRp5449
(dp5450
g73
(dp5451
g93
g94
ssg82
g5445
sg75
(lp5452
S'session_id'
p5453
asbag68
(g89
g70
NtRp5454
(dp5455
g73
(dp5456
g100
g101
ssg82
g5445
sg75
(lp5457
S':'
asbag68
(g89
g70
NtRp5458
(dp5459
g73
(dp5460
sg82
g5445
sg75
(lp5461
g68
(g69
g70
NtRp5462
(dp5463
g73
(dp5464
g81
I5
ssg82
g5458
sg75
(lp5465
S'127.0.0.1-e0e7056a-700f-423a-9841-a0a6b9ba511f'
p5466
asbasbasbag68
(g84
g70
NtRp5467
(dp5468
g73
(dp5469
sg82
g4835
sg75
(lp5470
g68
(g89
g70
NtRp5471
(dp5472
g73
(dp5473
g93
g94
ssg82
g5467
sg75
(lp5474
S'session_id_name'
p5475
asbag68
(g89
g70
NtRp5476
(dp5477
g73
(dp5478
g100
g101
ssg82
g5467
sg75
(lp5479
S':'
asbag68
(g89
g70
NtRp5480
(dp5481
g73
(dp5482
sg82
g5467
sg75
(lp5483
g68
(g69
g70
NtRp5484
(dp5485
g73
(dp5486
g81
I5
ssg82
g5480
sg75
(lp5487
g4892
asbasbasbag68
(g84
g70
NtRp5488
(dp5489
g73
(dp5490
sg82
g4835
sg75
(lp5491
g68
(g89
g70
NtRp5492
(dp5493
g73
(dp5494
g93
g94
ssg82
g5488
sg75
(lp5495
S'session_new'
p5496
asbag68
(g89
g70
NtRp5497
(dp5498
g73
(dp5499
g100
g101
ssg82
g5488
sg75
(lp5500
S':'
asbag68
(g89
g70
NtRp5501
(dp5502
g73
(dp5503
sg82
g5488
sg75
(lp5504
g68
(g69
g70
NtRp5505
(dp5506
g73
(dp5507
g81
I5
ssg82
g5501
sg75
(lp5508
g3396
asbasbasbag68
(g84
g70
NtRp5509
(dp5510
g73
(dp5511
sg82
g4835
sg75
(lp5512
g68
(g89
g70
NtRp5513
(dp5514
g73
(dp5515
g93
g94
ssg82
g5509
sg75
(lp5516
S'status'
p5517
asbag68
(g89
g70
NtRp5518
(dp5519
g73
(dp5520
g100
g101
ssg82
g5509
sg75
(lp5521
S':'
asbag68
(g89
g70
NtRp5522
(dp5523
g73
(dp5524
sg82
g5509
sg75
(lp5525
g68
(g69
g70
NtRp5526
(dp5527
g73
(dp5528
g81
I5
ssg82
g5522
sg75
(lp5529
S'200'
p5530
asbasbasbag68
(g84
g70
NtRp5531
(dp5532
g73
(dp5533
sg82
g4835
sg75
(lp5534
g68
(g89
g70
NtRp5535
(dp5536
g73
(dp5537
g93
g94
ssg82
g5531
sg75
(lp5538
S'title'
p5539
asbag68
(g89
g70
NtRp5540
(dp5541
g73
(dp5542
g100
g101
ssg82
g5531
sg75
(lp5543
S':'
asbag68
(g89
g70
NtRp5544
(dp5545
g73
(dp5546
sg82
g5531
sg75
(lp5547
g68
(g69
g70
NtRp5548
(dp5549
g73
(dp5550
g81
I5
ssg82
g5544
sg75
(lp5551
S'Ecommerce do Bruno | CursodePython.com.br'
p5552
asbasbasbag68
(g84
g70
NtRp5553
(dp5554
g73
(dp5555
sg82
g4835
sg75
(lp5556
g68
(g89
g70
NtRp5557
(dp5558
g73
(dp5559
g93
g94
ssg82
g5553
sg75
(lp5560
g4059
asbag68
(g89
g70
NtRp5561
(dp5562
g73
(dp5563
g100
g101
ssg82
g5553
sg75
(lp5564
S':'
asbag68
(g89
g70
NtRp5565
(dp5566
g73
(dp5567
sg82
g5553
sg75
(lp5568
g68
(g69
g70
NtRp5569
(dp5570
g73
(dp5571
g81
I5
ssg82
g5565
sg75
(lp5572
g4072
asbasbasbag68
(g84
g70
NtRp5573
(dp5574
g73
(dp5575
sg82
g4835
sg75
(lp5576
g68
(g89
g70
NtRp5577
(dp5578
g73
(dp5579
g93
g94
ssg82
g5573
sg75
(lp5580
S'view'
p5581
asbag68
(g89
g70
NtRp5582
(dp5583
g73
(dp5584
g100
g101
ssg82
g5573
sg75
(lp5585
S':'
asbag68
(g89
g70
NtRp5586
(dp5587
g73
(dp5588
sg82
g5573
sg75
(lp5589
g68
(g69
g70
NtRp5590
(dp5591
g73
(dp5592
g81
I5
ssg82
g5586
sg75
(lp5593
S'home/index.html'
p5594
asbasbasbasbasbsS'locals'
p5595
(dp5596
g4
S"'/home/bcr/projects/cursojulho12/web2py/applications/ecommerce/views/home/index.html'"
p5597
sg6
S'\'response.write(\\\'<!DOCTYPE html>\\\\n<html lang="en"...ntainer -->\\\\n  </body>\\\\n</html>\\\\n\\\', escape=False)\''
p5598
sssS'traceback'
p5599
S'Traceback (most recent call last):\n  File "/home/bcr/projects/cursojulho12/web2py/gluon/restricted.py", line 204, in restricted\n    ccode = compile2(code,layer)\n  File "/home/bcr/projects/cursojulho12/web2py/gluon/restricted.py", line 189, in compile2\n    return compile(code.rstrip().replace(\'\\r\\n\',\'\\n\')+\'\\n\', layer, \'exec\')\n  File "/home/bcr/projects/cursojulho12/web2py/applications/ecommerce/views/home/index.html", line 45\n    ) for product in products],\n    ^\nSyntaxError: invalid syntax\n'
p5600
s.