(dp1
S'output'
p2
S"<type 'exceptions.KeyError'> 'unit_price'"
p3
sS'layer'
p4
S'/home/bcr/projects/cursojulho12/web2py/applications/ecommerce/controllers/product.py'
p5
sS'code'
p6
S'# coding: utf-8\n\ndef show():\n    # pegar produto no banco de dados\n    # buscar pelo slug\n    # acessar api do twitter\n    pass\n\n\ndef search():\n    # receber parametros e efetuar busca\n    pass\n\n\ndef list():\n    # exibir todos os produtos\n    # apenas para admin\n    db.product.tax_price = Field.Virtual(lambda row: row.unit_price * origins.get(row.origin, 1))\n    rows = db(db.product).select()\n    table = SQLTABLE()\n    return table\n\ndef edit():\n    # pegar produto pelo id ou slug\n    # criar formulario de edicao\n    # apenas para admin\n    pass\n\ndef new():\n    # form para add novo produto\n    # apenas para admin\n    pass\nresponse._vars=response._caller(list)\n'
p7
sS'snapshot'
p8
(dp9
sS'traceback'
p10
S'Traceback (most recent call last):\n  File "/home/bcr/projects/cursojulho12/web2py/gluon/restricted.py", line 205, in restricted\n    exec ccode in environment\n  File "/home/bcr/projects/cursojulho12/web2py/applications/ecommerce/controllers/product.py", line 33, in <module>\n  File "/home/bcr/projects/cursojulho12/web2py/gluon/globals.py", line 173, in <lambda>\n    self._caller = lambda f: f()\n  File "/home/bcr/projects/cursojulho12/web2py/applications/ecommerce/controllers/product.py", line 19, in list\n    rows = db(db.product).select()\n  File "/home/bcr/projects/cursojulho12/web2py/gluon/dal.py", line 7578, in select\n    return adapter.select(self.query,fields,attributes)\n  File "/home/bcr/projects/cursojulho12/web2py/gluon/dal.py", line 1320, in select\n    return self.parse(rows,fields,self._colnames)\n  File "/home/bcr/projects/cursojulho12/web2py/gluon/dal.py", line 1641, in parse\n    box[f] = v.f(row)\n  File "/home/bcr/projects/cursojulho12/web2py/applications/ecommerce/controllers/product.py", line 18, in <lambda>\n    db.product.tax_price = Field.Virtual(lambda row: row.unit_price * origins.get(row.origin, 1))\n  File "/home/bcr/projects/cursojulho12/web2py/gluon/dal.py", line 5657, in __getattr__\n    return self[key]\n  File "/home/bcr/projects/cursojulho12/web2py/gluon/dal.py", line 5648, in __getitem__\n    return dict.__getitem__(self, key)\nKeyError: \'unit_price\'\n'
p11
s.