(dp1
S'output'
p2
S"<type 'exceptions.SyntaxError'> invalid syntax (xfunctions.py, line 4)"
p3
sS'layer'
p4
S'c:\\Users\\rochacbruno\\jul12\\cursojulho12\\web2py\\applications\\ecommerce\\models\\xfunctions.py'
p5
sS'code'
p6
S'\ndef hide_fields(tablename, fields):\n    for field in fields:\n        db.[tablename][field].writable = \\\n            db.[tablename][field].readable = False  '
p7
sS'snapshot'
p8
(dp9
S'exception'
p10
(dp11
S'__getslice__'
p12
S"<method-wrapper '__getslice__' of exceptions.SyntaxError object>"
p13
sS'text'
p14
S"'        db.[tablename][field].writable = \\\\\\n'"
p15
sS'__str__'
p16
S"<method-wrapper '__str__' of exceptions.SyntaxError object>"
p17
sS'__reduce__'
p18
S'<built-in method __reduce__ of exceptions.SyntaxError object>'
p19
sS'__dict__'
p20
S'{}'
p21
sS'__sizeof__'
p22
S'<built-in method __sizeof__ of exceptions.SyntaxError object>'
p23
sS'__init__'
p24
S"<method-wrapper '__init__' of exceptions.SyntaxError object>"
p25
sS'__setattr__'
p26
S"<method-wrapper '__setattr__' of exceptions.SyntaxError object>"
p27
sS'__reduce_ex__'
p28
S'<built-in method __reduce_ex__ of exceptions.SyntaxError object>'
p29
sS'__new__'
p30
S'<built-in method __new__ of type object>'
p31
sS'__format__'
p32
S'<built-in method __format__ of exceptions.SyntaxError object>'
p33
sS'__class__'
p34
S"<type 'exceptions.SyntaxError'>"
p35
sS'filename'
p36
S"r'c:\\Users\\rochacbruno\\jul12\\cursojulho12\\web2py\\applications\\ecommerce\\models\\xfunctions.py'"
p37
sS'lineno'
p38
S'4'
sS'msg'
p39
S"'invalid syntax'"
p40
sS'__doc__'
p41
S"'Invalid syntax.'"
p42
sS'__getitem__'
p43
S"<method-wrapper '__getitem__' of exceptions.SyntaxError object>"
p44
sS'__setstate__'
p45
S'<built-in method __setstate__ of exceptions.SyntaxError object>'
p46
sS'__getattribute__'
p47
S"<method-wrapper '__getattribute__' of exceptions.SyntaxError object>"
p48
sS'print_file_and_line'
p49
S'None'
p50
sS'args'
p51
S"('invalid syntax', (r'c:\\Users\\rochacbruno\\jul12\\cursojulho12\\web2py\\applications\\ecommerce\\models\\xfunctions.py', 4, 12, '        db.[tablename][field].writable = \\\\\\n'))"
p52
sS'__subclasshook__'
p53
S'<built-in method __subclasshook__ of type object>'
p54
sS'offset'
p55
S'12'
p56
sS'__unicode__'
p57
S'<built-in method __unicode__ of exceptions.SyntaxError object>'
p58
sS'__delattr__'
p59
S"<method-wrapper '__delattr__' of exceptions.SyntaxError object>"
p60
sS'__repr__'
p61
S"<method-wrapper '__repr__' of exceptions.SyntaxError object>"
p62
sS'__hash__'
p63
S"<method-wrapper '__hash__' of exceptions.SyntaxError object>"
p64
ssS'evalue'
p65
S'invalid syntax (xfunctions.py, line 4)'
p66
sS'request'
p67
ccopy_reg
_reconstructor
p68
(cgluon.html
BEAUTIFY
p69
c__builtin__
object
p70
NtRp71
(dp72
S'attributes'
p73
(dp74
sS'components'
p75
(lp76
g68
(cgluon.html
TABLE
p77
g70
NtRp78
(dp79
g73
(dp80
S'level'
p81
I5
ssS'parent'
p82
Nsg75
(lp83
g68
(cgluon.html
TR
p84
g70
NtRp85
(dp86
g73
(dp87
sg82
g78
sg75
(lp88
g68
(cgluon.html
TD
p89
g70
NtRp90
(dp91
g73
(dp92
S'_style'
p93
S'font-weight:bold;vertical-align:top'
p94
ssg82
g85
sg75
(lp95
S'ajax'
p96
asbag68
(g89
g70
NtRp97
(dp98
g73
(dp99
S'_valign'
p100
S'top'
p101
ssg82
g85
sg75
(lp102
S':'
asbag68
(g89
g70
NtRp103
(dp104
g73
(dp105
sg82
g85
sg75
(lp106
g68
(g69
g70
NtRp107
(dp108
g73
(dp109
g81
I5
ssg82
g103
sg75
(lp110
S'False'
p111
asbasbasbag68
(g84
g70
NtRp112
(dp113
g73
(dp114
sg82
g78
sg75
(lp115
g68
(g89
g70
NtRp116
(dp117
g73
(dp118
g93
g94
ssg82
g112
sg75
(lp119
S'application'
p120
asbag68
(g89
g70
NtRp121
(dp122
g73
(dp123
g100
g101
ssg82
g112
sg75
(lp124
S':'
asbag68
(g89
g70
NtRp125
(dp126
g73
(dp127
sg82
g112
sg75
(lp128
g68
(g69
g70
NtRp129
(dp130
g73
(dp131
g81
I5
ssg82
g125
sg75
(lp132
S'ecommerce'
p133
asbasbasbag68
(g84
g70
NtRp134
(dp135
g73
(dp136
sg82
g78
sg75
(lp137
g68
(g89
g70
NtRp138
(dp139
g73
(dp140
g93
g94
ssg82
g134
sg75
(lp141
g51
asbag68
(g89
g70
NtRp142
(dp143
g73
(dp144
g100
g101
ssg82
g134
sg75
(lp145
S':'
asbag68
(g89
g70
NtRp146
(dp147
g73
(dp148
sg82
g134
sg75
(lp149
g68
(g69
g70
NtRp150
(dp151
g73
(dp152
g81
I5
ssg82
g146
sg75
(lp153
g68
(g77
g70
NtRp154
(dp155
g73
(dp156
g81
I4
ssg82
Nsg75
(lp157
sbasbasbasbag68
(g84
g70
NtRp158
(dp159
g73
(dp160
sg82
g78
sg75
(lp161
g68
(g89
g70
NtRp162
(dp163
g73
(dp164
g93
g94
ssg82
g158
sg75
(lp165
S'body'
p166
asbag68
(g89
g70
NtRp167
(dp168
g73
(dp169
g100
g101
ssg82
g158
sg75
(lp170
S':'
asbag68
(g89
g70
NtRp171
(dp172
g73
(dp173
sg82
g158
sg75
(lp174
g68
(g69
g70
NtRp175
(dp176
g73
(dp177
g81
I5
ssg82
g171
sg75
(lp178
S'<cStringIO.StringO object at 0x05AC9F80>'
p179
asbasbasbag68
(g84
g70
NtRp180
(dp181
g73
(dp182
sg82
g78
sg75
(lp183
g68
(g89
g70
NtRp184
(dp185
g73
(dp186
g93
g94
ssg82
g180
sg75
(lp187
S'client'
p188
asbag68
(g89
g70
NtRp189
(dp190
g73
(dp191
g100
g101
ssg82
g180
sg75
(lp192
S':'
asbag68
(g89
g70
NtRp193
(dp194
g73
(dp195
sg82
g180
sg75
(lp196
g68
(g69
g70
NtRp197
(dp198
g73
(dp199
g81
I5
ssg82
g193
sg75
(lp200
S'127.0.0.1'
p201
asbasbasbag68
(g84
g70
NtRp202
(dp203
g73
(dp204
sg82
g78
sg75
(lp205
g68
(g89
g70
NtRp206
(dp207
g73
(dp208
g93
g94
ssg82
g202
sg75
(lp209
S'controller'
p210
asbag68
(g89
g70
NtRp211
(dp212
g73
(dp213
g100
g101
ssg82
g202
sg75
(lp214
S':'
asbag68
(g89
g70
NtRp215
(dp216
g73
(dp217
sg82
g202
sg75
(lp218
g68
(g69
g70
NtRp219
(dp220
g73
(dp221
g81
I5
ssg82
g215
sg75
(lp222
S'product'
p223
asbasbasbag68
(g84
g70
NtRp224
(dp225
g73
(dp226
sg82
g78
sg75
(lp227
g68
(g89
g70
NtRp228
(dp229
g73
(dp230
g93
g94
ssg82
g224
sg75
(lp231
S'cookies'
p232
asbag68
(g89
g70
NtRp233
(dp234
g73
(dp235
g100
g101
ssg82
g224
sg75
(lp236
S':'
asbag68
(g89
g70
NtRp237
(dp238
g73
(dp239
sg82
g224
sg75
(lp240
g68
(g69
g70
NtRp241
(dp242
g73
(dp243
g81
I5
ssg82
g237
sg75
(lp244
g68
(g77
g70
NtRp245
(dp246
g73
(dp247
g81
I4
ssg82
Nsg75
(lp248
g68
(g84
g70
NtRp249
(dp250
g73
(dp251
sg82
g245
sg75
(lp252
g68
(g89
g70
NtRp253
(dp254
g73
(dp255
g93
g94
ssg82
g249
sg75
(lp256
S'session_id_admin'
p257
asbag68
(g89
g70
NtRp258
(dp259
g73
(dp260
g100
g101
ssg82
g249
sg75
(lp261
S':'
asbag68
(g89
g70
NtRp262
(dp263
g73
(dp264
sg82
g249
sg75
(lp265
g68
(g69
g70
NtRp266
(dp267
g73
(dp268
g81
I4
ssg82
g262
sg75
(lp269
S'127.0.0.1-4873ed00-b716-4b13-a1bb-7fdaa43562f3'
p270
ag68
(g77
g70
NtRp271
(dp272
g73
(dp273
g81
I3
ssg82
Nsg75
(lp274
g68
(g84
g70
NtRp275
(dp276
g73
(dp277
sg82
g271
sg75
(lp278
g68
(g89
g70
NtRp279
(dp280
g73
(dp281
g93
g94
ssg82
g275
sg75
(lp282
S'comment'
p283
asbag68
(g89
g70
NtRp284
(dp285
g73
(dp286
g100
g101
ssg82
g275
sg75
(lp287
S':'
asbag68
(g89
g70
NtRp288
(dp289
g73
(dp290
sg82
g275
sg75
(lp291
g68
(g69
g70
NtRp292
(dp293
g73
(dp294
g81
I3
ssg82
g288
sg75
(lp295
S''
asbasbasbag68
(g84
g70
NtRp296
(dp297
g73
(dp298
sg82
g271
sg75
(lp299
g68
(g89
g70
NtRp300
(dp301
g73
(dp302
g93
g94
ssg82
g296
sg75
(lp303
S'domain'
p304
asbag68
(g89
g70
NtRp305
(dp306
g73
(dp307
g100
g101
ssg82
g296
sg75
(lp308
S':'
asbag68
(g89
g70
NtRp309
(dp310
g73
(dp311
sg82
g296
sg75
(lp312
g68
(g69
g70
NtRp313
(dp314
g73
(dp315
g81
I3
ssg82
g309
sg75
(lp316
S''
asbasbasbag68
(g84
g70
NtRp317
(dp318
g73
(dp319
sg82
g271
sg75
(lp320
g68
(g89
g70
NtRp321
(dp322
g73
(dp323
g93
g94
ssg82
g317
sg75
(lp324
S'expires'
p325
asbag68
(g89
g70
NtRp326
(dp327
g73
(dp328
g100
g101
ssg82
g317
sg75
(lp329
S':'
asbag68
(g89
g70
NtRp330
(dp331
g73
(dp332
sg82
g317
sg75
(lp333
g68
(g69
g70
NtRp334
(dp335
g73
(dp336
g81
I3
ssg82
g330
sg75
(lp337
S''
asbasbasbag68
(g84
g70
NtRp338
(dp339
g73
(dp340
sg82
g271
sg75
(lp341
g68
(g89
g70
NtRp342
(dp343
g73
(dp344
g93
g94
ssg82
g338
sg75
(lp345
S'httponly'
p346
asbag68
(g89
g70
NtRp347
(dp348
g73
(dp349
g100
g101
ssg82
g338
sg75
(lp350
S':'
asbag68
(g89
g70
NtRp351
(dp352
g73
(dp353
sg82
g338
sg75
(lp354
g68
(g69
g70
NtRp355
(dp356
g73
(dp357
g81
I3
ssg82
g351
sg75
(lp358
S''
asbasbasbag68
(g84
g70
NtRp359
(dp360
g73
(dp361
sg82
g271
sg75
(lp362
g68
(g89
g70
NtRp363
(dp364
g73
(dp365
g93
g94
ssg82
g359
sg75
(lp366
S'max-age'
p367
asbag68
(g89
g70
NtRp368
(dp369
g73
(dp370
g100
g101
ssg82
g359
sg75
(lp371
S':'
asbag68
(g89
g70
NtRp372
(dp373
g73
(dp374
sg82
g359
sg75
(lp375
g68
(g69
g70
NtRp376
(dp377
g73
(dp378
g81
I3
ssg82
g372
sg75
(lp379
S''
asbasbasbag68
(g84
g70
NtRp380
(dp381
g73
(dp382
sg82
g271
sg75
(lp383
g68
(g89
g70
NtRp384
(dp385
g73
(dp386
g93
g94
ssg82
g380
sg75
(lp387
S'path'
p388
asbag68
(g89
g70
NtRp389
(dp390
g73
(dp391
g100
g101
ssg82
g380
sg75
(lp392
S':'
asbag68
(g89
g70
NtRp393
(dp394
g73
(dp395
sg82
g380
sg75
(lp396
g68
(g69
g70
NtRp397
(dp398
g73
(dp399
g81
I3
ssg82
g393
sg75
(lp400
S''
asbasbasbag68
(g84
g70
NtRp401
(dp402
g73
(dp403
sg82
g271
sg75
(lp404
g68
(g89
g70
NtRp405
(dp406
g73
(dp407
g93
g94
ssg82
g401
sg75
(lp408
S'secure'
p409
asbag68
(g89
g70
NtRp410
(dp411
g73
(dp412
g100
g101
ssg82
g401
sg75
(lp413
S':'
asbag68
(g89
g70
NtRp414
(dp415
g73
(dp416
sg82
g401
sg75
(lp417
g68
(g69
g70
NtRp418
(dp419
g73
(dp420
g81
I3
ssg82
g414
sg75
(lp421
S''
asbasbasbag68
(g84
g70
NtRp422
(dp423
g73
(dp424
sg82
g271
sg75
(lp425
g68
(g89
g70
NtRp426
(dp427
g73
(dp428
g93
g94
ssg82
g422
sg75
(lp429
S'version'
p430
asbag68
(g89
g70
NtRp431
(dp432
g73
(dp433
g100
g101
ssg82
g422
sg75
(lp434
S':'
asbag68
(g89
g70
NtRp435
(dp436
g73
(dp437
sg82
g422
sg75
(lp438
g68
(g69
g70
NtRp439
(dp440
g73
(dp441
g81
I3
ssg82
g435
sg75
(lp442
S''
asbasbasbasbasbasbasbag68
(g84
g70
NtRp443
(dp444
g73
(dp445
sg82
g245
sg75
(lp446
g68
(g89
g70
NtRp447
(dp448
g73
(dp449
g93
g94
ssg82
g443
sg75
(lp450
S'session_id_ecommerce'
p451
asbag68
(g89
g70
NtRp452
(dp453
g73
(dp454
g100
g101
ssg82
g443
sg75
(lp455
S':'
asbag68
(g89
g70
NtRp456
(dp457
g73
(dp458
sg82
g443
sg75
(lp459
g68
(g69
g70
NtRp460
(dp461
g73
(dp462
g81
I4
ssg82
g456
sg75
(lp463
S'127.0.0.1-0fe94d39-4aae-427f-bfbc-597a65cd32c1'
p464
ag68
(g77
g70
NtRp465
(dp466
g73
(dp467
g81
I3
ssg82
Nsg75
(lp468
g68
(g84
g70
NtRp469
(dp470
g73
(dp471
sg82
g465
sg75
(lp472
g68
(g89
g70
NtRp473
(dp474
g73
(dp475
g93
g94
ssg82
g469
sg75
(lp476
g283
asbag68
(g89
g70
NtRp477
(dp478
g73
(dp479
g100
g101
ssg82
g469
sg75
(lp480
S':'
asbag68
(g89
g70
NtRp481
(dp482
g73
(dp483
sg82
g469
sg75
(lp484
g68
(g69
g70
NtRp485
(dp486
g73
(dp487
g81
I3
ssg82
g481
sg75
(lp488
S''
asbasbasbag68
(g84
g70
NtRp489
(dp490
g73
(dp491
sg82
g465
sg75
(lp492
g68
(g89
g70
NtRp493
(dp494
g73
(dp495
g93
g94
ssg82
g489
sg75
(lp496
g304
asbag68
(g89
g70
NtRp497
(dp498
g73
(dp499
g100
g101
ssg82
g489
sg75
(lp500
S':'
asbag68
(g89
g70
NtRp501
(dp502
g73
(dp503
sg82
g489
sg75
(lp504
g68
(g69
g70
NtRp505
(dp506
g73
(dp507
g81
I3
ssg82
g501
sg75
(lp508
S''
asbasbasbag68
(g84
g70
NtRp509
(dp510
g73
(dp511
sg82
g465
sg75
(lp512
g68
(g89
g70
NtRp513
(dp514
g73
(dp515
g93
g94
ssg82
g509
sg75
(lp516
g325
asbag68
(g89
g70
NtRp517
(dp518
g73
(dp519
g100
g101
ssg82
g509
sg75
(lp520
S':'
asbag68
(g89
g70
NtRp521
(dp522
g73
(dp523
sg82
g509
sg75
(lp524
g68
(g69
g70
NtRp525
(dp526
g73
(dp527
g81
I3
ssg82
g521
sg75
(lp528
S''
asbasbasbag68
(g84
g70
NtRp529
(dp530
g73
(dp531
sg82
g465
sg75
(lp532
g68
(g89
g70
NtRp533
(dp534
g73
(dp535
g93
g94
ssg82
g529
sg75
(lp536
g346
asbag68
(g89
g70
NtRp537
(dp538
g73
(dp539
g100
g101
ssg82
g529
sg75
(lp540
S':'
asbag68
(g89
g70
NtRp541
(dp542
g73
(dp543
sg82
g529
sg75
(lp544
g68
(g69
g70
NtRp545
(dp546
g73
(dp547
g81
I3
ssg82
g541
sg75
(lp548
S''
asbasbasbag68
(g84
g70
NtRp549
(dp550
g73
(dp551
sg82
g465
sg75
(lp552
g68
(g89
g70
NtRp553
(dp554
g73
(dp555
g93
g94
ssg82
g549
sg75
(lp556
g367
asbag68
(g89
g70
NtRp557
(dp558
g73
(dp559
g100
g101
ssg82
g549
sg75
(lp560
S':'
asbag68
(g89
g70
NtRp561
(dp562
g73
(dp563
sg82
g549
sg75
(lp564
g68
(g69
g70
NtRp565
(dp566
g73
(dp567
g81
I3
ssg82
g561
sg75
(lp568
S''
asbasbasbag68
(g84
g70
NtRp569
(dp570
g73
(dp571
sg82
g465
sg75
(lp572
g68
(g89
g70
NtRp573
(dp574
g73
(dp575
g93
g94
ssg82
g569
sg75
(lp576
g388
asbag68
(g89
g70
NtRp577
(dp578
g73
(dp579
g100
g101
ssg82
g569
sg75
(lp580
S':'
asbag68
(g89
g70
NtRp581
(dp582
g73
(dp583
sg82
g569
sg75
(lp584
g68
(g69
g70
NtRp585
(dp586
g73
(dp587
g81
I3
ssg82
g581
sg75
(lp588
S''
asbasbasbag68
(g84
g70
NtRp589
(dp590
g73
(dp591
sg82
g465
sg75
(lp592
g68
(g89
g70
NtRp593
(dp594
g73
(dp595
g93
g94
ssg82
g589
sg75
(lp596
g409
asbag68
(g89
g70
NtRp597
(dp598
g73
(dp599
g100
g101
ssg82
g589
sg75
(lp600
S':'
asbag68
(g89
g70
NtRp601
(dp602
g73
(dp603
sg82
g589
sg75
(lp604
g68
(g69
g70
NtRp605
(dp606
g73
(dp607
g81
I3
ssg82
g601
sg75
(lp608
S''
asbasbasbag68
(g84
g70
NtRp609
(dp610
g73
(dp611
sg82
g465
sg75
(lp612
g68
(g89
g70
NtRp613
(dp614
g73
(dp615
g93
g94
ssg82
g609
sg75
(lp616
g430
asbag68
(g89
g70
NtRp617
(dp618
g73
(dp619
g100
g101
ssg82
g609
sg75
(lp620
S':'
asbag68
(g89
g70
NtRp621
(dp622
g73
(dp623
sg82
g609
sg75
(lp624
g68
(g69
g70
NtRp625
(dp626
g73
(dp627
g81
I3
ssg82
g621
sg75
(lp628
S''
asbasbasbasbasbasbasbag68
(g84
g70
NtRp629
(dp630
g73
(dp631
sg82
g245
sg75
(lp632
g68
(g89
g70
NtRp633
(dp634
g73
(dp635
g93
g94
ssg82
g629
sg75
(lp636
S'session_id_init'
p637
asbag68
(g89
g70
NtRp638
(dp639
g73
(dp640
g100
g101
ssg82
g629
sg75
(lp641
S':'
asbag68
(g89
g70
NtRp642
(dp643
g73
(dp644
sg82
g629
sg75
(lp645
g68
(g69
g70
NtRp646
(dp647
g73
(dp648
g81
I4
ssg82
g642
sg75
(lp649
S'127.0.0.1-5d866f8a-e112-44ab-84a9-267caae08c70'
p650
ag68
(g77
g70
NtRp651
(dp652
g73
(dp653
g81
I3
ssg82
Nsg75
(lp654
g68
(g84
g70
NtRp655
(dp656
g73
(dp657
sg82
g651
sg75
(lp658
g68
(g89
g70
NtRp659
(dp660
g73
(dp661
g93
g94
ssg82
g655
sg75
(lp662
g283
asbag68
(g89
g70
NtRp663
(dp664
g73
(dp665
g100
g101
ssg82
g655
sg75
(lp666
S':'
asbag68
(g89
g70
NtRp667
(dp668
g73
(dp669
sg82
g655
sg75
(lp670
g68
(g69
g70
NtRp671
(dp672
g73
(dp673
g81
I3
ssg82
g667
sg75
(lp674
S''
asbasbasbag68
(g84
g70
NtRp675
(dp676
g73
(dp677
sg82
g651
sg75
(lp678
g68
(g89
g70
NtRp679
(dp680
g73
(dp681
g93
g94
ssg82
g675
sg75
(lp682
g304
asbag68
(g89
g70
NtRp683
(dp684
g73
(dp685
g100
g101
ssg82
g675
sg75
(lp686
S':'
asbag68
(g89
g70
NtRp687
(dp688
g73
(dp689
sg82
g675
sg75
(lp690
g68
(g69
g70
NtRp691
(dp692
g73
(dp693
g81
I3
ssg82
g687
sg75
(lp694
S''
asbasbasbag68
(g84
g70
NtRp695
(dp696
g73
(dp697
sg82
g651
sg75
(lp698
g68
(g89
g70
NtRp699
(dp700
g73
(dp701
g93
g94
ssg82
g695
sg75
(lp702
g325
asbag68
(g89
g70
NtRp703
(dp704
g73
(dp705
g100
g101
ssg82
g695
sg75
(lp706
S':'
asbag68
(g89
g70
NtRp707
(dp708
g73
(dp709
sg82
g695
sg75
(lp710
g68
(g69
g70
NtRp711
(dp712
g73
(dp713
g81
I3
ssg82
g707
sg75
(lp714
S''
asbasbasbag68
(g84
g70
NtRp715
(dp716
g73
(dp717
sg82
g651
sg75
(lp718
g68
(g89
g70
NtRp719
(dp720
g73
(dp721
g93
g94
ssg82
g715
sg75
(lp722
g346
asbag68
(g89
g70
NtRp723
(dp724
g73
(dp725
g100
g101
ssg82
g715
sg75
(lp726
S':'
asbag68
(g89
g70
NtRp727
(dp728
g73
(dp729
sg82
g715
sg75
(lp730
g68
(g69
g70
NtRp731
(dp732
g73
(dp733
g81
I3
ssg82
g727
sg75
(lp734
S''
asbasbasbag68
(g84
g70
NtRp735
(dp736
g73
(dp737
sg82
g651
sg75
(lp738
g68
(g89
g70
NtRp739
(dp740
g73
(dp741
g93
g94
ssg82
g735
sg75
(lp742
g367
asbag68
(g89
g70
NtRp743
(dp744
g73
(dp745
g100
g101
ssg82
g735
sg75
(lp746
S':'
asbag68
(g89
g70
NtRp747
(dp748
g73
(dp749
sg82
g735
sg75
(lp750
g68
(g69
g70
NtRp751
(dp752
g73
(dp753
g81
I3
ssg82
g747
sg75
(lp754
S''
asbasbasbag68
(g84
g70
NtRp755
(dp756
g73
(dp757
sg82
g651
sg75
(lp758
g68
(g89
g70
NtRp759
(dp760
g73
(dp761
g93
g94
ssg82
g755
sg75
(lp762
g388
asbag68
(g89
g70
NtRp763
(dp764
g73
(dp765
g100
g101
ssg82
g755
sg75
(lp766
S':'
asbag68
(g89
g70
NtRp767
(dp768
g73
(dp769
sg82
g755
sg75
(lp770
g68
(g69
g70
NtRp771
(dp772
g73
(dp773
g81
I3
ssg82
g767
sg75
(lp774
S''
asbasbasbag68
(g84
g70
NtRp775
(dp776
g73
(dp777
sg82
g651
sg75
(lp778
g68
(g89
g70
NtRp779
(dp780
g73
(dp781
g93
g94
ssg82
g775
sg75
(lp782
g409
asbag68
(g89
g70
NtRp783
(dp784
g73
(dp785
g100
g101
ssg82
g775
sg75
(lp786
S':'
asbag68
(g89
g70
NtRp787
(dp788
g73
(dp789
sg82
g775
sg75
(lp790
g68
(g69
g70
NtRp791
(dp792
g73
(dp793
g81
I3
ssg82
g787
sg75
(lp794
S''
asbasbasbag68
(g84
g70
NtRp795
(dp796
g73
(dp797
sg82
g651
sg75
(lp798
g68
(g89
g70
NtRp799
(dp800
g73
(dp801
g93
g94
ssg82
g795
sg75
(lp802
g430
asbag68
(g89
g70
NtRp803
(dp804
g73
(dp805
g100
g101
ssg82
g795
sg75
(lp806
S':'
asbag68
(g89
g70
NtRp807
(dp808
g73
(dp809
sg82
g795
sg75
(lp810
g68
(g69
g70
NtRp811
(dp812
g73
(dp813
g81
I3
ssg82
g807
sg75
(lp814
S''
asbasbasbasbasbasbasbag68
(g84
g70
NtRp815
(dp816
g73
(dp817
sg82
g245
sg75
(lp818
g68
(g89
g70
NtRp819
(dp820
g73
(dp821
g93
g94
ssg82
g815
sg75
(lp822
S'session_id_welcome'
p823
asbag68
(g89
g70
NtRp824
(dp825
g73
(dp826
g100
g101
ssg82
g815
sg75
(lp827
S':'
asbag68
(g89
g70
NtRp828
(dp829
g73
(dp830
sg82
g815
sg75
(lp831
g68
(g69
g70
NtRp832
(dp833
g73
(dp834
g81
I4
ssg82
g828
sg75
(lp835
S'127.0.0.1-413fbb53-8fc7-4016-8695-7ff91d564649'
p836
ag68
(g77
g70
NtRp837
(dp838
g73
(dp839
g81
I3
ssg82
Nsg75
(lp840
g68
(g84
g70
NtRp841
(dp842
g73
(dp843
sg82
g837
sg75
(lp844
g68
(g89
g70
NtRp845
(dp846
g73
(dp847
g93
g94
ssg82
g841
sg75
(lp848
g283
asbag68
(g89
g70
NtRp849
(dp850
g73
(dp851
g100
g101
ssg82
g841
sg75
(lp852
S':'
asbag68
(g89
g70
NtRp853
(dp854
g73
(dp855
sg82
g841
sg75
(lp856
g68
(g69
g70
NtRp857
(dp858
g73
(dp859
g81
I3
ssg82
g853
sg75
(lp860
S''
asbasbasbag68
(g84
g70
NtRp861
(dp862
g73
(dp863
sg82
g837
sg75
(lp864
g68
(g89
g70
NtRp865
(dp866
g73
(dp867
g93
g94
ssg82
g861
sg75
(lp868
g304
asbag68
(g89
g70
NtRp869
(dp870
g73
(dp871
g100
g101
ssg82
g861
sg75
(lp872
S':'
asbag68
(g89
g70
NtRp873
(dp874
g73
(dp875
sg82
g861
sg75
(lp876
g68
(g69
g70
NtRp877
(dp878
g73
(dp879
g81
I3
ssg82
g873
sg75
(lp880
S''
asbasbasbag68
(g84
g70
NtRp881
(dp882
g73
(dp883
sg82
g837
sg75
(lp884
g68
(g89
g70
NtRp885
(dp886
g73
(dp887
g93
g94
ssg82
g881
sg75
(lp888
g325
asbag68
(g89
g70
NtRp889
(dp890
g73
(dp891
g100
g101
ssg82
g881
sg75
(lp892
S':'
asbag68
(g89
g70
NtRp893
(dp894
g73
(dp895
sg82
g881
sg75
(lp896
g68
(g69
g70
NtRp897
(dp898
g73
(dp899
g81
I3
ssg82
g893
sg75
(lp900
S''
asbasbasbag68
(g84
g70
NtRp901
(dp902
g73
(dp903
sg82
g837
sg75
(lp904
g68
(g89
g70
NtRp905
(dp906
g73
(dp907
g93
g94
ssg82
g901
sg75
(lp908
g346
asbag68
(g89
g70
NtRp909
(dp910
g73
(dp911
g100
g101
ssg82
g901
sg75
(lp912
S':'
asbag68
(g89
g70
NtRp913
(dp914
g73
(dp915
sg82
g901
sg75
(lp916
g68
(g69
g70
NtRp917
(dp918
g73
(dp919
g81
I3
ssg82
g913
sg75
(lp920
S''
asbasbasbag68
(g84
g70
NtRp921
(dp922
g73
(dp923
sg82
g837
sg75
(lp924
g68
(g89
g70
NtRp925
(dp926
g73
(dp927
g93
g94
ssg82
g921
sg75
(lp928
g367
asbag68
(g89
g70
NtRp929
(dp930
g73
(dp931
g100
g101
ssg82
g921
sg75
(lp932
S':'
asbag68
(g89
g70
NtRp933
(dp934
g73
(dp935
sg82
g921
sg75
(lp936
g68
(g69
g70
NtRp937
(dp938
g73
(dp939
g81
I3
ssg82
g933
sg75
(lp940
S''
asbasbasbag68
(g84
g70
NtRp941
(dp942
g73
(dp943
sg82
g837
sg75
(lp944
g68
(g89
g70
NtRp945
(dp946
g73
(dp947
g93
g94
ssg82
g941
sg75
(lp948
g388
asbag68
(g89
g70
NtRp949
(dp950
g73
(dp951
g100
g101
ssg82
g941
sg75
(lp952
S':'
asbag68
(g89
g70
NtRp953
(dp954
g73
(dp955
sg82
g941
sg75
(lp956
g68
(g69
g70
NtRp957
(dp958
g73
(dp959
g81
I3
ssg82
g953
sg75
(lp960
S''
asbasbasbag68
(g84
g70
NtRp961
(dp962
g73
(dp963
sg82
g837
sg75
(lp964
g68
(g89
g70
NtRp965
(dp966
g73
(dp967
g93
g94
ssg82
g961
sg75
(lp968
g409
asbag68
(g89
g70
NtRp969
(dp970
g73
(dp971
g100
g101
ssg82
g961
sg75
(lp972
S':'
asbag68
(g89
g70
NtRp973
(dp974
g73
(dp975
sg82
g961
sg75
(lp976
g68
(g69
g70
NtRp977
(dp978
g73
(dp979
g81
I3
ssg82
g973
sg75
(lp980
S''
asbasbasbag68
(g84
g70
NtRp981
(dp982
g73
(dp983
sg82
g837
sg75
(lp984
g68
(g89
g70
NtRp985
(dp986
g73
(dp987
g93
g94
ssg82
g981
sg75
(lp988
g430
asbag68
(g89
g70
NtRp989
(dp990
g73
(dp991
g100
g101
ssg82
g981
sg75
(lp992
S':'
asbag68
(g89
g70
NtRp993
(dp994
g73
(dp995
sg82
g981
sg75
(lp996
g68
(g69
g70
NtRp997
(dp998
g73
(dp999
g81
I3
ssg82
g993
sg75
(lp1000
S''
asbasbasbasbasbasbasbasbasbasbasbag68
(g84
g70
NtRp1001
(dp1002
g73
(dp1003
sg82
g78
sg75
(lp1004
g68
(g89
g70
NtRp1005
(dp1006
g73
(dp1007
g93
g94
ssg82
g1001
sg75
(lp1008
S'env'
p1009
asbag68
(g89
g70
NtRp1010
(dp1011
g73
(dp1012
g100
g101
ssg82
g1001
sg75
(lp1013
S':'
asbag68
(g89
g70
NtRp1014
(dp1015
g73
(dp1016
sg82
g1001
sg75
(lp1017
g68
(g69
g70
NtRp1018
(dp1019
g73
(dp1020
g81
I5
ssg82
g1014
sg75
(lp1021
g68
(g77
g70
NtRp1022
(dp1023
g73
(dp1024
g81
I4
ssg82
Nsg75
(lp1025
g68
(g84
g70
NtRp1026
(dp1027
g73
(dp1028
sg82
g1022
sg75
(lp1029
g68
(g89
g70
NtRp1030
(dp1031
g73
(dp1032
g93
g94
ssg82
g1026
sg75
(lp1033
S'app_folders'
p1034
asbag68
(g89
g70
NtRp1035
(dp1036
g73
(dp1037
g100
g101
ssg82
g1026
sg75
(lp1038
S':'
asbag68
(g89
g70
NtRp1039
(dp1040
g73
(dp1041
sg82
g1026
sg75
(lp1042
g68
(g69
g70
NtRp1043
(dp1044
g73
(dp1045
g81
I4
ssg82
g1039
sg75
(lp1046
S"set(['c:\\\\Users\\\\rochacbruno\\\\jul12\\\\cursojulho12\\\\web2py\\\\applications\\\\ecommerce\\\\', 'c:\\\\Users\\\\rochacbruno\\\\jul12\\\\cursojulho12\\\\web2py\\\\applications\\\\admin\\\\'])"
p1047
asbasbasbag68
(g84
g70
NtRp1048
(dp1049
g73
(dp1050
sg82
g1022
sg75
(lp1051
g68
(g89
g70
NtRp1052
(dp1053
g73
(dp1054
g93
g94
ssg82
g1048
sg75
(lp1055
S'applications_parent'
p1056
asbag68
(g89
g70
NtRp1057
(dp1058
g73
(dp1059
g100
g101
ssg82
g1048
sg75
(lp1060
S':'
asbag68
(g89
g70
NtRp1061
(dp1062
g73
(dp1063
sg82
g1048
sg75
(lp1064
g68
(g69
g70
NtRp1065
(dp1066
g73
(dp1067
g81
I4
ssg82
g1061
sg75
(lp1068
S'c:\\Users\\rochacbruno\\jul12\\cursojulho12\\web2py'
p1069
asbasbasbag68
(g84
g70
NtRp1070
(dp1071
g73
(dp1072
sg82
g1022
sg75
(lp1073
g68
(g89
g70
NtRp1074
(dp1075
g73
(dp1076
g93
g94
ssg82
g1070
sg75
(lp1077
S'cmd_args'
p1078
asbag68
(g89
g70
NtRp1079
(dp1080
g73
(dp1081
g100
g101
ssg82
g1070
sg75
(lp1082
S':'
asbag68
(g89
g70
NtRp1083
(dp1084
g73
(dp1085
sg82
g1070
sg75
(lp1086
g68
(g69
g70
NtRp1087
(dp1088
g73
(dp1089
g81
I4
ssg82
g1083
sg75
(lp1090
g68
(g77
g70
NtRp1091
(dp1092
g73
(dp1093
g81
I3
ssg82
Nsg75
(lp1094
sbasbasbasbag68
(g84
g70
NtRp1095
(dp1096
g73
(dp1097
sg82
g1022
sg75
(lp1098
g68
(g89
g70
NtRp1099
(dp1100
g73
(dp1101
g93
g94
ssg82
g1095
sg75
(lp1102
S'cmd_options'
p1103
asbag68
(g89
g70
NtRp1104
(dp1105
g73
(dp1106
g100
g101
ssg82
g1095
sg75
(lp1107
S':'
asbag68
(g89
g70
NtRp1108
(dp1109
g73
(dp1110
sg82
g1095
sg75
(lp1111
g68
(g69
g70
NtRp1112
(dp1113
g73
(dp1114
g81
I4
ssg82
g1108
sg75
(lp1115
S"<Values at 0x2af8be8: {'verbose': False, 'ip': '127.0.0.1', 'with_scheduler': False, 'ips': ['192.168.1.100'], 'shutdown_timeout': 5, 'taskbar': False, 'port': 8000, 'maxthreads': None, 'softcron': False, 'server_name': 'rochacbruno-HP', 'bpython': False, 'nogui': False, 'nocron': True, 'extcron': False, 'run_system_tests': False, 'test': None, 'folder': 'c:\\\\Users\\\\rochacbruno\\\\jul12\\\\cursojulho12\\\\web2py', 'config': '', 'import_models': False, 'winservice': '', 'shell': None, 'run': '', 'log_filename': 'httpserver.log', 'debuglevel': 30, 'args': [''], 'socket_timeout': 5, 'ssl_ca_certificate': None, 'scheduler': None, 'profiler_filename': None, 'ssl_private_key': '', 'password': '1234', 'request_queue_size': 5, 'ssl_certificate': '', 'cronjob': False, 'numthreads': None, 'quiet': False, 'interfaces': None, 'minthreads': None, 'timeout': 10, 'plain': False, 'nobanner': False, 'pid_filename': 'httpserver.pid'}>"
p1116
asbasbasbag68
(g84
g70
NtRp1117
(dp1118
g73
(dp1119
sg82
g1022
sg75
(lp1120
g68
(g89
g70
NtRp1121
(dp1122
g73
(dp1123
g93
g94
ssg82
g1117
sg75
(lp1124
S'db_sessions'
p1125
asbag68
(g89
g70
NtRp1126
(dp1127
g73
(dp1128
g100
g101
ssg82
g1117
sg75
(lp1129
S':'
asbag68
(g89
g70
NtRp1130
(dp1131
g73
(dp1132
sg82
g1117
sg75
(lp1133
g68
(g69
g70
NtRp1134
(dp1135
g73
(dp1136
g81
I4
ssg82
g1130
sg75
(lp1137
S'set([])'
p1138
asbasbasbag68
(g84
g70
NtRp1139
(dp1140
g73
(dp1141
sg82
g1022
sg75
(lp1142
g68
(g89
g70
NtRp1143
(dp1144
g73
(dp1145
g93
g94
ssg82
g1139
sg75
(lp1146
S'debugging'
p1147
asbag68
(g89
g70
NtRp1148
(dp1149
g73
(dp1150
g100
g101
ssg82
g1139
sg75
(lp1151
S':'
asbag68
(g89
g70
NtRp1152
(dp1153
g73
(dp1154
sg82
g1139
sg75
(lp1155
g68
(g69
g70
NtRp1156
(dp1157
g73
(dp1158
g81
I4
ssg82
g1152
sg75
(lp1159
g111
asbasbasbag68
(g84
g70
NtRp1160
(dp1161
g73
(dp1162
sg82
g1022
sg75
(lp1163
g68
(g89
g70
NtRp1164
(dp1165
g73
(dp1166
g93
g94
ssg82
g1160
sg75
(lp1167
S'gluon_parent'
p1168
asbag68
(g89
g70
NtRp1169
(dp1170
g73
(dp1171
g100
g101
ssg82
g1160
sg75
(lp1172
S':'
asbag68
(g89
g70
NtRp1173
(dp1174
g73
(dp1175
sg82
g1160
sg75
(lp1176
g68
(g69
g70
NtRp1177
(dp1178
g73
(dp1179
g81
I4
ssg82
g1173
sg75
(lp1180
S'c:\\Users\\rochacbruno\\jul12\\cursojulho12\\web2py'
p1181
asbasbasbag68
(g84
g70
NtRp1182
(dp1183
g73
(dp1184
sg82
g1022
sg75
(lp1185
g68
(g89
g70
NtRp1186
(dp1187
g73
(dp1188
g93
g94
ssg82
g1182
sg75
(lp1189
S'http_accept'
p1190
asbag68
(g89
g70
NtRp1191
(dp1192
g73
(dp1193
g100
g101
ssg82
g1182
sg75
(lp1194
S':'
asbag68
(g89
g70
NtRp1195
(dp1196
g73
(dp1197
sg82
g1182
sg75
(lp1198
g68
(g69
g70
NtRp1199
(dp1200
g73
(dp1201
g81
I4
ssg82
g1195
sg75
(lp1202
S'text/html,application/xhtml+xml,application/xml;q=0.9,*/*;q=0.8'
p1203
asbasbasbag68
(g84
g70
NtRp1204
(dp1205
g73
(dp1206
sg82
g1022
sg75
(lp1207
g68
(g89
g70
NtRp1208
(dp1209
g73
(dp1210
g93
g94
ssg82
g1204
sg75
(lp1211
S'http_accept_encoding'
p1212
asbag68
(g89
g70
NtRp1213
(dp1214
g73
(dp1215
g100
g101
ssg82
g1204
sg75
(lp1216
S':'
asbag68
(g89
g70
NtRp1217
(dp1218
g73
(dp1219
sg82
g1204
sg75
(lp1220
g68
(g69
g70
NtRp1221
(dp1222
g73
(dp1223
g81
I4
ssg82
g1217
sg75
(lp1224
S'gzip, deflate'
p1225
asbasbasbag68
(g84
g70
NtRp1226
(dp1227
g73
(dp1228
sg82
g1022
sg75
(lp1229
g68
(g89
g70
NtRp1230
(dp1231
g73
(dp1232
g93
g94
ssg82
g1226
sg75
(lp1233
S'http_accept_language'
p1234
asbag68
(g89
g70
NtRp1235
(dp1236
g73
(dp1237
g100
g101
ssg82
g1226
sg75
(lp1238
S':'
asbag68
(g89
g70
NtRp1239
(dp1240
g73
(dp1241
sg82
g1226
sg75
(lp1242
g68
(g69
g70
NtRp1243
(dp1244
g73
(dp1245
g81
I4
ssg82
g1239
sg75
(lp1246
S'en,pt-br;q=0.8,pt;q=0.5,en-us;q=0.3'
p1247
asbasbasbag68
(g84
g70
NtRp1248
(dp1249
g73
(dp1250
sg82
g1022
sg75
(lp1251
g68
(g89
g70
NtRp1252
(dp1253
g73
(dp1254
g93
g94
ssg82
g1248
sg75
(lp1255
S'http_cache_control'
p1256
asbag68
(g89
g70
NtRp1257
(dp1258
g73
(dp1259
g100
g101
ssg82
g1248
sg75
(lp1260
S':'
asbag68
(g89
g70
NtRp1261
(dp1262
g73
(dp1263
sg82
g1248
sg75
(lp1264
g68
(g69
g70
NtRp1265
(dp1266
g73
(dp1267
g81
I4
ssg82
g1261
sg75
(lp1268
S'max-age=0'
p1269
asbasbasbag68
(g84
g70
NtRp1270
(dp1271
g73
(dp1272
sg82
g1022
sg75
(lp1273
g68
(g89
g70
NtRp1274
(dp1275
g73
(dp1276
g93
g94
ssg82
g1270
sg75
(lp1277
S'http_connection'
p1278
asbag68
(g89
g70
NtRp1279
(dp1280
g73
(dp1281
g100
g101
ssg82
g1270
sg75
(lp1282
S':'
asbag68
(g89
g70
NtRp1283
(dp1284
g73
(dp1285
sg82
g1270
sg75
(lp1286
g68
(g69
g70
NtRp1287
(dp1288
g73
(dp1289
g81
I4
ssg82
g1283
sg75
(lp1290
S'keep-alive'
p1291
asbasbasbag68
(g84
g70
NtRp1292
(dp1293
g73
(dp1294
sg82
g1022
sg75
(lp1295
g68
(g89
g70
NtRp1296
(dp1297
g73
(dp1298
g93
g94
ssg82
g1292
sg75
(lp1299
S'http_cookie'
p1300
asbag68
(g89
g70
NtRp1301
(dp1302
g73
(dp1303
g100
g101
ssg82
g1292
sg75
(lp1304
S':'
asbag68
(g89
g70
NtRp1305
(dp1306
g73
(dp1307
sg82
g1292
sg75
(lp1308
g68
(g69
g70
NtRp1309
(dp1310
g73
(dp1311
g81
I4
ssg82
g1305
sg75
(lp1312
S'session_id_admin=127.0.0.1-4873ed00-b716-4b13-a1bb-7fdaa43562f3; session_id_ecommerce=127.0.0.1-0fe94d39-4aae-427f-bfbc-597a65cd32c1; session_id_welcome=127.0.0.1-413fbb53-8fc7-4016-8695-7ff91d564649; session_id_init=127.0.0.1-5d866f8a-e112-44ab-84a9-267caae08c70'
p1313
asbasbasbag68
(g84
g70
NtRp1314
(dp1315
g73
(dp1316
sg82
g1022
sg75
(lp1317
g68
(g89
g70
NtRp1318
(dp1319
g73
(dp1320
g93
g94
ssg82
g1314
sg75
(lp1321
S'http_host'
p1322
asbag68
(g89
g70
NtRp1323
(dp1324
g73
(dp1325
g100
g101
ssg82
g1314
sg75
(lp1326
S':'
asbag68
(g89
g70
NtRp1327
(dp1328
g73
(dp1329
sg82
g1314
sg75
(lp1330
g68
(g69
g70
NtRp1331
(dp1332
g73
(dp1333
g81
I4
ssg82
g1327
sg75
(lp1334
S'localhost:8000'
p1335
asbasbasbag68
(g84
g70
NtRp1336
(dp1337
g73
(dp1338
sg82
g1022
sg75
(lp1339
g68
(g89
g70
NtRp1340
(dp1341
g73
(dp1342
g93
g94
ssg82
g1336
sg75
(lp1343
S'http_user_agent'
p1344
asbag68
(g89
g70
NtRp1345
(dp1346
g73
(dp1347
g100
g101
ssg82
g1336
sg75
(lp1348
S':'
asbag68
(g89
g70
NtRp1349
(dp1350
g73
(dp1351
sg82
g1336
sg75
(lp1352
g68
(g69
g70
NtRp1353
(dp1354
g73
(dp1355
g81
I4
ssg82
g1349
sg75
(lp1356
S'Mozilla/5.0 (Windows NT 6.1; rv:14.0) Gecko/20100101 Firefox/14.0.1'
p1357
asbasbasbag68
(g84
g70
NtRp1358
(dp1359
g73
(dp1360
sg82
g1022
sg75
(lp1361
g68
(g89
g70
NtRp1362
(dp1363
g73
(dp1364
g93
g94
ssg82
g1358
sg75
(lp1365
S'is_jython'
p1366
asbag68
(g89
g70
NtRp1367
(dp1368
g73
(dp1369
g100
g101
ssg82
g1358
sg75
(lp1370
S':'
asbag68
(g89
g70
NtRp1371
(dp1372
g73
(dp1373
sg82
g1358
sg75
(lp1374
g68
(g69
g70
NtRp1375
(dp1376
g73
(dp1377
g81
I4
ssg82
g1371
sg75
(lp1378
g111
asbasbasbag68
(g84
g70
NtRp1379
(dp1380
g73
(dp1381
sg82
g1022
sg75
(lp1382
g68
(g89
g70
NtRp1383
(dp1384
g73
(dp1385
g93
g94
ssg82
g1379
sg75
(lp1386
S'is_pypy'
p1387
asbag68
(g89
g70
NtRp1388
(dp1389
g73
(dp1390
g100
g101
ssg82
g1379
sg75
(lp1391
S':'
asbag68
(g89
g70
NtRp1392
(dp1393
g73
(dp1394
sg82
g1379
sg75
(lp1395
g68
(g69
g70
NtRp1396
(dp1397
g73
(dp1398
g81
I4
ssg82
g1392
sg75
(lp1399
g111
asbasbasbag68
(g84
g70
NtRp1400
(dp1401
g73
(dp1402
sg82
g1022
sg75
(lp1403
g68
(g89
g70
NtRp1404
(dp1405
g73
(dp1406
g93
g94
ssg82
g1400
sg75
(lp1407
S'path_info'
p1408
asbag68
(g89
g70
NtRp1409
(dp1410
g73
(dp1411
g100
g101
ssg82
g1400
sg75
(lp1412
S':'
asbag68
(g89
g70
NtRp1413
(dp1414
g73
(dp1415
sg82
g1400
sg75
(lp1416
g68
(g69
g70
NtRp1417
(dp1418
g73
(dp1419
g81
I4
ssg82
g1413
sg75
(lp1420
S'/product/new'
p1421
asbasbasbag68
(g84
g70
NtRp1422
(dp1423
g73
(dp1424
sg82
g1022
sg75
(lp1425
g68
(g89
g70
NtRp1426
(dp1427
g73
(dp1428
g93
g94
ssg82
g1422
sg75
(lp1429
S'query_string'
p1430
asbag68
(g89
g70
NtRp1431
(dp1432
g73
(dp1433
g100
g101
ssg82
g1422
sg75
(lp1434
S':'
asbag68
(g89
g70
NtRp1435
(dp1436
g73
(dp1437
sg82
g1422
sg75
(lp1438
g68
(g69
g70
NtRp1439
(dp1440
g73
(dp1441
g81
I4
ssg82
g1435
sg75
(lp1442
S''
asbasbasbag68
(g84
g70
NtRp1443
(dp1444
g73
(dp1445
sg82
g1022
sg75
(lp1446
g68
(g89
g70
NtRp1447
(dp1448
g73
(dp1449
g93
g94
ssg82
g1443
sg75
(lp1450
S'remote_addr'
p1451
asbag68
(g89
g70
NtRp1452
(dp1453
g73
(dp1454
g100
g101
ssg82
g1443
sg75
(lp1455
S':'
asbag68
(g89
g70
NtRp1456
(dp1457
g73
(dp1458
sg82
g1443
sg75
(lp1459
g68
(g69
g70
NtRp1460
(dp1461
g73
(dp1462
g81
I4
ssg82
g1456
sg75
(lp1463
g201
asbasbasbag68
(g84
g70
NtRp1464
(dp1465
g73
(dp1466
sg82
g1022
sg75
(lp1467
g68
(g89
g70
NtRp1468
(dp1469
g73
(dp1470
g93
g94
ssg82
g1464
sg75
(lp1471
S'remote_port'
p1472
asbag68
(g89
g70
NtRp1473
(dp1474
g73
(dp1475
g100
g101
ssg82
g1464
sg75
(lp1476
S':'
asbag68
(g89
g70
NtRp1477
(dp1478
g73
(dp1479
sg82
g1464
sg75
(lp1480
g68
(g69
g70
NtRp1481
(dp1482
g73
(dp1483
g81
I4
ssg82
g1477
sg75
(lp1484
S'50332'
p1485
asbasbasbag68
(g84
g70
NtRp1486
(dp1487
g73
(dp1488
sg82
g1022
sg75
(lp1489
g68
(g89
g70
NtRp1490
(dp1491
g73
(dp1492
g93
g94
ssg82
g1486
sg75
(lp1493
S'request_method'
p1494
asbag68
(g89
g70
NtRp1495
(dp1496
g73
(dp1497
g100
g101
ssg82
g1486
sg75
(lp1498
S':'
asbag68
(g89
g70
NtRp1499
(dp1500
g73
(dp1501
sg82
g1486
sg75
(lp1502
g68
(g69
g70
NtRp1503
(dp1504
g73
(dp1505
g81
I4
ssg82
g1499
sg75
(lp1506
S'GET'
p1507
asbasbasbag68
(g84
g70
NtRp1508
(dp1509
g73
(dp1510
sg82
g1022
sg75
(lp1511
g68
(g89
g70
NtRp1512
(dp1513
g73
(dp1514
g93
g94
ssg82
g1508
sg75
(lp1515
S'request_uri'
p1516
asbag68
(g89
g70
NtRp1517
(dp1518
g73
(dp1519
g100
g101
ssg82
g1508
sg75
(lp1520
S':'
asbag68
(g89
g70
NtRp1521
(dp1522
g73
(dp1523
sg82
g1508
sg75
(lp1524
g68
(g69
g70
NtRp1525
(dp1526
g73
(dp1527
g81
I4
ssg82
g1521
sg75
(lp1528
S'/ecommerce/product/new'
p1529
asbasbasbag68
(g84
g70
NtRp1530
(dp1531
g73
(dp1532
sg82
g1022
sg75
(lp1533
g68
(g89
g70
NtRp1534
(dp1535
g73
(dp1536
g93
g94
ssg82
g1530
sg75
(lp1537
S'script_name'
p1538
asbag68
(g89
g70
NtRp1539
(dp1540
g73
(dp1541
g100
g101
ssg82
g1530
sg75
(lp1542
S':'
asbag68
(g89
g70
NtRp1543
(dp1544
g73
(dp1545
sg82
g1530
sg75
(lp1546
g68
(g69
g70
NtRp1547
(dp1548
g73
(dp1549
g81
I4
ssg82
g1543
sg75
(lp1550
S''
asbasbasbag68
(g84
g70
NtRp1551
(dp1552
g73
(dp1553
sg82
g1022
sg75
(lp1554
g68
(g89
g70
NtRp1555
(dp1556
g73
(dp1557
g93
g94
ssg82
g1551
sg75
(lp1558
S'server_name'
p1559
asbag68
(g89
g70
NtRp1560
(dp1561
g73
(dp1562
g100
g101
ssg82
g1551
sg75
(lp1563
S':'
asbag68
(g89
g70
NtRp1564
(dp1565
g73
(dp1566
sg82
g1551
sg75
(lp1567
g68
(g69
g70
NtRp1568
(dp1569
g73
(dp1570
g81
I4
ssg82
g1564
sg75
(lp1571
S'rochacbruno-HP'
p1572
asbasbasbag68
(g84
g70
NtRp1573
(dp1574
g73
(dp1575
sg82
g1022
sg75
(lp1576
g68
(g89
g70
NtRp1577
(dp1578
g73
(dp1579
g93
g94
ssg82
g1573
sg75
(lp1580
S'server_port'
p1581
asbag68
(g89
g70
NtRp1582
(dp1583
g73
(dp1584
g100
g101
ssg82
g1573
sg75
(lp1585
S':'
asbag68
(g89
g70
NtRp1586
(dp1587
g73
(dp1588
sg82
g1573
sg75
(lp1589
g68
(g69
g70
NtRp1590
(dp1591
g73
(dp1592
g81
I4
ssg82
g1586
sg75
(lp1593
S'8000'
p1594
asbasbasbag68
(g84
g70
NtRp1595
(dp1596
g73
(dp1597
sg82
g1022
sg75
(lp1598
g68
(g89
g70
NtRp1599
(dp1600
g73
(dp1601
g93
g94
ssg82
g1595
sg75
(lp1602
S'server_protocol'
p1603
asbag68
(g89
g70
NtRp1604
(dp1605
g73
(dp1606
g100
g101
ssg82
g1595
sg75
(lp1607
S':'
asbag68
(g89
g70
NtRp1608
(dp1609
g73
(dp1610
sg82
g1595
sg75
(lp1611
g68
(g69
g70
NtRp1612
(dp1613
g73
(dp1614
g81
I4
ssg82
g1608
sg75
(lp1615
S'HTTP/1.1'
p1616
asbasbasbag68
(g84
g70
NtRp1617
(dp1618
g73
(dp1619
sg82
g1022
sg75
(lp1620
g68
(g89
g70
NtRp1621
(dp1622
g73
(dp1623
g93
g94
ssg82
g1617
sg75
(lp1624
S'server_software'
p1625
asbag68
(g89
g70
NtRp1626
(dp1627
g73
(dp1628
g100
g101
ssg82
g1617
sg75
(lp1629
S':'
asbag68
(g89
g70
NtRp1630
(dp1631
g73
(dp1632
sg82
g1617
sg75
(lp1633
g68
(g69
g70
NtRp1634
(dp1635
g73
(dp1636
g81
I4
ssg82
g1630
sg75
(lp1637
S'Rocket 1.2.4'
p1638
asbasbasbag68
(g84
g70
NtRp1639
(dp1640
g73
(dp1641
sg82
g1022
sg75
(lp1642
g68
(g89
g70
NtRp1643
(dp1644
g73
(dp1645
g93
g94
ssg82
g1639
sg75
(lp1646
S'web2py_original_uri'
p1647
asbag68
(g89
g70
NtRp1648
(dp1649
g73
(dp1650
g100
g101
ssg82
g1639
sg75
(lp1651
S':'
asbag68
(g89
g70
NtRp1652
(dp1653
g73
(dp1654
sg82
g1639
sg75
(lp1655
g68
(g69
g70
NtRp1656
(dp1657
g73
(dp1658
g81
I4
ssg82
g1652
sg75
(lp1659
g1421
asbasbasbag68
(g84
g70
NtRp1660
(dp1661
g73
(dp1662
sg82
g1022
sg75
(lp1663
g68
(g89
g70
NtRp1664
(dp1665
g73
(dp1666
g93
g94
ssg82
g1660
sg75
(lp1667
S'web2py_path'
p1668
asbag68
(g89
g70
NtRp1669
(dp1670
g73
(dp1671
g100
g101
ssg82
g1660
sg75
(lp1672
S':'
asbag68
(g89
g70
NtRp1673
(dp1674
g73
(dp1675
sg82
g1660
sg75
(lp1676
g68
(g69
g70
NtRp1677
(dp1678
g73
(dp1679
g81
I4
ssg82
g1673
sg75
(lp1680
g1069
asbasbasbag68
(g84
g70
NtRp1681
(dp1682
g73
(dp1683
sg82
g1022
sg75
(lp1684
g68
(g89
g70
NtRp1685
(dp1686
g73
(dp1687
g93
g94
ssg82
g1681
sg75
(lp1688
S'web2py_version'
p1689
asbag68
(g89
g70
NtRp1690
(dp1691
g73
(dp1692
g100
g101
ssg82
g1681
sg75
(lp1693
S':'
asbag68
(g89
g70
NtRp1694
(dp1695
g73
(dp1696
sg82
g1681
sg75
(lp1697
g68
(g69
g70
NtRp1698
(dp1699
g73
(dp1700
g81
I4
ssg82
g1694
sg75
(lp1701
g68
(g77
g70
NtRp1702
(dp1703
g73
(dp1704
g81
I3
ssg82
Nsg75
(lp1705
g68
(g84
g70
NtRp1706
(dp1707
g73
(dp1708
sg82
g1702
sg75
(lp1709
g68
(g89
g70
NtRp1710
(dp1711
g73
(dp1712
sg82
g1706
sg75
(lp1713
g68
(g69
g70
NtRp1714
(dp1715
g73
(dp1716
g81
I3
ssg82
g1710
sg75
(lp1717
S'2'
asbasbasbag68
(g84
g70
NtRp1718
(dp1719
g73
(dp1720
sg82
g1702
sg75
(lp1721
g68
(g89
g70
NtRp1722
(dp1723
g73
(dp1724
sg82
g1718
sg75
(lp1725
g68
(g69
g70
NtRp1726
(dp1727
g73
(dp1728
g81
I3
ssg82
g1722
sg75
(lp1729
S'0'
asbasbasbag68
(g84
g70
NtRp1730
(dp1731
g73
(dp1732
sg82
g1702
sg75
(lp1733
g68
(g89
g70
NtRp1734
(dp1735
g73
(dp1736
sg82
g1730
sg75
(lp1737
g68
(g69
g70
NtRp1738
(dp1739
g73
(dp1740
g81
I3
ssg82
g1734
sg75
(lp1741
S'0'
asbasbasbag68
(g84
g70
NtRp1742
(dp1743
g73
(dp1744
sg82
g1702
sg75
(lp1745
g68
(g89
g70
NtRp1746
(dp1747
g73
(dp1748
sg82
g1742
sg75
(lp1749
g68
(g69
g70
NtRp1750
(dp1751
g73
(dp1752
g81
I3
ssg82
g1746
sg75
(lp1753
S'datetime.datetime(2012, 8, 10, 13, 1, 31)'
p1754
asbasbasbag68
(g84
g70
NtRp1755
(dp1756
g73
(dp1757
sg82
g1702
sg75
(lp1758
g68
(g89
g70
NtRp1759
(dp1760
g73
(dp1761
sg82
g1755
sg75
(lp1762
g68
(g69
g70
NtRp1763
(dp1764
g73
(dp1765
g81
I3
ssg82
g1759
sg75
(lp1766
S'dev'
p1767
asbasbasbasbasbasbasbag68
(g84
g70
NtRp1768
(dp1769
g73
(dp1770
sg82
g1022
sg75
(lp1771
g68
(g89
g70
NtRp1772
(dp1773
g73
(dp1774
g93
g94
ssg82
g1768
sg75
(lp1775
S'wsgi_errors'
p1776
asbag68
(g89
g70
NtRp1777
(dp1778
g73
(dp1779
g100
g101
ssg82
g1768
sg75
(lp1780
S':'
asbag68
(g89
g70
NtRp1781
(dp1782
g73
(dp1783
sg82
g1768
sg75
(lp1784
g68
(g69
g70
NtRp1785
(dp1786
g73
(dp1787
g81
I4
ssg82
g1781
sg75
(lp1788
S"<open file '<stderr>', mode 'w' at 0x012750D0>"
p1789
asbasbasbag68
(g84
g70
NtRp1790
(dp1791
g73
(dp1792
sg82
g1022
sg75
(lp1793
g68
(g89
g70
NtRp1794
(dp1795
g73
(dp1796
g93
g94
ssg82
g1790
sg75
(lp1797
S'wsgi_file_wrapper'
p1798
asbag68
(g89
g70
NtRp1799
(dp1800
g73
(dp1801
g100
g101
ssg82
g1790
sg75
(lp1802
S':'
asbag68
(g89
g70
NtRp1803
(dp1804
g73
(dp1805
sg82
g1790
sg75
(lp1806
g68
(g69
g70
NtRp1807
(dp1808
g73
(dp1809
g81
I4
ssg82
g1803
sg75
(lp1810
S'<class wsgiref.util.FileWrapper at 0x02A383B0>'
p1811
asbasbasbag68
(g84
g70
NtRp1812
(dp1813
g73
(dp1814
sg82
g1022
sg75
(lp1815
g68
(g89
g70
NtRp1816
(dp1817
g73
(dp1818
g93
g94
ssg82
g1812
sg75
(lp1819
S'wsgi_input'
p1820
asbag68
(g89
g70
NtRp1821
(dp1822
g73
(dp1823
g100
g101
ssg82
g1812
sg75
(lp1824
S':'
asbag68
(g89
g70
NtRp1825
(dp1826
g73
(dp1827
sg82
g1812
sg75
(lp1828
g68
(g69
g70
NtRp1829
(dp1830
g73
(dp1831
g81
I4
ssg82
g1825
sg75
(lp1832
S'<socket._fileobject object at 0x059B77B0>'
p1833
asbasbasbag68
(g84
g70
NtRp1834
(dp1835
g73
(dp1836
sg82
g1022
sg75
(lp1837
g68
(g89
g70
NtRp1838
(dp1839
g73
(dp1840
g93
g94
ssg82
g1834
sg75
(lp1841
S'wsgi_multiprocess'
p1842
asbag68
(g89
g70
NtRp1843
(dp1844
g73
(dp1845
g100
g101
ssg82
g1834
sg75
(lp1846
S':'
asbag68
(g89
g70
NtRp1847
(dp1848
g73
(dp1849
sg82
g1834
sg75
(lp1850
g68
(g69
g70
NtRp1851
(dp1852
g73
(dp1853
g81
I4
ssg82
g1847
sg75
(lp1854
g111
asbasbasbag68
(g84
g70
NtRp1855
(dp1856
g73
(dp1857
sg82
g1022
sg75
(lp1858
g68
(g89
g70
NtRp1859
(dp1860
g73
(dp1861
g93
g94
ssg82
g1855
sg75
(lp1862
S'wsgi_multithread'
p1863
asbag68
(g89
g70
NtRp1864
(dp1865
g73
(dp1866
g100
g101
ssg82
g1855
sg75
(lp1867
S':'
asbag68
(g89
g70
NtRp1868
(dp1869
g73
(dp1870
sg82
g1855
sg75
(lp1871
g68
(g69
g70
NtRp1872
(dp1873
g73
(dp1874
g81
I4
ssg82
g1868
sg75
(lp1875
S'True'
p1876
asbasbasbag68
(g84
g70
NtRp1877
(dp1878
g73
(dp1879
sg82
g1022
sg75
(lp1880
g68
(g89
g70
NtRp1881
(dp1882
g73
(dp1883
g93
g94
ssg82
g1877
sg75
(lp1884
S'wsgi_run_once'
p1885
asbag68
(g89
g70
NtRp1886
(dp1887
g73
(dp1888
g100
g101
ssg82
g1877
sg75
(lp1889
S':'
asbag68
(g89
g70
NtRp1890
(dp1891
g73
(dp1892
sg82
g1877
sg75
(lp1893
g68
(g69
g70
NtRp1894
(dp1895
g73
(dp1896
g81
I4
ssg82
g1890
sg75
(lp1897
g111
asbasbasbag68
(g84
g70
NtRp1898
(dp1899
g73
(dp1900
sg82
g1022
sg75
(lp1901
g68
(g89
g70
NtRp1902
(dp1903
g73
(dp1904
g93
g94
ssg82
g1898
sg75
(lp1905
S'wsgi_url_scheme'
p1906
asbag68
(g89
g70
NtRp1907
(dp1908
g73
(dp1909
g100
g101
ssg82
g1898
sg75
(lp1910
S':'
asbag68
(g89
g70
NtRp1911
(dp1912
g73
(dp1913
sg82
g1898
sg75
(lp1914
g68
(g69
g70
NtRp1915
(dp1916
g73
(dp1917
g81
I4
ssg82
g1911
sg75
(lp1918
S'http'
p1919
asbasbasbag68
(g84
g70
NtRp1920
(dp1921
g73
(dp1922
sg82
g1022
sg75
(lp1923
g68
(g89
g70
NtRp1924
(dp1925
g73
(dp1926
g93
g94
ssg82
g1920
sg75
(lp1927
S'wsgi_version'
p1928
asbag68
(g89
g70
NtRp1929
(dp1930
g73
(dp1931
g100
g101
ssg82
g1920
sg75
(lp1932
S':'
asbag68
(g89
g70
NtRp1933
(dp1934
g73
(dp1935
sg82
g1920
sg75
(lp1936
g68
(g69
g70
NtRp1937
(dp1938
g73
(dp1939
g81
I4
ssg82
g1933
sg75
(lp1940
g68
(g77
g70
NtRp1941
(dp1942
g73
(dp1943
g81
I3
ssg82
Nsg75
(lp1944
g68
(g84
g70
NtRp1945
(dp1946
g73
(dp1947
sg82
g1941
sg75
(lp1948
g68
(g89
g70
NtRp1949
(dp1950
g73
(dp1951
sg82
g1945
sg75
(lp1952
g68
(g69
g70
NtRp1953
(dp1954
g73
(dp1955
g81
I3
ssg82
g1949
sg75
(lp1956
S'1'
asbasbasbag68
(g84
g70
NtRp1957
(dp1958
g73
(dp1959
sg82
g1941
sg75
(lp1960
g68
(g89
g70
NtRp1961
(dp1962
g73
(dp1963
sg82
g1957
sg75
(lp1964
g68
(g69
g70
NtRp1965
(dp1966
g73
(dp1967
g81
I3
ssg82
g1961
sg75
(lp1968
S'0'
asbasbasbasbasbasbasbasbasbasbasbag68
(g84
g70
NtRp1969
(dp1970
g73
(dp1971
sg82
g78
sg75
(lp1972
g68
(g89
g70
NtRp1973
(dp1974
g73
(dp1975
g93
g94
ssg82
g1969
sg75
(lp1976
S'extension'
p1977
asbag68
(g89
g70
NtRp1978
(dp1979
g73
(dp1980
g100
g101
ssg82
g1969
sg75
(lp1981
S':'
asbag68
(g89
g70
NtRp1982
(dp1983
g73
(dp1984
sg82
g1969
sg75
(lp1985
g68
(g69
g70
NtRp1986
(dp1987
g73
(dp1988
g81
I5
ssg82
g1982
sg75
(lp1989
S'html'
p1990
asbasbasbag68
(g84
g70
NtRp1991
(dp1992
g73
(dp1993
sg82
g78
sg75
(lp1994
g68
(g89
g70
NtRp1995
(dp1996
g73
(dp1997
g93
g94
ssg82
g1991
sg75
(lp1998
S'folder'
p1999
asbag68
(g89
g70
NtRp2000
(dp2001
g73
(dp2002
g100
g101
ssg82
g1991
sg75
(lp2003
S':'
asbag68
(g89
g70
NtRp2004
(dp2005
g73
(dp2006
sg82
g1991
sg75
(lp2007
g68
(g69
g70
NtRp2008
(dp2009
g73
(dp2010
g81
I5
ssg82
g2004
sg75
(lp2011
S'c:\\Users\\rochacbruno\\jul12\\cursojulho12\\web2py\\applications\\ecommerce\\'
p2012
asbasbasbag68
(g84
g70
NtRp2013
(dp2014
g73
(dp2015
sg82
g78
sg75
(lp2016
g68
(g89
g70
NtRp2017
(dp2018
g73
(dp2019
g93
g94
ssg82
g2013
sg75
(lp2020
S'function'
p2021
asbag68
(g89
g70
NtRp2022
(dp2023
g73
(dp2024
g100
g101
ssg82
g2013
sg75
(lp2025
S':'
asbag68
(g89
g70
NtRp2026
(dp2027
g73
(dp2028
sg82
g2013
sg75
(lp2029
g68
(g69
g70
NtRp2030
(dp2031
g73
(dp2032
g81
I5
ssg82
g2026
sg75
(lp2033
S'new'
p2034
asbasbasbag68
(g84
g70
NtRp2035
(dp2036
g73
(dp2037
sg82
g78
sg75
(lp2038
g68
(g89
g70
NtRp2039
(dp2040
g73
(dp2041
g93
g94
ssg82
g2035
sg75
(lp2042
S'get_vars'
p2043
asbag68
(g89
g70
NtRp2044
(dp2045
g73
(dp2046
g100
g101
ssg82
g2035
sg75
(lp2047
S':'
asbag68
(g89
g70
NtRp2048
(dp2049
g73
(dp2050
sg82
g2035
sg75
(lp2051
g68
(g69
g70
NtRp2052
(dp2053
g73
(dp2054
g81
I5
ssg82
g2048
sg75
(lp2055
g68
(g77
g70
NtRp2056
(dp2057
g73
(dp2058
g81
I4
ssg82
Nsg75
(lp2059
sbasbasbasbag68
(g84
g70
NtRp2060
(dp2061
g73
(dp2062
sg82
g78
sg75
(lp2063
g68
(g89
g70
NtRp2064
(dp2065
g73
(dp2066
g93
g94
ssg82
g2060
sg75
(lp2067
S'global_settings'
p2068
asbag68
(g89
g70
NtRp2069
(dp2070
g73
(dp2071
g100
g101
ssg82
g2060
sg75
(lp2072
S':'
asbag68
(g89
g70
NtRp2073
(dp2074
g73
(dp2075
sg82
g2060
sg75
(lp2076
g68
(g69
g70
NtRp2077
(dp2078
g73
(dp2079
g81
I5
ssg82
g2073
sg75
(lp2080
g68
(g77
g70
NtRp2081
(dp2082
g73
(dp2083
g81
I4
ssg82
Nsg75
(lp2084
g68
(g84
g70
NtRp2085
(dp2086
g73
(dp2087
sg82
g2081
sg75
(lp2088
g68
(g89
g70
NtRp2089
(dp2090
g73
(dp2091
g93
g94
ssg82
g2085
sg75
(lp2092
g1034
asbag68
(g89
g70
NtRp2093
(dp2094
g73
(dp2095
g100
g101
ssg82
g2085
sg75
(lp2096
S':'
asbag68
(g89
g70
NtRp2097
(dp2098
g73
(dp2099
sg82
g2085
sg75
(lp2100
g68
(g69
g70
NtRp2101
(dp2102
g73
(dp2103
g81
I4
ssg82
g2097
sg75
(lp2104
S"set(['c:\\\\Users\\\\rochacbruno\\\\jul12\\\\cursojulho12\\\\web2py\\\\applications\\\\ecommerce\\\\', 'c:\\\\Users\\\\rochacbruno\\\\jul12\\\\cursojulho12\\\\web2py\\\\applications\\\\admin\\\\'])"
p2105
asbasbasbag68
(g84
g70
NtRp2106
(dp2107
g73
(dp2108
sg82
g2081
sg75
(lp2109
g68
(g89
g70
NtRp2110
(dp2111
g73
(dp2112
g93
g94
ssg82
g2106
sg75
(lp2113
g1056
asbag68
(g89
g70
NtRp2114
(dp2115
g73
(dp2116
g100
g101
ssg82
g2106
sg75
(lp2117
S':'
asbag68
(g89
g70
NtRp2118
(dp2119
g73
(dp2120
sg82
g2106
sg75
(lp2121
g68
(g69
g70
NtRp2122
(dp2123
g73
(dp2124
g81
I4
ssg82
g2118
sg75
(lp2125
g1069
asbasbasbag68
(g84
g70
NtRp2126
(dp2127
g73
(dp2128
sg82
g2081
sg75
(lp2129
g68
(g89
g70
NtRp2130
(dp2131
g73
(dp2132
g93
g94
ssg82
g2126
sg75
(lp2133
g1078
asbag68
(g89
g70
NtRp2134
(dp2135
g73
(dp2136
g100
g101
ssg82
g2126
sg75
(lp2137
S':'
asbag68
(g89
g70
NtRp2138
(dp2139
g73
(dp2140
sg82
g2126
sg75
(lp2141
g68
(g69
g70
NtRp2142
(dp2143
g73
(dp2144
g81
I4
ssg82
g2138
sg75
(lp2145
g68
(g77
g70
NtRp2146
(dp2147
g73
(dp2148
g81
I3
ssg82
Nsg75
(lp2149
sbasbasbasbag68
(g84
g70
NtRp2150
(dp2151
g73
(dp2152
sg82
g2081
sg75
(lp2153
g68
(g89
g70
NtRp2154
(dp2155
g73
(dp2156
g93
g94
ssg82
g2150
sg75
(lp2157
g1103
asbag68
(g89
g70
NtRp2158
(dp2159
g73
(dp2160
g100
g101
ssg82
g2150
sg75
(lp2161
S':'
asbag68
(g89
g70
NtRp2162
(dp2163
g73
(dp2164
sg82
g2150
sg75
(lp2165
g68
(g69
g70
NtRp2166
(dp2167
g73
(dp2168
g81
I4
ssg82
g2162
sg75
(lp2169
S"<Values at 0x2af8be8: {'verbose': False, 'ip': '127.0.0.1', 'with_scheduler': False, 'ips': ['192.168.1.100'], 'shutdown_timeout': 5, 'taskbar': False, 'port': 8000, 'maxthreads': None, 'softcron': False, 'server_name': 'rochacbruno-HP', 'bpython': False, 'nogui': False, 'nocron': True, 'extcron': False, 'run_system_tests': False, 'test': None, 'folder': 'c:\\\\Users\\\\rochacbruno\\\\jul12\\\\cursojulho12\\\\web2py', 'config': '', 'import_models': False, 'winservice': '', 'shell': None, 'run': '', 'log_filename': 'httpserver.log', 'debuglevel': 30, 'args': [''], 'socket_timeout': 5, 'ssl_ca_certificate': None, 'scheduler': None, 'profiler_filename': None, 'ssl_private_key': '', 'password': '1234', 'request_queue_size': 5, 'ssl_certificate': '', 'cronjob': False, 'numthreads': None, 'quiet': False, 'interfaces': None, 'minthreads': None, 'timeout': 10, 'plain': False, 'nobanner': False, 'pid_filename': 'httpserver.pid'}>"
p2170
asbasbasbag68
(g84
g70
NtRp2171
(dp2172
g73
(dp2173
sg82
g2081
sg75
(lp2174
g68
(g89
g70
NtRp2175
(dp2176
g73
(dp2177
g93
g94
ssg82
g2171
sg75
(lp2178
g1125
asbag68
(g89
g70
NtRp2179
(dp2180
g73
(dp2181
g100
g101
ssg82
g2171
sg75
(lp2182
S':'
asbag68
(g89
g70
NtRp2183
(dp2184
g73
(dp2185
sg82
g2171
sg75
(lp2186
g68
(g69
g70
NtRp2187
(dp2188
g73
(dp2189
g81
I4
ssg82
g2183
sg75
(lp2190
S'set([])'
p2191
asbasbasbag68
(g84
g70
NtRp2192
(dp2193
g73
(dp2194
sg82
g2081
sg75
(lp2195
g68
(g89
g70
NtRp2196
(dp2197
g73
(dp2198
g93
g94
ssg82
g2192
sg75
(lp2199
g1147
asbag68
(g89
g70
NtRp2200
(dp2201
g73
(dp2202
g100
g101
ssg82
g2192
sg75
(lp2203
S':'
asbag68
(g89
g70
NtRp2204
(dp2205
g73
(dp2206
sg82
g2192
sg75
(lp2207
g68
(g69
g70
NtRp2208
(dp2209
g73
(dp2210
g81
I4
ssg82
g2204
sg75
(lp2211
g111
asbasbasbag68
(g84
g70
NtRp2212
(dp2213
g73
(dp2214
sg82
g2081
sg75
(lp2215
g68
(g89
g70
NtRp2216
(dp2217
g73
(dp2218
g93
g94
ssg82
g2212
sg75
(lp2219
g1168
asbag68
(g89
g70
NtRp2220
(dp2221
g73
(dp2222
g100
g101
ssg82
g2212
sg75
(lp2223
S':'
asbag68
(g89
g70
NtRp2224
(dp2225
g73
(dp2226
sg82
g2212
sg75
(lp2227
g68
(g69
g70
NtRp2228
(dp2229
g73
(dp2230
g81
I4
ssg82
g2224
sg75
(lp2231
g1181
asbasbasbag68
(g84
g70
NtRp2232
(dp2233
g73
(dp2234
sg82
g2081
sg75
(lp2235
g68
(g89
g70
NtRp2236
(dp2237
g73
(dp2238
g93
g94
ssg82
g2232
sg75
(lp2239
g1366
asbag68
(g89
g70
NtRp2240
(dp2241
g73
(dp2242
g100
g101
ssg82
g2232
sg75
(lp2243
S':'
asbag68
(g89
g70
NtRp2244
(dp2245
g73
(dp2246
sg82
g2232
sg75
(lp2247
g68
(g69
g70
NtRp2248
(dp2249
g73
(dp2250
g81
I4
ssg82
g2244
sg75
(lp2251
g111
asbasbasbag68
(g84
g70
NtRp2252
(dp2253
g73
(dp2254
sg82
g2081
sg75
(lp2255
g68
(g89
g70
NtRp2256
(dp2257
g73
(dp2258
g93
g94
ssg82
g2252
sg75
(lp2259
g1387
asbag68
(g89
g70
NtRp2260
(dp2261
g73
(dp2262
g100
g101
ssg82
g2252
sg75
(lp2263
S':'
asbag68
(g89
g70
NtRp2264
(dp2265
g73
(dp2266
sg82
g2252
sg75
(lp2267
g68
(g69
g70
NtRp2268
(dp2269
g73
(dp2270
g81
I4
ssg82
g2264
sg75
(lp2271
g111
asbasbasbag68
(g84
g70
NtRp2272
(dp2273
g73
(dp2274
sg82
g2081
sg75
(lp2275
g68
(g89
g70
NtRp2276
(dp2277
g73
(dp2278
g93
g94
ssg82
g2272
sg75
(lp2279
g1689
asbag68
(g89
g70
NtRp2280
(dp2281
g73
(dp2282
g100
g101
ssg82
g2272
sg75
(lp2283
S':'
asbag68
(g89
g70
NtRp2284
(dp2285
g73
(dp2286
sg82
g2272
sg75
(lp2287
g68
(g69
g70
NtRp2288
(dp2289
g73
(dp2290
g81
I4
ssg82
g2284
sg75
(lp2291
g68
(g77
g70
NtRp2292
(dp2293
g73
(dp2294
g81
I3
ssg82
Nsg75
(lp2295
g68
(g84
g70
NtRp2296
(dp2297
g73
(dp2298
sg82
g2292
sg75
(lp2299
g68
(g89
g70
NtRp2300
(dp2301
g73
(dp2302
sg82
g2296
sg75
(lp2303
g68
(g69
g70
NtRp2304
(dp2305
g73
(dp2306
g81
I3
ssg82
g2300
sg75
(lp2307
S'2'
asbasbasbag68
(g84
g70
NtRp2308
(dp2309
g73
(dp2310
sg82
g2292
sg75
(lp2311
g68
(g89
g70
NtRp2312
(dp2313
g73
(dp2314
sg82
g2308
sg75
(lp2315
g68
(g69
g70
NtRp2316
(dp2317
g73
(dp2318
g81
I3
ssg82
g2312
sg75
(lp2319
S'0'
asbasbasbag68
(g84
g70
NtRp2320
(dp2321
g73
(dp2322
sg82
g2292
sg75
(lp2323
g68
(g89
g70
NtRp2324
(dp2325
g73
(dp2326
sg82
g2320
sg75
(lp2327
g68
(g69
g70
NtRp2328
(dp2329
g73
(dp2330
g81
I3
ssg82
g2324
sg75
(lp2331
S'0'
asbasbasbag68
(g84
g70
NtRp2332
(dp2333
g73
(dp2334
sg82
g2292
sg75
(lp2335
g68
(g89
g70
NtRp2336
(dp2337
g73
(dp2338
sg82
g2332
sg75
(lp2339
g68
(g69
g70
NtRp2340
(dp2341
g73
(dp2342
g81
I3
ssg82
g2336
sg75
(lp2343
S'datetime.datetime(2012, 8, 10, 13, 1, 31)'
p2344
asbasbasbag68
(g84
g70
NtRp2345
(dp2346
g73
(dp2347
sg82
g2292
sg75
(lp2348
g68
(g89
g70
NtRp2349
(dp2350
g73
(dp2351
sg82
g2345
sg75
(lp2352
g68
(g69
g70
NtRp2353
(dp2354
g73
(dp2355
g81
I3
ssg82
g2349
sg75
(lp2356
g1767
asbasbasbasbasbasbasbasbasbasbasbag68
(g84
g70
NtRp2357
(dp2358
g73
(dp2359
sg82
g78
sg75
(lp2360
g68
(g89
g70
NtRp2361
(dp2362
g73
(dp2363
g93
g94
ssg82
g2357
sg75
(lp2364
S'is_https'
p2365
asbag68
(g89
g70
NtRp2366
(dp2367
g73
(dp2368
g100
g101
ssg82
g2357
sg75
(lp2369
S':'
asbag68
(g89
g70
NtRp2370
(dp2371
g73
(dp2372
sg82
g2357
sg75
(lp2373
g68
(g69
g70
NtRp2374
(dp2375
g73
(dp2376
g81
I5
ssg82
g2370
sg75
(lp2377
g111
asbasbasbag68
(g84
g70
NtRp2378
(dp2379
g73
(dp2380
sg82
g78
sg75
(lp2381
g68
(g89
g70
NtRp2382
(dp2383
g73
(dp2384
g93
g94
ssg82
g2378
sg75
(lp2385
S'is_local'
p2386
asbag68
(g89
g70
NtRp2387
(dp2388
g73
(dp2389
g100
g101
ssg82
g2378
sg75
(lp2390
S':'
asbag68
(g89
g70
NtRp2391
(dp2392
g73
(dp2393
sg82
g2378
sg75
(lp2394
g68
(g69
g70
NtRp2395
(dp2396
g73
(dp2397
g81
I5
ssg82
g2391
sg75
(lp2398
g1876
asbasbasbag68
(g84
g70
NtRp2399
(dp2400
g73
(dp2401
sg82
g78
sg75
(lp2402
g68
(g89
g70
NtRp2403
(dp2404
g73
(dp2405
g93
g94
ssg82
g2399
sg75
(lp2406
S'is_restful'
p2407
asbag68
(g89
g70
NtRp2408
(dp2409
g73
(dp2410
g100
g101
ssg82
g2399
sg75
(lp2411
S':'
asbag68
(g89
g70
NtRp2412
(dp2413
g73
(dp2414
sg82
g2399
sg75
(lp2415
g68
(g69
g70
NtRp2416
(dp2417
g73
(dp2418
g81
I5
ssg82
g2412
sg75
(lp2419
g111
asbasbasbag68
(g84
g70
NtRp2420
(dp2421
g73
(dp2422
sg82
g78
sg75
(lp2423
g68
(g89
g70
NtRp2424
(dp2425
g73
(dp2426
g93
g94
ssg82
g2420
sg75
(lp2427
S'now'
p2428
asbag68
(g89
g70
NtRp2429
(dp2430
g73
(dp2431
g100
g101
ssg82
g2420
sg75
(lp2432
S':'
asbag68
(g89
g70
NtRp2433
(dp2434
g73
(dp2435
sg82
g2420
sg75
(lp2436
g68
(g69
g70
NtRp2437
(dp2438
g73
(dp2439
g81
I5
ssg82
g2433
sg75
(lp2440
S'datetime.datetime(2012, 8, 12, 14, 30, 14, 18000)'
p2441
asbasbasbag68
(g84
g70
NtRp2442
(dp2443
g73
(dp2444
sg82
g78
sg75
(lp2445
g68
(g89
g70
NtRp2446
(dp2447
g73
(dp2448
g93
g94
ssg82
g2442
sg75
(lp2449
S'post_vars'
p2450
asbag68
(g89
g70
NtRp2451
(dp2452
g73
(dp2453
g100
g101
ssg82
g2442
sg75
(lp2454
S':'
asbag68
(g89
g70
NtRp2455
(dp2456
g73
(dp2457
sg82
g2442
sg75
(lp2458
g68
(g69
g70
NtRp2459
(dp2460
g73
(dp2461
g81
I5
ssg82
g2455
sg75
(lp2462
g68
(g77
g70
NtRp2463
(dp2464
g73
(dp2465
g81
I4
ssg82
Nsg75
(lp2466
sbasbasbasbag68
(g84
g70
NtRp2467
(dp2468
g73
(dp2469
sg82
g78
sg75
(lp2470
g68
(g89
g70
NtRp2471
(dp2472
g73
(dp2473
g93
g94
ssg82
g2467
sg75
(lp2474
S'url'
p2475
asbag68
(g89
g70
NtRp2476
(dp2477
g73
(dp2478
g100
g101
ssg82
g2467
sg75
(lp2479
S':'
asbag68
(g89
g70
NtRp2480
(dp2481
g73
(dp2482
sg82
g2467
sg75
(lp2483
g68
(g69
g70
NtRp2484
(dp2485
g73
(dp2486
g81
I5
ssg82
g2480
sg75
(lp2487
S'/product/new'
p2488
asbasbasbag68
(g84
g70
NtRp2489
(dp2490
g73
(dp2491
sg82
g78
sg75
(lp2492
g68
(g89
g70
NtRp2493
(dp2494
g73
(dp2495
g93
g94
ssg82
g2489
sg75
(lp2496
S'utcnow'
p2497
asbag68
(g89
g70
NtRp2498
(dp2499
g73
(dp2500
g100
g101
ssg82
g2489
sg75
(lp2501
S':'
asbag68
(g89
g70
NtRp2502
(dp2503
g73
(dp2504
sg82
g2489
sg75
(lp2505
g68
(g69
g70
NtRp2506
(dp2507
g73
(dp2508
g81
I5
ssg82
g2502
sg75
(lp2509
S'datetime.datetime(2012, 8, 12, 17, 30, 14, 18000)'
p2510
asbasbasbag68
(g84
g70
NtRp2511
(dp2512
g73
(dp2513
sg82
g78
sg75
(lp2514
g68
(g89
g70
NtRp2515
(dp2516
g73
(dp2517
g93
g94
ssg82
g2511
sg75
(lp2518
S'uuid'
p2519
asbag68
(g89
g70
NtRp2520
(dp2521
g73
(dp2522
g100
g101
ssg82
g2511
sg75
(lp2523
S':'
asbag68
(g89
g70
NtRp2524
(dp2525
g73
(dp2526
sg82
g2511
sg75
(lp2527
g68
(g69
g70
NtRp2528
(dp2529
g73
(dp2530
g81
I5
ssg82
g2524
sg75
(lp2531
S'ecommerce/127.0.0.1.2012-08-12.14-30-14.04a6b8c0-e1d8-4cbe-a6c8-5883e4123789'
p2532
asbasbasbag68
(g84
g70
NtRp2533
(dp2534
g73
(dp2535
sg82
g78
sg75
(lp2536
g68
(g89
g70
NtRp2537
(dp2538
g73
(dp2539
g93
g94
ssg82
g2533
sg75
(lp2540
S'vars'
p2541
asbag68
(g89
g70
NtRp2542
(dp2543
g73
(dp2544
g100
g101
ssg82
g2533
sg75
(lp2545
S':'
asbag68
(g89
g70
NtRp2546
(dp2547
g73
(dp2548
sg82
g2533
sg75
(lp2549
g68
(g69
g70
NtRp2550
(dp2551
g73
(dp2552
g81
I5
ssg82
g2546
sg75
(lp2553
g68
(g77
g70
NtRp2554
(dp2555
g73
(dp2556
g81
I4
ssg82
Nsg75
(lp2557
sbasbasbasbag68
(g84
g70
NtRp2558
(dp2559
g73
(dp2560
sg82
g78
sg75
(lp2561
g68
(g89
g70
NtRp2562
(dp2563
g73
(dp2564
g93
g94
ssg82
g2558
sg75
(lp2565
S'wsgi'
p2566
asbag68
(g89
g70
NtRp2567
(dp2568
g73
(dp2569
g100
g101
ssg82
g2558
sg75
(lp2570
S':'
asbag68
(g89
g70
NtRp2571
(dp2572
g73
(dp2573
sg82
g2558
sg75
(lp2574
g68
(g69
g70
NtRp2575
(dp2576
g73
(dp2577
g81
I5
ssg82
g2571
sg75
(lp2578
g68
(g77
g70
NtRp2579
(dp2580
g73
(dp2581
g81
I4
ssg82
Nsg75
(lp2582
g68
(g84
g70
NtRp2583
(dp2584
g73
(dp2585
sg82
g2579
sg75
(lp2586
g68
(g89
g70
NtRp2587
(dp2588
g73
(dp2589
g93
g94
ssg82
g2583
sg75
(lp2590
S'environ'
p2591
asbag68
(g89
g70
NtRp2592
(dp2593
g73
(dp2594
g100
g101
ssg82
g2583
sg75
(lp2595
S':'
asbag68
(g89
g70
NtRp2596
(dp2597
g73
(dp2598
sg82
g2583
sg75
(lp2599
g68
(g69
g70
NtRp2600
(dp2601
g73
(dp2602
g81
I4
ssg82
g2596
sg75
(lp2603
g68
(g77
g70
NtRp2604
(dp2605
g73
(dp2606
g81
I3
ssg82
Nsg75
(lp2607
g68
(g84
g70
NtRp2608
(dp2609
g73
(dp2610
sg82
g2604
sg75
(lp2611
g68
(g89
g70
NtRp2612
(dp2613
g73
(dp2614
g93
g94
ssg82
g2608
sg75
(lp2615
S'HTTP_ACCEPT'
p2616
asbag68
(g89
g70
NtRp2617
(dp2618
g73
(dp2619
g100
g101
ssg82
g2608
sg75
(lp2620
S':'
asbag68
(g89
g70
NtRp2621
(dp2622
g73
(dp2623
sg82
g2608
sg75
(lp2624
g68
(g69
g70
NtRp2625
(dp2626
g73
(dp2627
g81
I3
ssg82
g2621
sg75
(lp2628
g1203
asbasbasbag68
(g84
g70
NtRp2629
(dp2630
g73
(dp2631
sg82
g2604
sg75
(lp2632
g68
(g89
g70
NtRp2633
(dp2634
g73
(dp2635
g93
g94
ssg82
g2629
sg75
(lp2636
S'HTTP_ACCEPT_ENCODING'
p2637
asbag68
(g89
g70
NtRp2638
(dp2639
g73
(dp2640
g100
g101
ssg82
g2629
sg75
(lp2641
S':'
asbag68
(g89
g70
NtRp2642
(dp2643
g73
(dp2644
sg82
g2629
sg75
(lp2645
g68
(g69
g70
NtRp2646
(dp2647
g73
(dp2648
g81
I3
ssg82
g2642
sg75
(lp2649
g1225
asbasbasbag68
(g84
g70
NtRp2650
(dp2651
g73
(dp2652
sg82
g2604
sg75
(lp2653
g68
(g89
g70
NtRp2654
(dp2655
g73
(dp2656
g93
g94
ssg82
g2650
sg75
(lp2657
S'HTTP_ACCEPT_LANGUAGE'
p2658
asbag68
(g89
g70
NtRp2659
(dp2660
g73
(dp2661
g100
g101
ssg82
g2650
sg75
(lp2662
S':'
asbag68
(g89
g70
NtRp2663
(dp2664
g73
(dp2665
sg82
g2650
sg75
(lp2666
g68
(g69
g70
NtRp2667
(dp2668
g73
(dp2669
g81
I3
ssg82
g2663
sg75
(lp2670
g1247
asbasbasbag68
(g84
g70
NtRp2671
(dp2672
g73
(dp2673
sg82
g2604
sg75
(lp2674
g68
(g89
g70
NtRp2675
(dp2676
g73
(dp2677
g93
g94
ssg82
g2671
sg75
(lp2678
S'HTTP_CACHE_CONTROL'
p2679
asbag68
(g89
g70
NtRp2680
(dp2681
g73
(dp2682
g100
g101
ssg82
g2671
sg75
(lp2683
S':'
asbag68
(g89
g70
NtRp2684
(dp2685
g73
(dp2686
sg82
g2671
sg75
(lp2687
g68
(g69
g70
NtRp2688
(dp2689
g73
(dp2690
g81
I3
ssg82
g2684
sg75
(lp2691
g1269
asbasbasbag68
(g84
g70
NtRp2692
(dp2693
g73
(dp2694
sg82
g2604
sg75
(lp2695
g68
(g89
g70
NtRp2696
(dp2697
g73
(dp2698
g93
g94
ssg82
g2692
sg75
(lp2699
S'HTTP_CONNECTION'
p2700
asbag68
(g89
g70
NtRp2701
(dp2702
g73
(dp2703
g100
g101
ssg82
g2692
sg75
(lp2704
S':'
asbag68
(g89
g70
NtRp2705
(dp2706
g73
(dp2707
sg82
g2692
sg75
(lp2708
g68
(g69
g70
NtRp2709
(dp2710
g73
(dp2711
g81
I3
ssg82
g2705
sg75
(lp2712
g1291
asbasbasbag68
(g84
g70
NtRp2713
(dp2714
g73
(dp2715
sg82
g2604
sg75
(lp2716
g68
(g89
g70
NtRp2717
(dp2718
g73
(dp2719
g93
g94
ssg82
g2713
sg75
(lp2720
S'HTTP_COOKIE'
p2721
asbag68
(g89
g70
NtRp2722
(dp2723
g73
(dp2724
g100
g101
ssg82
g2713
sg75
(lp2725
S':'
asbag68
(g89
g70
NtRp2726
(dp2727
g73
(dp2728
sg82
g2713
sg75
(lp2729
g68
(g69
g70
NtRp2730
(dp2731
g73
(dp2732
g81
I3
ssg82
g2726
sg75
(lp2733
g1313
asbasbasbag68
(g84
g70
NtRp2734
(dp2735
g73
(dp2736
sg82
g2604
sg75
(lp2737
g68
(g89
g70
NtRp2738
(dp2739
g73
(dp2740
g93
g94
ssg82
g2734
sg75
(lp2741
S'HTTP_HOST'
p2742
asbag68
(g89
g70
NtRp2743
(dp2744
g73
(dp2745
g100
g101
ssg82
g2734
sg75
(lp2746
S':'
asbag68
(g89
g70
NtRp2747
(dp2748
g73
(dp2749
sg82
g2734
sg75
(lp2750
g68
(g69
g70
NtRp2751
(dp2752
g73
(dp2753
g81
I3
ssg82
g2747
sg75
(lp2754
g1335
asbasbasbag68
(g84
g70
NtRp2755
(dp2756
g73
(dp2757
sg82
g2604
sg75
(lp2758
g68
(g89
g70
NtRp2759
(dp2760
g73
(dp2761
g93
g94
ssg82
g2755
sg75
(lp2762
S'HTTP_USER_AGENT'
p2763
asbag68
(g89
g70
NtRp2764
(dp2765
g73
(dp2766
g100
g101
ssg82
g2755
sg75
(lp2767
S':'
asbag68
(g89
g70
NtRp2768
(dp2769
g73
(dp2770
sg82
g2755
sg75
(lp2771
g68
(g69
g70
NtRp2772
(dp2773
g73
(dp2774
g81
I3
ssg82
g2768
sg75
(lp2775
g1357
asbasbasbag68
(g84
g70
NtRp2776
(dp2777
g73
(dp2778
sg82
g2604
sg75
(lp2779
g68
(g89
g70
NtRp2780
(dp2781
g73
(dp2782
g93
g94
ssg82
g2776
sg75
(lp2783
S'PATH_INFO'
p2784
asbag68
(g89
g70
NtRp2785
(dp2786
g73
(dp2787
g100
g101
ssg82
g2776
sg75
(lp2788
S':'
asbag68
(g89
g70
NtRp2789
(dp2790
g73
(dp2791
sg82
g2776
sg75
(lp2792
g68
(g69
g70
NtRp2793
(dp2794
g73
(dp2795
g81
I3
ssg82
g2789
sg75
(lp2796
g1421
asbasbasbag68
(g84
g70
NtRp2797
(dp2798
g73
(dp2799
sg82
g2604
sg75
(lp2800
g68
(g89
g70
NtRp2801
(dp2802
g73
(dp2803
g93
g94
ssg82
g2797
sg75
(lp2804
S'QUERY_STRING'
p2805
asbag68
(g89
g70
NtRp2806
(dp2807
g73
(dp2808
g100
g101
ssg82
g2797
sg75
(lp2809
S':'
asbag68
(g89
g70
NtRp2810
(dp2811
g73
(dp2812
sg82
g2797
sg75
(lp2813
g68
(g69
g70
NtRp2814
(dp2815
g73
(dp2816
g81
I3
ssg82
g2810
sg75
(lp2817
S''
asbasbasbag68
(g84
g70
NtRp2818
(dp2819
g73
(dp2820
sg82
g2604
sg75
(lp2821
g68
(g89
g70
NtRp2822
(dp2823
g73
(dp2824
g93
g94
ssg82
g2818
sg75
(lp2825
S'REMOTE_ADDR'
p2826
asbag68
(g89
g70
NtRp2827
(dp2828
g73
(dp2829
g100
g101
ssg82
g2818
sg75
(lp2830
S':'
asbag68
(g89
g70
NtRp2831
(dp2832
g73
(dp2833
sg82
g2818
sg75
(lp2834
g68
(g69
g70
NtRp2835
(dp2836
g73
(dp2837
g81
I3
ssg82
g2831
sg75
(lp2838
g201
asbasbasbag68
(g84
g70
NtRp2839
(dp2840
g73
(dp2841
sg82
g2604
sg75
(lp2842
g68
(g89
g70
NtRp2843
(dp2844
g73
(dp2845
g93
g94
ssg82
g2839
sg75
(lp2846
S'REMOTE_PORT'
p2847
asbag68
(g89
g70
NtRp2848
(dp2849
g73
(dp2850
g100
g101
ssg82
g2839
sg75
(lp2851
S':'
asbag68
(g89
g70
NtRp2852
(dp2853
g73
(dp2854
sg82
g2839
sg75
(lp2855
g68
(g69
g70
NtRp2856
(dp2857
g73
(dp2858
g81
I3
ssg82
g2852
sg75
(lp2859
g1485
asbasbasbag68
(g84
g70
NtRp2860
(dp2861
g73
(dp2862
sg82
g2604
sg75
(lp2863
g68
(g89
g70
NtRp2864
(dp2865
g73
(dp2866
g93
g94
ssg82
g2860
sg75
(lp2867
S'REQUEST_METHOD'
p2868
asbag68
(g89
g70
NtRp2869
(dp2870
g73
(dp2871
g100
g101
ssg82
g2860
sg75
(lp2872
S':'
asbag68
(g89
g70
NtRp2873
(dp2874
g73
(dp2875
sg82
g2860
sg75
(lp2876
g68
(g69
g70
NtRp2877
(dp2878
g73
(dp2879
g81
I3
ssg82
g2873
sg75
(lp2880
g1507
asbasbasbag68
(g84
g70
NtRp2881
(dp2882
g73
(dp2883
sg82
g2604
sg75
(lp2884
g68
(g89
g70
NtRp2885
(dp2886
g73
(dp2887
g93
g94
ssg82
g2881
sg75
(lp2888
S'REQUEST_URI'
p2889
asbag68
(g89
g70
NtRp2890
(dp2891
g73
(dp2892
g100
g101
ssg82
g2881
sg75
(lp2893
S':'
asbag68
(g89
g70
NtRp2894
(dp2895
g73
(dp2896
sg82
g2881
sg75
(lp2897
g68
(g69
g70
NtRp2898
(dp2899
g73
(dp2900
g81
I3
ssg82
g2894
sg75
(lp2901
g1529
asbasbasbag68
(g84
g70
NtRp2902
(dp2903
g73
(dp2904
sg82
g2604
sg75
(lp2905
g68
(g89
g70
NtRp2906
(dp2907
g73
(dp2908
g93
g94
ssg82
g2902
sg75
(lp2909
S'SCRIPT_NAME'
p2910
asbag68
(g89
g70
NtRp2911
(dp2912
g73
(dp2913
g100
g101
ssg82
g2902
sg75
(lp2914
S':'
asbag68
(g89
g70
NtRp2915
(dp2916
g73
(dp2917
sg82
g2902
sg75
(lp2918
g68
(g69
g70
NtRp2919
(dp2920
g73
(dp2921
g81
I3
ssg82
g2915
sg75
(lp2922
S''
asbasbasbag68
(g84
g70
NtRp2923
(dp2924
g73
(dp2925
sg82
g2604
sg75
(lp2926
g68
(g89
g70
NtRp2927
(dp2928
g73
(dp2929
g93
g94
ssg82
g2923
sg75
(lp2930
S'SERVER_NAME'
p2931
asbag68
(g89
g70
NtRp2932
(dp2933
g73
(dp2934
g100
g101
ssg82
g2923
sg75
(lp2935
S':'
asbag68
(g89
g70
NtRp2936
(dp2937
g73
(dp2938
sg82
g2923
sg75
(lp2939
g68
(g69
g70
NtRp2940
(dp2941
g73
(dp2942
g81
I3
ssg82
g2936
sg75
(lp2943
g1572
asbasbasbag68
(g84
g70
NtRp2944
(dp2945
g73
(dp2946
sg82
g2604
sg75
(lp2947
g68
(g89
g70
NtRp2948
(dp2949
g73
(dp2950
g93
g94
ssg82
g2944
sg75
(lp2951
S'SERVER_PORT'
p2952
asbag68
(g89
g70
NtRp2953
(dp2954
g73
(dp2955
g100
g101
ssg82
g2944
sg75
(lp2956
S':'
asbag68
(g89
g70
NtRp2957
(dp2958
g73
(dp2959
sg82
g2944
sg75
(lp2960
g68
(g69
g70
NtRp2961
(dp2962
g73
(dp2963
g81
I3
ssg82
g2957
sg75
(lp2964
g1594
asbasbasbag68
(g84
g70
NtRp2965
(dp2966
g73
(dp2967
sg82
g2604
sg75
(lp2968
g68
(g89
g70
NtRp2969
(dp2970
g73
(dp2971
g93
g94
ssg82
g2965
sg75
(lp2972
S'SERVER_PROTOCOL'
p2973
asbag68
(g89
g70
NtRp2974
(dp2975
g73
(dp2976
g100
g101
ssg82
g2965
sg75
(lp2977
S':'
asbag68
(g89
g70
NtRp2978
(dp2979
g73
(dp2980
sg82
g2965
sg75
(lp2981
g68
(g69
g70
NtRp2982
(dp2983
g73
(dp2984
g81
I3
ssg82
g2978
sg75
(lp2985
g1616
asbasbasbag68
(g84
g70
NtRp2986
(dp2987
g73
(dp2988
sg82
g2604
sg75
(lp2989
g68
(g89
g70
NtRp2990
(dp2991
g73
(dp2992
g93
g94
ssg82
g2986
sg75
(lp2993
S'SERVER_SOFTWARE'
p2994
asbag68
(g89
g70
NtRp2995
(dp2996
g73
(dp2997
g100
g101
ssg82
g2986
sg75
(lp2998
S':'
asbag68
(g89
g70
NtRp2999
(dp3000
g73
(dp3001
sg82
g2986
sg75
(lp3002
g68
(g69
g70
NtRp3003
(dp3004
g73
(dp3005
g81
I3
ssg82
g2999
sg75
(lp3006
g1638
asbasbasbag68
(g84
g70
NtRp3007
(dp3008
g73
(dp3009
sg82
g2604
sg75
(lp3010
g68
(g89
g70
NtRp3011
(dp3012
g73
(dp3013
g93
g94
ssg82
g3007
sg75
(lp3014
S'WEB2PY_ORIGINAL_URI'
p3015
asbag68
(g89
g70
NtRp3016
(dp3017
g73
(dp3018
g100
g101
ssg82
g3007
sg75
(lp3019
S':'
asbag68
(g89
g70
NtRp3020
(dp3021
g73
(dp3022
sg82
g3007
sg75
(lp3023
g68
(g69
g70
NtRp3024
(dp3025
g73
(dp3026
g81
I3
ssg82
g3020
sg75
(lp3027
g1421
asbasbasbag68
(g84
g70
NtRp3028
(dp3029
g73
(dp3030
sg82
g2604
sg75
(lp3031
g68
(g89
g70
NtRp3032
(dp3033
g73
(dp3034
g93
g94
ssg82
g3028
sg75
(lp3035
S'wsgi.errors'
p3036
asbag68
(g89
g70
NtRp3037
(dp3038
g73
(dp3039
g100
g101
ssg82
g3028
sg75
(lp3040
S':'
asbag68
(g89
g70
NtRp3041
(dp3042
g73
(dp3043
sg82
g3028
sg75
(lp3044
g68
(g69
g70
NtRp3045
(dp3046
g73
(dp3047
g81
I3
ssg82
g3041
sg75
(lp3048
S"<open file '<stderr>', mode 'w' at 0x012750D0>"
p3049
asbasbasbag68
(g84
g70
NtRp3050
(dp3051
g73
(dp3052
sg82
g2604
sg75
(lp3053
g68
(g89
g70
NtRp3054
(dp3055
g73
(dp3056
g93
g94
ssg82
g3050
sg75
(lp3057
S'wsgi.file_wrapper'
p3058
asbag68
(g89
g70
NtRp3059
(dp3060
g73
(dp3061
g100
g101
ssg82
g3050
sg75
(lp3062
S':'
asbag68
(g89
g70
NtRp3063
(dp3064
g73
(dp3065
sg82
g3050
sg75
(lp3066
g68
(g69
g70
NtRp3067
(dp3068
g73
(dp3069
g81
I3
ssg82
g3063
sg75
(lp3070
S'<class wsgiref.util.FileWrapper at 0x02A383B0>'
p3071
asbasbasbag68
(g84
g70
NtRp3072
(dp3073
g73
(dp3074
sg82
g2604
sg75
(lp3075
g68
(g89
g70
NtRp3076
(dp3077
g73
(dp3078
g93
g94
ssg82
g3072
sg75
(lp3079
S'wsgi.input'
p3080
asbag68
(g89
g70
NtRp3081
(dp3082
g73
(dp3083
g100
g101
ssg82
g3072
sg75
(lp3084
S':'
asbag68
(g89
g70
NtRp3085
(dp3086
g73
(dp3087
sg82
g3072
sg75
(lp3088
g68
(g69
g70
NtRp3089
(dp3090
g73
(dp3091
g81
I3
ssg82
g3085
sg75
(lp3092
S'<cStringIO.StringO object at 0x05AC9F80>'
p3093
asbasbasbag68
(g84
g70
NtRp3094
(dp3095
g73
(dp3096
sg82
g2604
sg75
(lp3097
g68
(g89
g70
NtRp3098
(dp3099
g73
(dp3100
g93
g94
ssg82
g3094
sg75
(lp3101
S'wsgi.multiprocess'
p3102
asbag68
(g89
g70
NtRp3103
(dp3104
g73
(dp3105
g100
g101
ssg82
g3094
sg75
(lp3106
S':'
asbag68
(g89
g70
NtRp3107
(dp3108
g73
(dp3109
sg82
g3094
sg75
(lp3110
g68
(g69
g70
NtRp3111
(dp3112
g73
(dp3113
g81
I3
ssg82
g3107
sg75
(lp3114
g111
asbasbasbag68
(g84
g70
NtRp3115
(dp3116
g73
(dp3117
sg82
g2604
sg75
(lp3118
g68
(g89
g70
NtRp3119
(dp3120
g73
(dp3121
g93
g94
ssg82
g3115
sg75
(lp3122
S'wsgi.multithread'
p3123
asbag68
(g89
g70
NtRp3124
(dp3125
g73
(dp3126
g100
g101
ssg82
g3115
sg75
(lp3127
S':'
asbag68
(g89
g70
NtRp3128
(dp3129
g73
(dp3130
sg82
g3115
sg75
(lp3131
g68
(g69
g70
NtRp3132
(dp3133
g73
(dp3134
g81
I3
ssg82
g3128
sg75
(lp3135
g1876
asbasbasbag68
(g84
g70
NtRp3136
(dp3137
g73
(dp3138
sg82
g2604
sg75
(lp3139
g68
(g89
g70
NtRp3140
(dp3141
g73
(dp3142
g93
g94
ssg82
g3136
sg75
(lp3143
S'wsgi.run_once'
p3144
asbag68
(g89
g70
NtRp3145
(dp3146
g73
(dp3147
g100
g101
ssg82
g3136
sg75
(lp3148
S':'
asbag68
(g89
g70
NtRp3149
(dp3150
g73
(dp3151
sg82
g3136
sg75
(lp3152
g68
(g69
g70
NtRp3153
(dp3154
g73
(dp3155
g81
I3
ssg82
g3149
sg75
(lp3156
g111
asbasbasbag68
(g84
g70
NtRp3157
(dp3158
g73
(dp3159
sg82
g2604
sg75
(lp3160
g68
(g89
g70
NtRp3161
(dp3162
g73
(dp3163
g93
g94
ssg82
g3157
sg75
(lp3164
S'wsgi.url_scheme'
p3165
asbag68
(g89
g70
NtRp3166
(dp3167
g73
(dp3168
g100
g101
ssg82
g3157
sg75
(lp3169
S':'
asbag68
(g89
g70
NtRp3170
(dp3171
g73
(dp3172
sg82
g3157
sg75
(lp3173
g68
(g69
g70
NtRp3174
(dp3175
g73
(dp3176
g81
I3
ssg82
g3170
sg75
(lp3177
g1919
asbasbasbag68
(g84
g70
NtRp3178
(dp3179
g73
(dp3180
sg82
g2604
sg75
(lp3181
g68
(g89
g70
NtRp3182
(dp3183
g73
(dp3184
g93
g94
ssg82
g3178
sg75
(lp3185
S'wsgi.version'
p3186
asbag68
(g89
g70
NtRp3187
(dp3188
g73
(dp3189
g100
g101
ssg82
g3178
sg75
(lp3190
S':'
asbag68
(g89
g70
NtRp3191
(dp3192
g73
(dp3193
sg82
g3178
sg75
(lp3194
g68
(g69
g70
NtRp3195
(dp3196
g73
(dp3197
g81
I3
ssg82
g3191
sg75
(lp3198
S'1'
asbasbasbasbasbasbasbasbasbasbasbasbasbsS'frames'
p3199
(lp3200
(dp3201
S'file'
p3202
S'c:\\Users\\rochacbruno\\jul12\\cursojulho12\\web2py\\gluon\\restricted.py'
p3203
sS'dump'
p3204
(dp3205
S'code'
p3206
S"'\\ndef hide_fields(tablename, fields):\\n    for fie...         db.[tablename][field].readable = False  '"
p3207
sS'layer'
p3208
S"r'c:\\Users\\rochacbruno\\jul12\\cursojulho12\\web2py\\applications\\ecommerce\\models\\xfunctions.py'"
p3209
sS'global compile2'
p3210
S'<function compile2>'
p3211
sS'ccode'
p3212
S'undefined'
p3213
ssS'lnum'
p3214
I204
sS'lines'
p3215
(dp3216
I199
S"    environment['__name__'] = '__restricted__'"
p3217
sI200
S'    try:'
p3218
sI201
S'        if type(code) == types.CodeType:'
p3219
sI202
S'            ccode = code'
p3220
sI203
S'        else:'
p3221
sI204
S'            ccode = compile2(code,layer)'
p3222
sI205
S'        exec ccode in environment'
p3223
sI206
S'    except HTTP:'
p3224
sI207
S'        raise'
p3225
sI208
S'    except RestrictedError:'
p3226
ssS'call'
p3227
S"(code='\\ndef hide_fields(tablename, fields):\\n    for fie...         db.[tablename][field].readable = False  ', environment={'A': <class 'gluon.html.A'>, 'Auth': <class 'gluon.tools.Auth'>, 'B': <class 'gluon.html.B'>, 'BEAUTIFY': <class 'gluon.html.BEAUTIFY'>, 'BODY': <class 'gluon.html.BODY'>, 'BR': <class 'gluon.html.BR'>, 'BUTTON': <class 'gluon.html.BUTTON'>, 'CAT': <class 'gluon.html.CAT'>, 'CENTER': <class 'gluon.html.CENTER'>, 'CLEANUP': <class 'gluon.validators.CLEANUP'>, ...}, layer=r'c:\\Users\\rochacbruno\\jul12\\cursojulho12\\web2py\\applications\\ecommerce\\models\\xfunctions.py')"
p3228
sS'func'
p3229
S'restricted'
p3230
sa(dp3231
g3202
S'c:\\Users\\rochacbruno\\jul12\\cursojulho12\\web2py\\gluon\\restricted.py'
p3232
sg3204
(dp3233
S'builtincompile'
p3234
S'<built-in function compile>'
p3235
sS'code'
p3236
S"'\\ndef hide_fields(tablename, fields):\\n    for fie...         db.[tablename][field].readable = False  '"
p3237
sS'code.rstrip'
p3238
S'<built-in method rstrip of str object>'
p3239
sS').replace'
p3240
g3213
sS'layer'
p3241
S"r'c:\\Users\\rochacbruno\\jul12\\cursojulho12\\web2py\\applications\\ecommerce\\models\\xfunctions.py'"
p3242
ssg3214
I189
sg3215
(dp3243
I192
S'    """'
p3244
sI193
S'    runs code in environment and returns the output. if an exception occurs'
p3245
sI184
S''
sI185
S'def compile2(code,layer):'
p3246
sI186
S'    """'
p3247
sI187
S"    The +'\\n' is necessary else compile fails when code ends in a comment."
p3248
sI188
S'    """'
p3249
sI189
S"    return compile(code.rstrip().replace('\\r\\n','\\n')+'\\n', layer, 'exec')"
p3250
sI190
S''
sI191
S"def restricted(code, environment=None, layer='Unknown'):"
p3251
ssg3227
S"(code='\\ndef hide_fields(tablename, fields):\\n    for fie...         db.[tablename][field].readable = False  ', layer=r'c:\\Users\\rochacbruno\\jul12\\cursojulho12\\web2py\\applications\\ecommerce\\models\\xfunctions.py')"
p3252
sg3229
S'compile2'
p3253
sasS'pyver'
p3254
S'Python 2.7.2: c:\\Python27\\python.exe'
p3255
sS'session'
p3256
g68
(g69
g70
NtRp3257
(dp3258
g73
(dp3259
sg75
(lp3260
g68
(g77
g70
NtRp3261
(dp3262
g73
(dp3263
g81
I5
ssg82
Nsg75
(lp3264
g68
(g84
g70
NtRp3265
(dp3266
g73
(dp3267
sg82
g3261
sg75
(lp3268
g68
(g89
g70
NtRp3269
(dp3270
g73
(dp3271
g93
g94
ssg82
g3265
sg75
(lp3272
S'auth'
p3273
asbag68
(g89
g70
NtRp3274
(dp3275
g73
(dp3276
g100
g101
ssg82
g3265
sg75
(lp3277
S':'
asbag68
(g89
g70
NtRp3278
(dp3279
g73
(dp3280
sg82
g3265
sg75
(lp3281
g68
(g69
g70
NtRp3282
(dp3283
g73
(dp3284
g81
I5
ssg82
g3278
sg75
(lp3285
g68
(g77
g70
NtRp3286
(dp3287
g73
(dp3288
g81
I4
ssg82
Nsg75
(lp3289
g68
(g84
g70
NtRp3290
(dp3291
g73
(dp3292
sg82
g3286
sg75
(lp3293
g68
(g89
g70
NtRp3294
(dp3295
g73
(dp3296
g93
g94
ssg82
g3290
sg75
(lp3297
S'expiration'
p3298
asbag68
(g89
g70
NtRp3299
(dp3300
g73
(dp3301
g100
g101
ssg82
g3290
sg75
(lp3302
S':'
asbag68
(g89
g70
NtRp3303
(dp3304
g73
(dp3305
sg82
g3290
sg75
(lp3306
g68
(g69
g70
NtRp3307
(dp3308
g73
(dp3309
g81
I4
ssg82
g3303
sg75
(lp3310
S'3600'
p3311
asbasbasbag68
(g84
g70
NtRp3312
(dp3313
g73
(dp3314
sg82
g3286
sg75
(lp3315
g68
(g89
g70
NtRp3316
(dp3317
g73
(dp3318
g93
g94
ssg82
g3312
sg75
(lp3319
S'hmac_key'
p3320
asbag68
(g89
g70
NtRp3321
(dp3322
g73
(dp3323
g100
g101
ssg82
g3312
sg75
(lp3324
S':'
asbag68
(g89
g70
NtRp3325
(dp3326
g73
(dp3327
sg82
g3312
sg75
(lp3328
g68
(g69
g70
NtRp3329
(dp3330
g73
(dp3331
g81
I4
ssg82
g3325
sg75
(lp3332
S'63a937a8-9f01-4792-8c24-d994a9b0248c'
p3333
asbasbasbag68
(g84
g70
NtRp3334
(dp3335
g73
(dp3336
sg82
g3286
sg75
(lp3337
g68
(g89
g70
NtRp3338
(dp3339
g73
(dp3340
g93
g94
ssg82
g3334
sg75
(lp3341
S'last_visit'
p3342
asbag68
(g89
g70
NtRp3343
(dp3344
g73
(dp3345
g100
g101
ssg82
g3334
sg75
(lp3346
S':'
asbag68
(g89
g70
NtRp3347
(dp3348
g73
(dp3349
sg82
g3334
sg75
(lp3350
g68
(g69
g70
NtRp3351
(dp3352
g73
(dp3353
g81
I4
ssg82
g3347
sg75
(lp3354
S'datetime.datetime(2012, 8, 12, 14, 24, 47, 658000)'
p3355
asbasbasbag68
(g84
g70
NtRp3356
(dp3357
g73
(dp3358
sg82
g3286
sg75
(lp3359
g68
(g89
g70
NtRp3360
(dp3361
g73
(dp3362
g93
g94
ssg82
g3356
sg75
(lp3363
S'remember'
p3364
asbag68
(g89
g70
NtRp3365
(dp3366
g73
(dp3367
g100
g101
ssg82
g3356
sg75
(lp3368
S':'
asbag68
(g89
g70
NtRp3369
(dp3370
g73
(dp3371
sg82
g3356
sg75
(lp3372
g68
(g69
g70
NtRp3373
(dp3374
g73
(dp3375
g81
I4
ssg82
g3369
sg75
(lp3376
g111
asbasbasbag68
(g84
g70
NtRp3377
(dp3378
g73
(dp3379
sg82
g3286
sg75
(lp3380
g68
(g89
g70
NtRp3381
(dp3382
g73
(dp3383
g93
g94
ssg82
g3377
sg75
(lp3384
S'user'
p3385
asbag68
(g89
g70
NtRp3386
(dp3387
g73
(dp3388
g100
g101
ssg82
g3377
sg75
(lp3389
S':'
asbag68
(g89
g70
NtRp3390
(dp3391
g73
(dp3392
sg82
g3377
sg75
(lp3393
g68
(g69
g70
NtRp3394
(dp3395
g73
(dp3396
g81
I4
ssg82
g3390
sg75
(lp3397
g68
(g77
g70
NtRp3398
(dp3399
g73
(dp3400
g81
I3
ssg82
Nsg75
(lp3401
g68
(g84
g70
NtRp3402
(dp3403
g73
(dp3404
sg82
g3398
sg75
(lp3405
g68
(g89
g70
NtRp3406
(dp3407
g73
(dp3408
g93
g94
ssg82
g3402
sg75
(lp3409
S'address'
p3410
asbag68
(g89
g70
NtRp3411
(dp3412
g73
(dp3413
g100
g101
ssg82
g3402
sg75
(lp3414
S':'
asbag68
(g89
g70
NtRp3415
(dp3416
g73
(dp3417
sg82
g3402
sg75
(lp3418
g68
(g69
g70
NtRp3419
(dp3420
g73
(dp3421
g81
I3
ssg82
g3415
sg75
(lp3422
S'None'
p3423
asbasbasbag68
(g84
g70
NtRp3424
(dp3425
g73
(dp3426
sg82
g3398
sg75
(lp3427
g68
(g89
g70
NtRp3428
(dp3429
g73
(dp3430
g93
g94
ssg82
g3424
sg75
(lp3431
S'email'
p3432
asbag68
(g89
g70
NtRp3433
(dp3434
g73
(dp3435
g100
g101
ssg82
g3424
sg75
(lp3436
S':'
asbag68
(g89
g70
NtRp3437
(dp3438
g73
(dp3439
sg82
g3424
sg75
(lp3440
g68
(g69
g70
NtRp3441
(dp3442
g73
(dp3443
g81
I3
ssg82
g3437
sg75
(lp3444
S'master@master.com'
p3445
asbasbasbag68
(g84
g70
NtRp3446
(dp3447
g73
(dp3448
sg82
g3398
sg75
(lp3449
g68
(g89
g70
NtRp3450
(dp3451
g73
(dp3452
g93
g94
ssg82
g3446
sg75
(lp3453
S'first_name'
p3454
asbag68
(g89
g70
NtRp3455
(dp3456
g73
(dp3457
g100
g101
ssg82
g3446
sg75
(lp3458
S':'
asbag68
(g89
g70
NtRp3459
(dp3460
g73
(dp3461
sg82
g3446
sg75
(lp3462
g68
(g69
g70
NtRp3463
(dp3464
g73
(dp3465
g81
I3
ssg82
g3459
sg75
(lp3466
S'Admin'
p3467
asbasbasbag68
(g84
g70
NtRp3468
(dp3469
g73
(dp3470
sg82
g3398
sg75
(lp3471
g68
(g89
g70
NtRp3472
(dp3473
g73
(dp3474
g93
g94
ssg82
g3468
sg75
(lp3475
S'house_number'
p3476
asbag68
(g89
g70
NtRp3477
(dp3478
g73
(dp3479
g100
g101
ssg82
g3468
sg75
(lp3480
S':'
asbag68
(g89
g70
NtRp3481
(dp3482
g73
(dp3483
sg82
g3468
sg75
(lp3484
g68
(g69
g70
NtRp3485
(dp3486
g73
(dp3487
g81
I3
ssg82
g3481
sg75
(lp3488
S'None'
p3489
asbasbasbag68
(g84
g70
NtRp3490
(dp3491
g73
(dp3492
sg82
g3398
sg75
(lp3493
g68
(g89
g70
NtRp3494
(dp3495
g73
(dp3496
g93
g94
ssg82
g3490
sg75
(lp3497
S'id'
p3498
asbag68
(g89
g70
NtRp3499
(dp3500
g73
(dp3501
g100
g101
ssg82
g3490
sg75
(lp3502
S':'
asbag68
(g89
g70
NtRp3503
(dp3504
g73
(dp3505
sg82
g3490
sg75
(lp3506
g68
(g69
g70
NtRp3507
(dp3508
g73
(dp3509
g81
I3
ssg82
g3503
sg75
(lp3510
S'2'
asbasbasbag68
(g84
g70
NtRp3511
(dp3512
g73
(dp3513
sg82
g3398
sg75
(lp3514
g68
(g89
g70
NtRp3515
(dp3516
g73
(dp3517
g93
g94
ssg82
g3511
sg75
(lp3518
S'last_name'
p3519
asbag68
(g89
g70
NtRp3520
(dp3521
g73
(dp3522
g100
g101
ssg82
g3511
sg75
(lp3523
S':'
asbag68
(g89
g70
NtRp3524
(dp3525
g73
(dp3526
sg82
g3511
sg75
(lp3527
g68
(g69
g70
NtRp3528
(dp3529
g73
(dp3530
g81
I3
ssg82
g3524
sg75
(lp3531
S'master'
p3532
asbasbasbag68
(g84
g70
NtRp3533
(dp3534
g73
(dp3535
sg82
g3398
sg75
(lp3536
g68
(g89
g70
NtRp3537
(dp3538
g73
(dp3539
g93
g94
ssg82
g3533
sg75
(lp3540
S'password'
p3541
asbag68
(g89
g70
NtRp3542
(dp3543
g73
(dp3544
g100
g101
ssg82
g3533
sg75
(lp3545
S':'
asbag68
(g89
g70
NtRp3546
(dp3547
g73
(dp3548
sg82
g3533
sg75
(lp3549
g68
(g69
g70
NtRp3550
(dp3551
g73
(dp3552
g81
I3
ssg82
g3546
sg75
(lp3553
S'pbkdf2(1000,20,sha512)$a5f0acb20841d038$5d8b88bd859e468ea3d1aa85d81fdffda64de5b5'
p3554
asbasbasbag68
(g84
g70
NtRp3555
(dp3556
g73
(dp3557
sg82
g3398
sg75
(lp3558
g68
(g89
g70
NtRp3559
(dp3560
g73
(dp3561
g93
g94
ssg82
g3555
sg75
(lp3562
S'picture'
p3563
asbag68
(g89
g70
NtRp3564
(dp3565
g73
(dp3566
g100
g101
ssg82
g3555
sg75
(lp3567
S':'
asbag68
(g89
g70
NtRp3568
(dp3569
g73
(dp3570
sg82
g3555
sg75
(lp3571
g68
(g69
g70
NtRp3572
(dp3573
g73
(dp3574
g81
I3
ssg82
g3568
sg75
(lp3575
S'None'
p3576
asbasbasbag68
(g84
g70
NtRp3577
(dp3578
g73
(dp3579
sg82
g3398
sg75
(lp3580
g68
(g89
g70
NtRp3581
(dp3582
g73
(dp3583
g93
g94
ssg82
g3577
sg75
(lp3584
S'registration_id'
p3585
asbag68
(g89
g70
NtRp3586
(dp3587
g73
(dp3588
g100
g101
ssg82
g3577
sg75
(lp3589
S':'
asbag68
(g89
g70
NtRp3590
(dp3591
g73
(dp3592
sg82
g3577
sg75
(lp3593
g68
(g69
g70
NtRp3594
(dp3595
g73
(dp3596
g81
I3
ssg82
g3590
sg75
(lp3597
S''
asbasbasbag68
(g84
g70
NtRp3598
(dp3599
g73
(dp3600
sg82
g3398
sg75
(lp3601
g68
(g89
g70
NtRp3602
(dp3603
g73
(dp3604
g93
g94
ssg82
g3598
sg75
(lp3605
S'registration_key'
p3606
asbag68
(g89
g70
NtRp3607
(dp3608
g73
(dp3609
g100
g101
ssg82
g3598
sg75
(lp3610
S':'
asbag68
(g89
g70
NtRp3611
(dp3612
g73
(dp3613
sg82
g3598
sg75
(lp3614
g68
(g69
g70
NtRp3615
(dp3616
g73
(dp3617
g81
I3
ssg82
g3611
sg75
(lp3618
S''
asbasbasbag68
(g84
g70
NtRp3619
(dp3620
g73
(dp3621
sg82
g3398
sg75
(lp3622
g68
(g89
g70
NtRp3623
(dp3624
g73
(dp3625
g93
g94
ssg82
g3619
sg75
(lp3626
S'reset_password_key'
p3627
asbag68
(g89
g70
NtRp3628
(dp3629
g73
(dp3630
g100
g101
ssg82
g3619
sg75
(lp3631
S':'
asbag68
(g89
g70
NtRp3632
(dp3633
g73
(dp3634
sg82
g3619
sg75
(lp3635
g68
(g69
g70
NtRp3636
(dp3637
g73
(dp3638
g81
I3
ssg82
g3632
sg75
(lp3639
S''
asbasbasbag68
(g84
g70
NtRp3640
(dp3641
g73
(dp3642
sg82
g3398
sg75
(lp3643
g68
(g89
g70
NtRp3644
(dp3645
g73
(dp3646
g93
g94
ssg82
g3640
sg75
(lp3647
S'zipcode'
p3648
asbag68
(g89
g70
NtRp3649
(dp3650
g73
(dp3651
g100
g101
ssg82
g3640
sg75
(lp3652
S':'
asbag68
(g89
g70
NtRp3653
(dp3654
g73
(dp3655
sg82
g3640
sg75
(lp3656
g68
(g69
g70
NtRp3657
(dp3658
g73
(dp3659
g81
I3
ssg82
g3653
sg75
(lp3660
S'None'
p3661
asbasbasbasbasbasbasbag68
(g84
g70
NtRp3662
(dp3663
g73
(dp3664
sg82
g3286
sg75
(lp3665
g68
(g89
g70
NtRp3666
(dp3667
g73
(dp3668
g93
g94
ssg82
g3662
sg75
(lp3669
S'user_groups'
p3670
asbag68
(g89
g70
NtRp3671
(dp3672
g73
(dp3673
g100
g101
ssg82
g3662
sg75
(lp3674
S':'
asbag68
(g89
g70
NtRp3675
(dp3676
g73
(dp3677
sg82
g3662
sg75
(lp3678
g68
(g69
g70
NtRp3679
(dp3680
g73
(dp3681
g81
I4
ssg82
g3675
sg75
(lp3682
g68
(g77
g70
NtRp3683
(dp3684
g73
(dp3685
g81
I3
ssg82
Nsg75
(lp3686
g68
(g84
g70
NtRp3687
(dp3688
g73
(dp3689
sg82
g3683
sg75
(lp3690
g68
(g89
g70
NtRp3691
(dp3692
g73
(dp3693
g93
g94
ssg82
g3687
sg75
(lp3694
S'2'
asbag68
(g89
g70
NtRp3695
(dp3696
g73
(dp3697
g100
g101
ssg82
g3687
sg75
(lp3698
S':'
asbag68
(g89
g70
NtRp3699
(dp3700
g73
(dp3701
sg82
g3687
sg75
(lp3702
g68
(g69
g70
NtRp3703
(dp3704
g73
(dp3705
g81
I3
ssg82
g3699
sg75
(lp3706
S'user_2'
p3707
asbasbasbag68
(g84
g70
NtRp3708
(dp3709
g73
(dp3710
sg82
g3683
sg75
(lp3711
g68
(g89
g70
NtRp3712
(dp3713
g73
(dp3714
g93
g94
ssg82
g3708
sg75
(lp3715
S'3'
asbag68
(g89
g70
NtRp3716
(dp3717
g73
(dp3718
g100
g101
ssg82
g3708
sg75
(lp3719
S':'
asbag68
(g89
g70
NtRp3720
(dp3721
g73
(dp3722
sg82
g3708
sg75
(lp3723
g68
(g69
g70
NtRp3724
(dp3725
g73
(dp3726
g81
I3
ssg82
g3720
sg75
(lp3727
S'admin'
p3728
asbasbasbasbasbasbasbasbasbasbasbag68
(g84
g70
NtRp3729
(dp3730
g73
(dp3731
sg82
g3261
sg75
(lp3732
g68
(g89
g70
NtRp3733
(dp3734
g73
(dp3735
g93
g94
ssg82
g3729
sg75
(lp3736
S'last_query'
p3737
asbag68
(g89
g70
NtRp3738
(dp3739
g73
(dp3740
g100
g101
ssg82
g3729
sg75
(lp3741
S':'
asbag68
(g89
g70
NtRp3742
(dp3743
g73
(dp3744
sg82
g3729
sg75
(lp3745
g68
(g69
g70
NtRp3746
(dp3747
g73
(dp3748
g81
I5
ssg82
g3742
sg75
(lp3749
S'db.auth_membership.id>0'
p3750
asbasbasbasbasbsS'etype'
p3751
S"<type 'exceptions.SyntaxError'>"
p3752
sS'date'
p3753
S'Sun Aug 12 14:30:14 2012'
p3754
sS'response'
p3755
g68
(g69
g70
NtRp3756
(dp3757
g73
(dp3758
sg75
(lp3759
g68
(g77
g70
NtRp3760
(dp3761
g73
(dp3762
g81
I5
ssg82
Nsg75
(lp3763
g68
(g84
g70
NtRp3764
(dp3765
g73
(dp3766
sg82
g3760
sg75
(lp3767
g68
(g89
g70
NtRp3768
(dp3769
g73
(dp3770
g93
g94
ssg82
g3764
sg75
(lp3771
g166
asbag68
(g89
g70
NtRp3772
(dp3773
g73
(dp3774
g100
g101
ssg82
g3764
sg75
(lp3775
S':'
asbag68
(g89
g70
NtRp3776
(dp3777
g73
(dp3778
sg82
g3764
sg75
(lp3779
g68
(g69
g70
NtRp3780
(dp3781
g73
(dp3782
g81
I5
ssg82
g3776
sg75
(lp3783
S'<cStringIO.StringO object at 0x05CCC280>'
p3784
asbasbasbag68
(g84
g70
NtRp3785
(dp3786
g73
(dp3787
sg82
g3760
sg75
(lp3788
g68
(g89
g70
NtRp3789
(dp3790
g73
(dp3791
g93
g94
ssg82
g3785
sg75
(lp3792
g232
asbag68
(g89
g70
NtRp3793
(dp3794
g73
(dp3795
g100
g101
ssg82
g3785
sg75
(lp3796
S':'
asbag68
(g89
g70
NtRp3797
(dp3798
g73
(dp3799
sg82
g3785
sg75
(lp3800
g68
(g69
g70
NtRp3801
(dp3802
g73
(dp3803
g81
I5
ssg82
g3797
sg75
(lp3804
g68
(g77
g70
NtRp3805
(dp3806
g73
(dp3807
g81
I4
ssg82
Nsg75
(lp3808
g68
(g84
g70
NtRp3809
(dp3810
g73
(dp3811
sg82
g3805
sg75
(lp3812
g68
(g89
g70
NtRp3813
(dp3814
g73
(dp3815
g93
g94
ssg82
g3809
sg75
(lp3816
S'session_id_ecommerce'
p3817
asbag68
(g89
g70
NtRp3818
(dp3819
g73
(dp3820
g100
g101
ssg82
g3809
sg75
(lp3821
S':'
asbag68
(g89
g70
NtRp3822
(dp3823
g73
(dp3824
sg82
g3809
sg75
(lp3825
g68
(g69
g70
NtRp3826
(dp3827
g73
(dp3828
g81
I4
ssg82
g3822
sg75
(lp3829
g464
ag68
(g77
g70
NtRp3830
(dp3831
g73
(dp3832
g81
I3
ssg82
Nsg75
(lp3833
g68
(g84
g70
NtRp3834
(dp3835
g73
(dp3836
sg82
g3830
sg75
(lp3837
g68
(g89
g70
NtRp3838
(dp3839
g73
(dp3840
g93
g94
ssg82
g3834
sg75
(lp3841
g283
asbag68
(g89
g70
NtRp3842
(dp3843
g73
(dp3844
g100
g101
ssg82
g3834
sg75
(lp3845
S':'
asbag68
(g89
g70
NtRp3846
(dp3847
g73
(dp3848
sg82
g3834
sg75
(lp3849
g68
(g69
g70
NtRp3850
(dp3851
g73
(dp3852
g81
I3
ssg82
g3846
sg75
(lp3853
S''
asbasbasbag68
(g84
g70
NtRp3854
(dp3855
g73
(dp3856
sg82
g3830
sg75
(lp3857
g68
(g89
g70
NtRp3858
(dp3859
g73
(dp3860
g93
g94
ssg82
g3854
sg75
(lp3861
g304
asbag68
(g89
g70
NtRp3862
(dp3863
g73
(dp3864
g100
g101
ssg82
g3854
sg75
(lp3865
S':'
asbag68
(g89
g70
NtRp3866
(dp3867
g73
(dp3868
sg82
g3854
sg75
(lp3869
g68
(g69
g70
NtRp3870
(dp3871
g73
(dp3872
g81
I3
ssg82
g3866
sg75
(lp3873
S''
asbasbasbag68
(g84
g70
NtRp3874
(dp3875
g73
(dp3876
sg82
g3830
sg75
(lp3877
g68
(g89
g70
NtRp3878
(dp3879
g73
(dp3880
g93
g94
ssg82
g3874
sg75
(lp3881
g325
asbag68
(g89
g70
NtRp3882
(dp3883
g73
(dp3884
g100
g101
ssg82
g3874
sg75
(lp3885
S':'
asbag68
(g89
g70
NtRp3886
(dp3887
g73
(dp3888
sg82
g3874
sg75
(lp3889
g68
(g69
g70
NtRp3890
(dp3891
g73
(dp3892
g81
I3
ssg82
g3886
sg75
(lp3893
S''
asbasbasbag68
(g84
g70
NtRp3894
(dp3895
g73
(dp3896
sg82
g3830
sg75
(lp3897
g68
(g89
g70
NtRp3898
(dp3899
g73
(dp3900
g93
g94
ssg82
g3894
sg75
(lp3901
g346
asbag68
(g89
g70
NtRp3902
(dp3903
g73
(dp3904
g100
g101
ssg82
g3894
sg75
(lp3905
S':'
asbag68
(g89
g70
NtRp3906
(dp3907
g73
(dp3908
sg82
g3894
sg75
(lp3909
g68
(g69
g70
NtRp3910
(dp3911
g73
(dp3912
g81
I3
ssg82
g3906
sg75
(lp3913
S''
asbasbasbag68
(g84
g70
NtRp3914
(dp3915
g73
(dp3916
sg82
g3830
sg75
(lp3917
g68
(g89
g70
NtRp3918
(dp3919
g73
(dp3920
g93
g94
ssg82
g3914
sg75
(lp3921
g367
asbag68
(g89
g70
NtRp3922
(dp3923
g73
(dp3924
g100
g101
ssg82
g3914
sg75
(lp3925
S':'
asbag68
(g89
g70
NtRp3926
(dp3927
g73
(dp3928
sg82
g3914
sg75
(lp3929
g68
(g69
g70
NtRp3930
(dp3931
g73
(dp3932
g81
I3
ssg82
g3926
sg75
(lp3933
S''
asbasbasbag68
(g84
g70
NtRp3934
(dp3935
g73
(dp3936
sg82
g3830
sg75
(lp3937
g68
(g89
g70
NtRp3938
(dp3939
g73
(dp3940
g93
g94
ssg82
g3934
sg75
(lp3941
g388
asbag68
(g89
g70
NtRp3942
(dp3943
g73
(dp3944
g100
g101
ssg82
g3934
sg75
(lp3945
S':'
asbag68
(g89
g70
NtRp3946
(dp3947
g73
(dp3948
sg82
g3934
sg75
(lp3949
g68
(g69
g70
NtRp3950
(dp3951
g73
(dp3952
g81
I3
ssg82
g3946
sg75
(lp3953
S'/'
asbasbasbag68
(g84
g70
NtRp3954
(dp3955
g73
(dp3956
sg82
g3830
sg75
(lp3957
g68
(g89
g70
NtRp3958
(dp3959
g73
(dp3960
g93
g94
ssg82
g3954
sg75
(lp3961
g409
asbag68
(g89
g70
NtRp3962
(dp3963
g73
(dp3964
g100
g101
ssg82
g3954
sg75
(lp3965
S':'
asbag68
(g89
g70
NtRp3966
(dp3967
g73
(dp3968
sg82
g3954
sg75
(lp3969
g68
(g69
g70
NtRp3970
(dp3971
g73
(dp3972
g81
I3
ssg82
g3966
sg75
(lp3973
S''
asbasbasbag68
(g84
g70
NtRp3974
(dp3975
g73
(dp3976
sg82
g3830
sg75
(lp3977
g68
(g89
g70
NtRp3978
(dp3979
g73
(dp3980
g93
g94
ssg82
g3974
sg75
(lp3981
g430
asbag68
(g89
g70
NtRp3982
(dp3983
g73
(dp3984
g100
g101
ssg82
g3974
sg75
(lp3985
S':'
asbag68
(g89
g70
NtRp3986
(dp3987
g73
(dp3988
sg82
g3974
sg75
(lp3989
g68
(g69
g70
NtRp3990
(dp3991
g73
(dp3992
g81
I3
ssg82
g3986
sg75
(lp3993
S''
asbasbasbasbasbasbasbasbasbasbasbag68
(g84
g70
NtRp3994
(dp3995
g73
(dp3996
sg82
g3760
sg75
(lp3997
g68
(g89
g70
NtRp3998
(dp3999
g73
(dp4000
g93
g94
ssg82
g3994
sg75
(lp4001
S'delimiters'
p4002
asbag68
(g89
g70
NtRp4003
(dp4004
g73
(dp4005
g100
g101
ssg82
g3994
sg75
(lp4006
S':'
asbag68
(g89
g70
NtRp4007
(dp4008
g73
(dp4009
sg82
g3994
sg75
(lp4010
g68
(g69
g70
NtRp4011
(dp4012
g73
(dp4013
g81
I5
ssg82
g4007
sg75
(lp4014
g68
(g77
g70
NtRp4015
(dp4016
g73
(dp4017
g81
I4
ssg82
Nsg75
(lp4018
g68
(g84
g70
NtRp4019
(dp4020
g73
(dp4021
sg82
g4015
sg75
(lp4022
g68
(g89
g70
NtRp4023
(dp4024
g73
(dp4025
sg82
g4019
sg75
(lp4026
g68
(g69
g70
NtRp4027
(dp4028
g73
(dp4029
g81
I4
ssg82
g4023
sg75
(lp4030
S'{{'
p4031
asbasbasbag68
(g84
g70
NtRp4032
(dp4033
g73
(dp4034
sg82
g4015
sg75
(lp4035
g68
(g89
g70
NtRp4036
(dp4037
g73
(dp4038
sg82
g4032
sg75
(lp4039
g68
(g69
g70
NtRp4040
(dp4041
g73
(dp4042
g81
I4
ssg82
g4036
sg75
(lp4043
S'}}'
p4044
asbasbasbasbasbasbasbag68
(g84
g70
NtRp4045
(dp4046
g73
(dp4047
sg82
g3760
sg75
(lp4048
g68
(g89
g70
NtRp4049
(dp4050
g73
(dp4051
g93
g94
ssg82
g4045
sg75
(lp4052
S'description'
p4053
asbag68
(g89
g70
NtRp4054
(dp4055
g73
(dp4056
g100
g101
ssg82
g4045
sg75
(lp4057
S':'
asbag68
(g89
g70
NtRp4058
(dp4059
g73
(dp4060
sg82
g4045
sg75
(lp4061
g68
(g69
g70
NtRp4062
(dp4063
g73
(dp4064
g81
I5
ssg82
g4058
sg75
(lp4065
S'Ecommerce'
p4066
asbasbasbag68
(g84
g70
NtRp4067
(dp4068
g73
(dp4069
sg82
g3760
sg75
(lp4070
g68
(g89
g70
NtRp4071
(dp4072
g73
(dp4073
g93
g94
ssg82
g4067
sg75
(lp4074
S'files'
p4075
asbag68
(g89
g70
NtRp4076
(dp4077
g73
(dp4078
g100
g101
ssg82
g4067
sg75
(lp4079
S':'
asbag68
(g89
g70
NtRp4080
(dp4081
g73
(dp4082
sg82
g4067
sg75
(lp4083
g68
(g69
g70
NtRp4084
(dp4085
g73
(dp4086
g81
I5
ssg82
g4080
sg75
(lp4087
g68
(g77
g70
NtRp4088
(dp4089
g73
(dp4090
g81
I4
ssg82
Nsg75
(lp4091
sbasbasbasbag68
(g84
g70
NtRp4092
(dp4093
g73
(dp4094
sg82
g3760
sg75
(lp4095
g68
(g89
g70
NtRp4096
(dp4097
g73
(dp4098
g93
g94
ssg82
g4092
sg75
(lp4099
S'flash'
p4100
asbag68
(g89
g70
NtRp4101
(dp4102
g73
(dp4103
g100
g101
ssg82
g4092
sg75
(lp4104
S':'
asbag68
(g89
g70
NtRp4105
(dp4106
g73
(dp4107
sg82
g4092
sg75
(lp4108
g68
(g69
g70
NtRp4109
(dp4110
g73
(dp4111
g81
I5
ssg82
g4105
sg75
(lp4112
S''
asbasbasbag68
(g84
g70
NtRp4113
(dp4114
g73
(dp4115
sg82
g3760
sg75
(lp4116
g68
(g89
g70
NtRp4117
(dp4118
g73
(dp4119
g93
g94
ssg82
g4113
sg75
(lp4120
S'generic_patterns'
p4121
asbag68
(g89
g70
NtRp4122
(dp4123
g73
(dp4124
g100
g101
ssg82
g4113
sg75
(lp4125
S':'
asbag68
(g89
g70
NtRp4126
(dp4127
g73
(dp4128
sg82
g4113
sg75
(lp4129
g68
(g69
g70
NtRp4130
(dp4131
g73
(dp4132
g81
I5
ssg82
g4126
sg75
(lp4133
g68
(g77
g70
NtRp4134
(dp4135
g73
(dp4136
g81
I4
ssg82
Nsg75
(lp4137
g68
(g84
g70
NtRp4138
(dp4139
g73
(dp4140
sg82
g4134
sg75
(lp4141
g68
(g89
g70
NtRp4142
(dp4143
g73
(dp4144
sg82
g4138
sg75
(lp4145
g68
(g69
g70
NtRp4146
(dp4147
g73
(dp4148
g81
I4
ssg82
g4142
sg75
(lp4149
S'*'
asbasbasbasbasbasbasbag68
(g84
g70
NtRp4150
(dp4151
g73
(dp4152
sg82
g3760
sg75
(lp4153
g68
(g89
g70
NtRp4154
(dp4155
g73
(dp4156
g93
g94
ssg82
g4150
sg75
(lp4157
S'headers'
p4158
asbag68
(g89
g70
NtRp4159
(dp4160
g73
(dp4161
g100
g101
ssg82
g4150
sg75
(lp4162
S':'
asbag68
(g89
g70
NtRp4163
(dp4164
g73
(dp4165
sg82
g4150
sg75
(lp4166
g68
(g69
g70
NtRp4167
(dp4168
g73
(dp4169
g81
I5
ssg82
g4163
sg75
(lp4170
g68
(g77
g70
NtRp4171
(dp4172
g73
(dp4173
g81
I4
ssg82
Nsg75
(lp4174
g68
(g84
g70
NtRp4175
(dp4176
g73
(dp4177
sg82
g4171
sg75
(lp4178
g68
(g89
g70
NtRp4179
(dp4180
g73
(dp4181
g93
g94
ssg82
g4175
sg75
(lp4182
S'Cache-Control'
p4183
asbag68
(g89
g70
NtRp4184
(dp4185
g73
(dp4186
g100
g101
ssg82
g4175
sg75
(lp4187
S':'
asbag68
(g89
g70
NtRp4188
(dp4189
g73
(dp4190
sg82
g4175
sg75
(lp4191
g68
(g69
g70
NtRp4192
(dp4193
g73
(dp4194
g81
I4
ssg82
g4188
sg75
(lp4195
S'no-store, no-cache, must-revalidate, post-check=0, pre-check=0'
p4196
asbasbasbag68
(g84
g70
NtRp4197
(dp4198
g73
(dp4199
sg82
g4171
sg75
(lp4200
g68
(g89
g70
NtRp4201
(dp4202
g73
(dp4203
g93
g94
ssg82
g4197
sg75
(lp4204
S'Content-Type'
p4205
asbag68
(g89
g70
NtRp4206
(dp4207
g73
(dp4208
g100
g101
ssg82
g4197
sg75
(lp4209
S':'
asbag68
(g89
g70
NtRp4210
(dp4211
g73
(dp4212
sg82
g4197
sg75
(lp4213
g68
(g69
g70
NtRp4214
(dp4215
g73
(dp4216
g81
I4
ssg82
g4210
sg75
(lp4217
S'text/html; charset=utf-8'
p4218
asbasbasbag68
(g84
g70
NtRp4219
(dp4220
g73
(dp4221
sg82
g4171
sg75
(lp4222
g68
(g89
g70
NtRp4223
(dp4224
g73
(dp4225
g93
g94
ssg82
g4219
sg75
(lp4226
S'Expires'
p4227
asbag68
(g89
g70
NtRp4228
(dp4229
g73
(dp4230
g100
g101
ssg82
g4219
sg75
(lp4231
S':'
asbag68
(g89
g70
NtRp4232
(dp4233
g73
(dp4234
sg82
g4219
sg75
(lp4235
g68
(g69
g70
NtRp4236
(dp4237
g73
(dp4238
g81
I4
ssg82
g4232
sg75
(lp4239
S'Sun, 12 Aug 2012 17:30:14 GMT'
p4240
asbasbasbag68
(g84
g70
NtRp4241
(dp4242
g73
(dp4243
sg82
g4171
sg75
(lp4244
g68
(g89
g70
NtRp4245
(dp4246
g73
(dp4247
g93
g94
ssg82
g4241
sg75
(lp4248
S'Pragma'
p4249
asbag68
(g89
g70
NtRp4250
(dp4251
g73
(dp4252
g100
g101
ssg82
g4241
sg75
(lp4253
S':'
asbag68
(g89
g70
NtRp4254
(dp4255
g73
(dp4256
sg82
g4241
sg75
(lp4257
g68
(g69
g70
NtRp4258
(dp4259
g73
(dp4260
g81
I4
ssg82
g4254
sg75
(lp4261
S'no-cache'
p4262
asbasbasbag68
(g84
g70
NtRp4263
(dp4264
g73
(dp4265
sg82
g4171
sg75
(lp4266
g68
(g89
g70
NtRp4267
(dp4268
g73
(dp4269
g93
g94
ssg82
g4263
sg75
(lp4270
S'X-Powered-By'
p4271
asbag68
(g89
g70
NtRp4272
(dp4273
g73
(dp4274
g100
g101
ssg82
g4263
sg75
(lp4275
S':'
asbag68
(g89
g70
NtRp4276
(dp4277
g73
(dp4278
sg82
g4263
sg75
(lp4279
g68
(g69
g70
NtRp4280
(dp4281
g73
(dp4282
g81
I4
ssg82
g4276
sg75
(lp4283
S'web2py'
p4284
asbasbasbasbasbasbasbag68
(g84
g70
NtRp4285
(dp4286
g73
(dp4287
sg82
g3760
sg75
(lp4288
g68
(g89
g70
NtRp4289
(dp4290
g73
(dp4291
g93
g94
ssg82
g4285
sg75
(lp4292
S'menu'
p4293
asbag68
(g89
g70
NtRp4294
(dp4295
g73
(dp4296
g100
g101
ssg82
g4285
sg75
(lp4297
S':'
asbag68
(g89
g70
NtRp4298
(dp4299
g73
(dp4300
sg82
g4285
sg75
(lp4301
g68
(g69
g70
NtRp4302
(dp4303
g73
(dp4304
g81
I5
ssg82
g4298
sg75
(lp4305
g68
(g77
g70
NtRp4306
(dp4307
g73
(dp4308
g81
I4
ssg82
Nsg75
(lp4309
sbasbasbasbag68
(g84
g70
NtRp4310
(dp4311
g73
(dp4312
sg82
g3760
sg75
(lp4313
g68
(g89
g70
NtRp4314
(dp4315
g73
(dp4316
g93
g94
ssg82
g4310
sg75
(lp4317
S'meta'
p4318
asbag68
(g89
g70
NtRp4319
(dp4320
g73
(dp4321
g100
g101
ssg82
g4310
sg75
(lp4322
S':'
asbag68
(g89
g70
NtRp4323
(dp4324
g73
(dp4325
sg82
g4310
sg75
(lp4326
g68
(g69
g70
NtRp4327
(dp4328
g73
(dp4329
g81
I5
ssg82
g4323
sg75
(lp4330
g68
(g77
g70
NtRp4331
(dp4332
g73
(dp4333
g81
I4
ssg82
Nsg75
(lp4334
sbasbasbasbag68
(g84
g70
NtRp4335
(dp4336
g73
(dp4337
sg82
g3760
sg75
(lp4338
g68
(g89
g70
NtRp4339
(dp4340
g73
(dp4341
g93
g94
ssg82
g4335
sg75
(lp4342
S'postprocessing'
p4343
asbag68
(g89
g70
NtRp4344
(dp4345
g73
(dp4346
g100
g101
ssg82
g4335
sg75
(lp4347
S':'
asbag68
(g89
g70
NtRp4348
(dp4349
g73
(dp4350
sg82
g4335
sg75
(lp4351
g68
(g69
g70
NtRp4352
(dp4353
g73
(dp4354
g81
I5
ssg82
g4348
sg75
(lp4355
g68
(g77
g70
NtRp4356
(dp4357
g73
(dp4358
g81
I4
ssg82
Nsg75
(lp4359
sbasbasbasbag68
(g84
g70
NtRp4360
(dp4361
g73
(dp4362
sg82
g3760
sg75
(lp4363
g68
(g89
g70
NtRp4364
(dp4365
g73
(dp4366
g93
g94
ssg82
g4360
sg75
(lp4367
S'session_file'
p4368
asbag68
(g89
g70
NtRp4369
(dp4370
g73
(dp4371
g100
g101
ssg82
g4360
sg75
(lp4372
S':'
asbag68
(g89
g70
NtRp4373
(dp4374
g73
(dp4375
sg82
g4360
sg75
(lp4376
g68
(g69
g70
NtRp4377
(dp4378
g73
(dp4379
g81
I5
ssg82
g4373
sg75
(lp4380
S"<open file 'c:\\Users\\rochacbruno\\jul12\\cursojulho12\\web2py\\applications\\ecommerce\\sessions\\127.0.0.1-0fe94d39-4aae-427f-bfbc-597a65cd32c1', mode 'rb+' at 0x05A57230>"
p4381
asbasbasbag68
(g84
g70
NtRp4382
(dp4383
g73
(dp4384
sg82
g3760
sg75
(lp4385
g68
(g89
g70
NtRp4386
(dp4387
g73
(dp4388
g93
g94
ssg82
g4382
sg75
(lp4389
S'session_filename'
p4390
asbag68
(g89
g70
NtRp4391
(dp4392
g73
(dp4393
g100
g101
ssg82
g4382
sg75
(lp4394
S':'
asbag68
(g89
g70
NtRp4395
(dp4396
g73
(dp4397
sg82
g4382
sg75
(lp4398
g68
(g69
g70
NtRp4399
(dp4400
g73
(dp4401
g81
I5
ssg82
g4395
sg75
(lp4402
S'c:\\Users\\rochacbruno\\jul12\\cursojulho12\\web2py\\applications\\ecommerce\\sessions\\127.0.0.1-0fe94d39-4aae-427f-bfbc-597a65cd32c1'
p4403
asbasbasbag68
(g84
g70
NtRp4404
(dp4405
g73
(dp4406
sg82
g3760
sg75
(lp4407
g68
(g89
g70
NtRp4408
(dp4409
g73
(dp4410
g93
g94
ssg82
g4404
sg75
(lp4411
S'session_id'
p4412
asbag68
(g89
g70
NtRp4413
(dp4414
g73
(dp4415
g100
g101
ssg82
g4404
sg75
(lp4416
S':'
asbag68
(g89
g70
NtRp4417
(dp4418
g73
(dp4419
sg82
g4404
sg75
(lp4420
g68
(g69
g70
NtRp4421
(dp4422
g73
(dp4423
g81
I5
ssg82
g4417
sg75
(lp4424
g464
asbasbasbag68
(g84
g70
NtRp4425
(dp4426
g73
(dp4427
sg82
g3760
sg75
(lp4428
g68
(g89
g70
NtRp4429
(dp4430
g73
(dp4431
g93
g94
ssg82
g4425
sg75
(lp4432
S'session_id_name'
p4433
asbag68
(g89
g70
NtRp4434
(dp4435
g73
(dp4436
g100
g101
ssg82
g4425
sg75
(lp4437
S':'
asbag68
(g89
g70
NtRp4438
(dp4439
g73
(dp4440
sg82
g4425
sg75
(lp4441
g68
(g69
g70
NtRp4442
(dp4443
g73
(dp4444
g81
I5
ssg82
g4438
sg75
(lp4445
g3817
asbasbasbag68
(g84
g70
NtRp4446
(dp4447
g73
(dp4448
sg82
g3760
sg75
(lp4449
g68
(g89
g70
NtRp4450
(dp4451
g73
(dp4452
g93
g94
ssg82
g4446
sg75
(lp4453
S'session_locked'
p4454
asbag68
(g89
g70
NtRp4455
(dp4456
g73
(dp4457
g100
g101
ssg82
g4446
sg75
(lp4458
S':'
asbag68
(g89
g70
NtRp4459
(dp4460
g73
(dp4461
sg82
g4446
sg75
(lp4462
g68
(g69
g70
NtRp4463
(dp4464
g73
(dp4465
g81
I5
ssg82
g4459
sg75
(lp4466
g1876
asbasbasbag68
(g84
g70
NtRp4467
(dp4468
g73
(dp4469
sg82
g3760
sg75
(lp4470
g68
(g89
g70
NtRp4471
(dp4472
g73
(dp4473
g93
g94
ssg82
g4467
sg75
(lp4474
S'session_new'
p4475
asbag68
(g89
g70
NtRp4476
(dp4477
g73
(dp4478
g100
g101
ssg82
g4467
sg75
(lp4479
S':'
asbag68
(g89
g70
NtRp4480
(dp4481
g73
(dp4482
sg82
g4467
sg75
(lp4483
g68
(g69
g70
NtRp4484
(dp4485
g73
(dp4486
g81
I5
ssg82
g4480
sg75
(lp4487
g111
asbasbasbag68
(g84
g70
NtRp4488
(dp4489
g73
(dp4490
sg82
g3760
sg75
(lp4491
g68
(g89
g70
NtRp4492
(dp4493
g73
(dp4494
g93
g94
ssg82
g4488
sg75
(lp4495
S'status'
p4496
asbag68
(g89
g70
NtRp4497
(dp4498
g73
(dp4499
g100
g101
ssg82
g4488
sg75
(lp4500
S':'
asbag68
(g89
g70
NtRp4501
(dp4502
g73
(dp4503
sg82
g4488
sg75
(lp4504
g68
(g69
g70
NtRp4505
(dp4506
g73
(dp4507
g81
I5
ssg82
g4501
sg75
(lp4508
S'200'
p4509
asbasbasbag68
(g84
g70
NtRp4510
(dp4511
g73
(dp4512
sg82
g3760
sg75
(lp4513
g68
(g89
g70
NtRp4514
(dp4515
g73
(dp4516
g93
g94
ssg82
g4510
sg75
(lp4517
S'title'
p4518
asbag68
(g89
g70
NtRp4519
(dp4520
g73
(dp4521
g100
g101
ssg82
g4510
sg75
(lp4522
S':'
asbag68
(g89
g70
NtRp4523
(dp4524
g73
(dp4525
sg82
g4510
sg75
(lp4526
g68
(g69
g70
NtRp4527
(dp4528
g73
(dp4529
g81
I5
ssg82
g4523
sg75
(lp4530
S'Ecommerce do Bruno | CursodePython.com.br'
p4531
asbasbasbag68
(g84
g70
NtRp4532
(dp4533
g73
(dp4534
sg82
g3760
sg75
(lp4535
g68
(g89
g70
NtRp4536
(dp4537
g73
(dp4538
g93
g94
ssg82
g4532
sg75
(lp4539
g2519
asbag68
(g89
g70
NtRp4540
(dp4541
g73
(dp4542
g100
g101
ssg82
g4532
sg75
(lp4543
S':'
asbag68
(g89
g70
NtRp4544
(dp4545
g73
(dp4546
sg82
g4532
sg75
(lp4547
g68
(g69
g70
NtRp4548
(dp4549
g73
(dp4550
g81
I5
ssg82
g4544
sg75
(lp4551
g2532
asbasbasbag68
(g84
g70
NtRp4552
(dp4553
g73
(dp4554
sg82
g3760
sg75
(lp4555
g68
(g89
g70
NtRp4556
(dp4557
g73
(dp4558
g93
g94
ssg82
g4552
sg75
(lp4559
S'view'
p4560
asbag68
(g89
g70
NtRp4561
(dp4562
g73
(dp4563
g100
g101
ssg82
g4552
sg75
(lp4564
S':'
asbag68
(g89
g70
NtRp4565
(dp4566
g73
(dp4567
sg82
g4552
sg75
(lp4568
g68
(g69
g70
NtRp4569
(dp4570
g73
(dp4571
g81
I5
ssg82
g4565
sg75
(lp4572
S'product/new.html'
p4573
asbasbasbasbasbsS'locals'
p4574
(dp4575
g4
S"r'c:\\Users\\rochacbruno\\jul12\\cursojulho12\\web2py\\applications\\ecommerce\\models\\xfunctions.py'"
p4576
sg6
S"'\\ndef hide_fields(tablename, fields):\\n    for fie...         db.[tablename][field].readable = False  '"
p4577
sssS'traceback'
p4578
S'Traceback (most recent call last):\n  File "c:\\Users\\rochacbruno\\jul12\\cursojulho12\\web2py\\gluon\\restricted.py", line 204, in restricted\n    ccode = compile2(code,layer)\n  File "c:\\Users\\rochacbruno\\jul12\\cursojulho12\\web2py\\gluon\\restricted.py", line 189, in compile2\n    return compile(code.rstrip().replace(\'\\r\\n\',\'\\n\')+\'\\n\', layer, \'exec\')\n  File "c:\\Users\\rochacbruno\\jul12\\cursojulho12\\web2py\\applications\\ecommerce\\models\\xfunctions.py", line 4\n    db.[tablename][field].writable = \\\n       ^\nSyntaxError: invalid syntax\n'
p4579
s.