(dp1
S'output'
p2
S'<type \'exceptions.SyntaxError\'> invalid table/column name "number" is a "ALL" reserved SQL keyword'
p3
sS'layer'
p4
S'c:\\Users\\rochacbruno\\jul12\\cursojulho12\\web2py\\applications\\ecommerce\\models\\datamodel_application.py'
p5
sS'code'
p6
S'#coding: utf-8\n\n# definir objetos da app (Auth, Mail, Service)\n\nfrom gluon.tools import Auth, Mail\n\nauth = Auth(db, hmac_key=Auth.get_or_create_key(), controller="home", function="user")\n\nauth.settings.login_next = URL(\'home\', \'index\')\n\n# CAPTCHA\n\n# from gluon.tools import Recaptcha\n# auth.settings.captcha = Recaptcha(request,\n#     \'PUBLIC_KEY\', \'PRIVATE_KEY\')\n\n# auth_user, auth_groups, auth_membership, auth_permission\n\nauth.settings.extra_fields["auth_user"] = [\n    Field("picture", "upload"),\n    Field("zipcode"),\n    Field("address"),\n    Field("number")\n]\n\n# auth.settings.registration_requires_verification = False\n# auth.settings.registration_requires_approval = False\n# auth.settings.reset_password_requires_verification = True\n\nmail = Mail()\nmail.settings.sender = config.mail.sender\nmail.settings.server = config.mail.server\nmail.settings.login = config.mail.login\n\nauth.settings.mailer = mail\n\n# auth.settings.login_field = \'cpf\'\nauth.define_tables()\n\n# definir classes e funcoes da app\n# definir autenticacao\n# definir datamodel de autenticacao\n# definir emails de autenticacao\n\n# signature'
p7
sS'snapshot'
p8
(dp9
S'exception'
p10
(dp11
S'__getslice__'
p12
S"<method-wrapper '__getslice__' of exceptions.SyntaxError object>"
p13
sS'text'
p14
S'None'
p15
sS'__str__'
p16
S"<method-wrapper '__str__' of exceptions.SyntaxError object>"
p17
sS'__reduce__'
p18
S'<built-in method __reduce__ of exceptions.SyntaxError object>'
p19
sS'__dict__'
p20
S'{}'
p21
sS'__sizeof__'
p22
S'<built-in method __sizeof__ of exceptions.SyntaxError object>'
p23
sS'__init__'
p24
S"<method-wrapper '__init__' of exceptions.SyntaxError object>"
p25
sS'__setattr__'
p26
S"<method-wrapper '__setattr__' of exceptions.SyntaxError object>"
p27
sS'__reduce_ex__'
p28
S'<built-in method __reduce_ex__ of exceptions.SyntaxError object>'
p29
sS'__new__'
p30
S'<built-in method __new__ of type object>'
p31
sS'__format__'
p32
S'<built-in method __format__ of exceptions.SyntaxError object>'
p33
sS'__class__'
p34
S"<type 'exceptions.SyntaxError'>"
p35
sS'filename'
p36
S'None'
p37
sS'lineno'
p38
S'None'
p39
sS'msg'
p40
S'\'invalid table/column name "number" is a "ALL" reserved SQL keyword\''
p41
sS'__doc__'
p42
S"'Invalid syntax.'"
p43
sS'__getitem__'
p44
S"<method-wrapper '__getitem__' of exceptions.SyntaxError object>"
p45
sS'__setstate__'
p46
S'<built-in method __setstate__ of exceptions.SyntaxError object>'
p47
sS'__getattribute__'
p48
S"<method-wrapper '__getattribute__' of exceptions.SyntaxError object>"
p49
sS'print_file_and_line'
p50
S'None'
p51
sS'args'
p52
S'(\'invalid table/column name "number" is a "ALL" reserved SQL keyword\',)'
p53
sS'__subclasshook__'
p54
S'<built-in method __subclasshook__ of type object>'
p55
sS'offset'
p56
S'None'
p57
sS'__unicode__'
p58
S'<built-in method __unicode__ of exceptions.SyntaxError object>'
p59
sS'__delattr__'
p60
S"<method-wrapper '__delattr__' of exceptions.SyntaxError object>"
p61
sS'__repr__'
p62
S"<method-wrapper '__repr__' of exceptions.SyntaxError object>"
p63
sS'__hash__'
p64
S"<method-wrapper '__hash__' of exceptions.SyntaxError object>"
p65
ssS'evalue'
p66
S'invalid table/column name "number" is a "ALL" reserved SQL keyword'
p67
sS'request'
p68
ccopy_reg
_reconstructor
p69
(cgluon.html
BEAUTIFY
p70
c__builtin__
object
p71
NtRp72
(dp73
S'attributes'
p74
(dp75
sS'components'
p76
(lp77
g69
(cgluon.html
TABLE
p78
g71
NtRp79
(dp80
g74
(dp81
S'level'
p82
I5
ssS'parent'
p83
Nsg76
(lp84
g69
(cgluon.html
TR
p85
g71
NtRp86
(dp87
g74
(dp88
sg83
g79
sg76
(lp89
g69
(cgluon.html
TD
p90
g71
NtRp91
(dp92
g74
(dp93
S'_style'
p94
S'font-weight:bold;vertical-align:top'
p95
ssg83
g86
sg76
(lp96
S'ajax'
p97
asbag69
(g90
g71
NtRp98
(dp99
g74
(dp100
S'_valign'
p101
S'top'
p102
ssg83
g86
sg76
(lp103
S':'
asbag69
(g90
g71
NtRp104
(dp105
g74
(dp106
sg83
g86
sg76
(lp107
g69
(g70
g71
NtRp108
(dp109
g74
(dp110
g82
I5
ssg83
g104
sg76
(lp111
S'False'
p112
asbasbasbag69
(g85
g71
NtRp113
(dp114
g74
(dp115
sg83
g79
sg76
(lp116
g69
(g90
g71
NtRp117
(dp118
g74
(dp119
g94
g95
ssg83
g113
sg76
(lp120
S'application'
p121
asbag69
(g90
g71
NtRp122
(dp123
g74
(dp124
g101
g102
ssg83
g113
sg76
(lp125
S':'
asbag69
(g90
g71
NtRp126
(dp127
g74
(dp128
sg83
g113
sg76
(lp129
g69
(g70
g71
NtRp130
(dp131
g74
(dp132
g82
I5
ssg83
g126
sg76
(lp133
S'ecommerce'
p134
asbasbasbag69
(g85
g71
NtRp135
(dp136
g74
(dp137
sg83
g79
sg76
(lp138
g69
(g90
g71
NtRp139
(dp140
g74
(dp141
g94
g95
ssg83
g135
sg76
(lp142
g52
asbag69
(g90
g71
NtRp143
(dp144
g74
(dp145
g101
g102
ssg83
g135
sg76
(lp146
S':'
asbag69
(g90
g71
NtRp147
(dp148
g74
(dp149
sg83
g135
sg76
(lp150
g69
(g70
g71
NtRp151
(dp152
g74
(dp153
g82
I5
ssg83
g147
sg76
(lp154
g69
(g78
g71
NtRp155
(dp156
g74
(dp157
g82
I4
ssg83
Nsg76
(lp158
sbasbasbasbag69
(g85
g71
NtRp159
(dp160
g74
(dp161
sg83
g79
sg76
(lp162
g69
(g90
g71
NtRp163
(dp164
g74
(dp165
g94
g95
ssg83
g159
sg76
(lp166
S'body'
p167
asbag69
(g90
g71
NtRp168
(dp169
g74
(dp170
g101
g102
ssg83
g159
sg76
(lp171
S':'
asbag69
(g90
g71
NtRp172
(dp173
g74
(dp174
sg83
g159
sg76
(lp175
g69
(g70
g71
NtRp176
(dp177
g74
(dp178
g82
I5
ssg83
g172
sg76
(lp179
S'<cStringIO.StringO object at 0x059F9700>'
p180
asbasbasbag69
(g85
g71
NtRp181
(dp182
g74
(dp183
sg83
g79
sg76
(lp184
g69
(g90
g71
NtRp185
(dp186
g74
(dp187
g94
g95
ssg83
g181
sg76
(lp188
S'client'
p189
asbag69
(g90
g71
NtRp190
(dp191
g74
(dp192
g101
g102
ssg83
g181
sg76
(lp193
S':'
asbag69
(g90
g71
NtRp194
(dp195
g74
(dp196
sg83
g181
sg76
(lp197
g69
(g70
g71
NtRp198
(dp199
g74
(dp200
g82
I5
ssg83
g194
sg76
(lp201
S'127.0.0.1'
p202
asbasbasbag69
(g85
g71
NtRp203
(dp204
g74
(dp205
sg83
g79
sg76
(lp206
g69
(g90
g71
NtRp207
(dp208
g74
(dp209
g94
g95
ssg83
g203
sg76
(lp210
S'controller'
p211
asbag69
(g90
g71
NtRp212
(dp213
g74
(dp214
g101
g102
ssg83
g203
sg76
(lp215
S':'
asbag69
(g90
g71
NtRp216
(dp217
g74
(dp218
sg83
g203
sg76
(lp219
g69
(g70
g71
NtRp220
(dp221
g74
(dp222
g82
I5
ssg83
g216
sg76
(lp223
S'product'
p224
asbasbasbag69
(g85
g71
NtRp225
(dp226
g74
(dp227
sg83
g79
sg76
(lp228
g69
(g90
g71
NtRp229
(dp230
g74
(dp231
g94
g95
ssg83
g225
sg76
(lp232
S'cookies'
p233
asbag69
(g90
g71
NtRp234
(dp235
g74
(dp236
g101
g102
ssg83
g225
sg76
(lp237
S':'
asbag69
(g90
g71
NtRp238
(dp239
g74
(dp240
sg83
g225
sg76
(lp241
g69
(g70
g71
NtRp242
(dp243
g74
(dp244
g82
I5
ssg83
g238
sg76
(lp245
g69
(g78
g71
NtRp246
(dp247
g74
(dp248
g82
I4
ssg83
Nsg76
(lp249
g69
(g85
g71
NtRp250
(dp251
g74
(dp252
sg83
g246
sg76
(lp253
g69
(g90
g71
NtRp254
(dp255
g74
(dp256
g94
g95
ssg83
g250
sg76
(lp257
S'session_id_admin'
p258
asbag69
(g90
g71
NtRp259
(dp260
g74
(dp261
g101
g102
ssg83
g250
sg76
(lp262
S':'
asbag69
(g90
g71
NtRp263
(dp264
g74
(dp265
sg83
g250
sg76
(lp266
g69
(g70
g71
NtRp267
(dp268
g74
(dp269
g82
I4
ssg83
g263
sg76
(lp270
S'127.0.0.1-4873ed00-b716-4b13-a1bb-7fdaa43562f3'
p271
ag69
(g78
g71
NtRp272
(dp273
g74
(dp274
g82
I3
ssg83
Nsg76
(lp275
g69
(g85
g71
NtRp276
(dp277
g74
(dp278
sg83
g272
sg76
(lp279
g69
(g90
g71
NtRp280
(dp281
g74
(dp282
g94
g95
ssg83
g276
sg76
(lp283
S'comment'
p284
asbag69
(g90
g71
NtRp285
(dp286
g74
(dp287
g101
g102
ssg83
g276
sg76
(lp288
S':'
asbag69
(g90
g71
NtRp289
(dp290
g74
(dp291
sg83
g276
sg76
(lp292
g69
(g70
g71
NtRp293
(dp294
g74
(dp295
g82
I3
ssg83
g289
sg76
(lp296
S''
asbasbasbag69
(g85
g71
NtRp297
(dp298
g74
(dp299
sg83
g272
sg76
(lp300
g69
(g90
g71
NtRp301
(dp302
g74
(dp303
g94
g95
ssg83
g297
sg76
(lp304
S'domain'
p305
asbag69
(g90
g71
NtRp306
(dp307
g74
(dp308
g101
g102
ssg83
g297
sg76
(lp309
S':'
asbag69
(g90
g71
NtRp310
(dp311
g74
(dp312
sg83
g297
sg76
(lp313
g69
(g70
g71
NtRp314
(dp315
g74
(dp316
g82
I3
ssg83
g310
sg76
(lp317
S''
asbasbasbag69
(g85
g71
NtRp318
(dp319
g74
(dp320
sg83
g272
sg76
(lp321
g69
(g90
g71
NtRp322
(dp323
g74
(dp324
g94
g95
ssg83
g318
sg76
(lp325
S'expires'
p326
asbag69
(g90
g71
NtRp327
(dp328
g74
(dp329
g101
g102
ssg83
g318
sg76
(lp330
S':'
asbag69
(g90
g71
NtRp331
(dp332
g74
(dp333
sg83
g318
sg76
(lp334
g69
(g70
g71
NtRp335
(dp336
g74
(dp337
g82
I3
ssg83
g331
sg76
(lp338
S''
asbasbasbag69
(g85
g71
NtRp339
(dp340
g74
(dp341
sg83
g272
sg76
(lp342
g69
(g90
g71
NtRp343
(dp344
g74
(dp345
g94
g95
ssg83
g339
sg76
(lp346
S'httponly'
p347
asbag69
(g90
g71
NtRp348
(dp349
g74
(dp350
g101
g102
ssg83
g339
sg76
(lp351
S':'
asbag69
(g90
g71
NtRp352
(dp353
g74
(dp354
sg83
g339
sg76
(lp355
g69
(g70
g71
NtRp356
(dp357
g74
(dp358
g82
I3
ssg83
g352
sg76
(lp359
S''
asbasbasbag69
(g85
g71
NtRp360
(dp361
g74
(dp362
sg83
g272
sg76
(lp363
g69
(g90
g71
NtRp364
(dp365
g74
(dp366
g94
g95
ssg83
g360
sg76
(lp367
S'max-age'
p368
asbag69
(g90
g71
NtRp369
(dp370
g74
(dp371
g101
g102
ssg83
g360
sg76
(lp372
S':'
asbag69
(g90
g71
NtRp373
(dp374
g74
(dp375
sg83
g360
sg76
(lp376
g69
(g70
g71
NtRp377
(dp378
g74
(dp379
g82
I3
ssg83
g373
sg76
(lp380
S''
asbasbasbag69
(g85
g71
NtRp381
(dp382
g74
(dp383
sg83
g272
sg76
(lp384
g69
(g90
g71
NtRp385
(dp386
g74
(dp387
g94
g95
ssg83
g381
sg76
(lp388
S'path'
p389
asbag69
(g90
g71
NtRp390
(dp391
g74
(dp392
g101
g102
ssg83
g381
sg76
(lp393
S':'
asbag69
(g90
g71
NtRp394
(dp395
g74
(dp396
sg83
g381
sg76
(lp397
g69
(g70
g71
NtRp398
(dp399
g74
(dp400
g82
I3
ssg83
g394
sg76
(lp401
S''
asbasbasbag69
(g85
g71
NtRp402
(dp403
g74
(dp404
sg83
g272
sg76
(lp405
g69
(g90
g71
NtRp406
(dp407
g74
(dp408
g94
g95
ssg83
g402
sg76
(lp409
S'secure'
p410
asbag69
(g90
g71
NtRp411
(dp412
g74
(dp413
g101
g102
ssg83
g402
sg76
(lp414
S':'
asbag69
(g90
g71
NtRp415
(dp416
g74
(dp417
sg83
g402
sg76
(lp418
g69
(g70
g71
NtRp419
(dp420
g74
(dp421
g82
I3
ssg83
g415
sg76
(lp422
S''
asbasbasbag69
(g85
g71
NtRp423
(dp424
g74
(dp425
sg83
g272
sg76
(lp426
g69
(g90
g71
NtRp427
(dp428
g74
(dp429
g94
g95
ssg83
g423
sg76
(lp430
S'version'
p431
asbag69
(g90
g71
NtRp432
(dp433
g74
(dp434
g101
g102
ssg83
g423
sg76
(lp435
S':'
asbag69
(g90
g71
NtRp436
(dp437
g74
(dp438
sg83
g423
sg76
(lp439
g69
(g70
g71
NtRp440
(dp441
g74
(dp442
g82
I3
ssg83
g436
sg76
(lp443
S''
asbasbasbasbasbasbasbag69
(g85
g71
NtRp444
(dp445
g74
(dp446
sg83
g246
sg76
(lp447
g69
(g90
g71
NtRp448
(dp449
g74
(dp450
g94
g95
ssg83
g444
sg76
(lp451
S'session_id_ecommerce'
p452
asbag69
(g90
g71
NtRp453
(dp454
g74
(dp455
g101
g102
ssg83
g444
sg76
(lp456
S':'
asbag69
(g90
g71
NtRp457
(dp458
g74
(dp459
sg83
g444
sg76
(lp460
g69
(g70
g71
NtRp461
(dp462
g74
(dp463
g82
I4
ssg83
g457
sg76
(lp464
S'127.0.0.1-0fe94d39-4aae-427f-bfbc-597a65cd32c1'
p465
ag69
(g78
g71
NtRp466
(dp467
g74
(dp468
g82
I3
ssg83
Nsg76
(lp469
g69
(g85
g71
NtRp470
(dp471
g74
(dp472
sg83
g466
sg76
(lp473
g69
(g90
g71
NtRp474
(dp475
g74
(dp476
g94
g95
ssg83
g470
sg76
(lp477
g284
asbag69
(g90
g71
NtRp478
(dp479
g74
(dp480
g101
g102
ssg83
g470
sg76
(lp481
S':'
asbag69
(g90
g71
NtRp482
(dp483
g74
(dp484
sg83
g470
sg76
(lp485
g69
(g70
g71
NtRp486
(dp487
g74
(dp488
g82
I3
ssg83
g482
sg76
(lp489
S''
asbasbasbag69
(g85
g71
NtRp490
(dp491
g74
(dp492
sg83
g466
sg76
(lp493
g69
(g90
g71
NtRp494
(dp495
g74
(dp496
g94
g95
ssg83
g490
sg76
(lp497
g305
asbag69
(g90
g71
NtRp498
(dp499
g74
(dp500
g101
g102
ssg83
g490
sg76
(lp501
S':'
asbag69
(g90
g71
NtRp502
(dp503
g74
(dp504
sg83
g490
sg76
(lp505
g69
(g70
g71
NtRp506
(dp507
g74
(dp508
g82
I3
ssg83
g502
sg76
(lp509
S''
asbasbasbag69
(g85
g71
NtRp510
(dp511
g74
(dp512
sg83
g466
sg76
(lp513
g69
(g90
g71
NtRp514
(dp515
g74
(dp516
g94
g95
ssg83
g510
sg76
(lp517
g326
asbag69
(g90
g71
NtRp518
(dp519
g74
(dp520
g101
g102
ssg83
g510
sg76
(lp521
S':'
asbag69
(g90
g71
NtRp522
(dp523
g74
(dp524
sg83
g510
sg76
(lp525
g69
(g70
g71
NtRp526
(dp527
g74
(dp528
g82
I3
ssg83
g522
sg76
(lp529
S''
asbasbasbag69
(g85
g71
NtRp530
(dp531
g74
(dp532
sg83
g466
sg76
(lp533
g69
(g90
g71
NtRp534
(dp535
g74
(dp536
g94
g95
ssg83
g530
sg76
(lp537
g347
asbag69
(g90
g71
NtRp538
(dp539
g74
(dp540
g101
g102
ssg83
g530
sg76
(lp541
S':'
asbag69
(g90
g71
NtRp542
(dp543
g74
(dp544
sg83
g530
sg76
(lp545
g69
(g70
g71
NtRp546
(dp547
g74
(dp548
g82
I3
ssg83
g542
sg76
(lp549
S''
asbasbasbag69
(g85
g71
NtRp550
(dp551
g74
(dp552
sg83
g466
sg76
(lp553
g69
(g90
g71
NtRp554
(dp555
g74
(dp556
g94
g95
ssg83
g550
sg76
(lp557
g368
asbag69
(g90
g71
NtRp558
(dp559
g74
(dp560
g101
g102
ssg83
g550
sg76
(lp561
S':'
asbag69
(g90
g71
NtRp562
(dp563
g74
(dp564
sg83
g550
sg76
(lp565
g69
(g70
g71
NtRp566
(dp567
g74
(dp568
g82
I3
ssg83
g562
sg76
(lp569
S''
asbasbasbag69
(g85
g71
NtRp570
(dp571
g74
(dp572
sg83
g466
sg76
(lp573
g69
(g90
g71
NtRp574
(dp575
g74
(dp576
g94
g95
ssg83
g570
sg76
(lp577
g389
asbag69
(g90
g71
NtRp578
(dp579
g74
(dp580
g101
g102
ssg83
g570
sg76
(lp581
S':'
asbag69
(g90
g71
NtRp582
(dp583
g74
(dp584
sg83
g570
sg76
(lp585
g69
(g70
g71
NtRp586
(dp587
g74
(dp588
g82
I3
ssg83
g582
sg76
(lp589
S''
asbasbasbag69
(g85
g71
NtRp590
(dp591
g74
(dp592
sg83
g466
sg76
(lp593
g69
(g90
g71
NtRp594
(dp595
g74
(dp596
g94
g95
ssg83
g590
sg76
(lp597
g410
asbag69
(g90
g71
NtRp598
(dp599
g74
(dp600
g101
g102
ssg83
g590
sg76
(lp601
S':'
asbag69
(g90
g71
NtRp602
(dp603
g74
(dp604
sg83
g590
sg76
(lp605
g69
(g70
g71
NtRp606
(dp607
g74
(dp608
g82
I3
ssg83
g602
sg76
(lp609
S''
asbasbasbag69
(g85
g71
NtRp610
(dp611
g74
(dp612
sg83
g466
sg76
(lp613
g69
(g90
g71
NtRp614
(dp615
g74
(dp616
g94
g95
ssg83
g610
sg76
(lp617
g431
asbag69
(g90
g71
NtRp618
(dp619
g74
(dp620
g101
g102
ssg83
g610
sg76
(lp621
S':'
asbag69
(g90
g71
NtRp622
(dp623
g74
(dp624
sg83
g610
sg76
(lp625
g69
(g70
g71
NtRp626
(dp627
g74
(dp628
g82
I3
ssg83
g622
sg76
(lp629
S''
asbasbasbasbasbasbasbag69
(g85
g71
NtRp630
(dp631
g74
(dp632
sg83
g246
sg76
(lp633
g69
(g90
g71
NtRp634
(dp635
g74
(dp636
g94
g95
ssg83
g630
sg76
(lp637
S'session_id_init'
p638
asbag69
(g90
g71
NtRp639
(dp640
g74
(dp641
g101
g102
ssg83
g630
sg76
(lp642
S':'
asbag69
(g90
g71
NtRp643
(dp644
g74
(dp645
sg83
g630
sg76
(lp646
g69
(g70
g71
NtRp647
(dp648
g74
(dp649
g82
I4
ssg83
g643
sg76
(lp650
S'127.0.0.1-5d866f8a-e112-44ab-84a9-267caae08c70'
p651
ag69
(g78
g71
NtRp652
(dp653
g74
(dp654
g82
I3
ssg83
Nsg76
(lp655
g69
(g85
g71
NtRp656
(dp657
g74
(dp658
sg83
g652
sg76
(lp659
g69
(g90
g71
NtRp660
(dp661
g74
(dp662
g94
g95
ssg83
g656
sg76
(lp663
g284
asbag69
(g90
g71
NtRp664
(dp665
g74
(dp666
g101
g102
ssg83
g656
sg76
(lp667
S':'
asbag69
(g90
g71
NtRp668
(dp669
g74
(dp670
sg83
g656
sg76
(lp671
g69
(g70
g71
NtRp672
(dp673
g74
(dp674
g82
I3
ssg83
g668
sg76
(lp675
S''
asbasbasbag69
(g85
g71
NtRp676
(dp677
g74
(dp678
sg83
g652
sg76
(lp679
g69
(g90
g71
NtRp680
(dp681
g74
(dp682
g94
g95
ssg83
g676
sg76
(lp683
g305
asbag69
(g90
g71
NtRp684
(dp685
g74
(dp686
g101
g102
ssg83
g676
sg76
(lp687
S':'
asbag69
(g90
g71
NtRp688
(dp689
g74
(dp690
sg83
g676
sg76
(lp691
g69
(g70
g71
NtRp692
(dp693
g74
(dp694
g82
I3
ssg83
g688
sg76
(lp695
S''
asbasbasbag69
(g85
g71
NtRp696
(dp697
g74
(dp698
sg83
g652
sg76
(lp699
g69
(g90
g71
NtRp700
(dp701
g74
(dp702
g94
g95
ssg83
g696
sg76
(lp703
g326
asbag69
(g90
g71
NtRp704
(dp705
g74
(dp706
g101
g102
ssg83
g696
sg76
(lp707
S':'
asbag69
(g90
g71
NtRp708
(dp709
g74
(dp710
sg83
g696
sg76
(lp711
g69
(g70
g71
NtRp712
(dp713
g74
(dp714
g82
I3
ssg83
g708
sg76
(lp715
S''
asbasbasbag69
(g85
g71
NtRp716
(dp717
g74
(dp718
sg83
g652
sg76
(lp719
g69
(g90
g71
NtRp720
(dp721
g74
(dp722
g94
g95
ssg83
g716
sg76
(lp723
g347
asbag69
(g90
g71
NtRp724
(dp725
g74
(dp726
g101
g102
ssg83
g716
sg76
(lp727
S':'
asbag69
(g90
g71
NtRp728
(dp729
g74
(dp730
sg83
g716
sg76
(lp731
g69
(g70
g71
NtRp732
(dp733
g74
(dp734
g82
I3
ssg83
g728
sg76
(lp735
S''
asbasbasbag69
(g85
g71
NtRp736
(dp737
g74
(dp738
sg83
g652
sg76
(lp739
g69
(g90
g71
NtRp740
(dp741
g74
(dp742
g94
g95
ssg83
g736
sg76
(lp743
g368
asbag69
(g90
g71
NtRp744
(dp745
g74
(dp746
g101
g102
ssg83
g736
sg76
(lp747
S':'
asbag69
(g90
g71
NtRp748
(dp749
g74
(dp750
sg83
g736
sg76
(lp751
g69
(g70
g71
NtRp752
(dp753
g74
(dp754
g82
I3
ssg83
g748
sg76
(lp755
S''
asbasbasbag69
(g85
g71
NtRp756
(dp757
g74
(dp758
sg83
g652
sg76
(lp759
g69
(g90
g71
NtRp760
(dp761
g74
(dp762
g94
g95
ssg83
g756
sg76
(lp763
g389
asbag69
(g90
g71
NtRp764
(dp765
g74
(dp766
g101
g102
ssg83
g756
sg76
(lp767
S':'
asbag69
(g90
g71
NtRp768
(dp769
g74
(dp770
sg83
g756
sg76
(lp771
g69
(g70
g71
NtRp772
(dp773
g74
(dp774
g82
I3
ssg83
g768
sg76
(lp775
S''
asbasbasbag69
(g85
g71
NtRp776
(dp777
g74
(dp778
sg83
g652
sg76
(lp779
g69
(g90
g71
NtRp780
(dp781
g74
(dp782
g94
g95
ssg83
g776
sg76
(lp783
g410
asbag69
(g90
g71
NtRp784
(dp785
g74
(dp786
g101
g102
ssg83
g776
sg76
(lp787
S':'
asbag69
(g90
g71
NtRp788
(dp789
g74
(dp790
sg83
g776
sg76
(lp791
g69
(g70
g71
NtRp792
(dp793
g74
(dp794
g82
I3
ssg83
g788
sg76
(lp795
S''
asbasbasbag69
(g85
g71
NtRp796
(dp797
g74
(dp798
sg83
g652
sg76
(lp799
g69
(g90
g71
NtRp800
(dp801
g74
(dp802
g94
g95
ssg83
g796
sg76
(lp803
g431
asbag69
(g90
g71
NtRp804
(dp805
g74
(dp806
g101
g102
ssg83
g796
sg76
(lp807
S':'
asbag69
(g90
g71
NtRp808
(dp809
g74
(dp810
sg83
g796
sg76
(lp811
g69
(g70
g71
NtRp812
(dp813
g74
(dp814
g82
I3
ssg83
g808
sg76
(lp815
S''
asbasbasbasbasbasbasbag69
(g85
g71
NtRp816
(dp817
g74
(dp818
sg83
g246
sg76
(lp819
g69
(g90
g71
NtRp820
(dp821
g74
(dp822
g94
g95
ssg83
g816
sg76
(lp823
S'session_id_welcome'
p824
asbag69
(g90
g71
NtRp825
(dp826
g74
(dp827
g101
g102
ssg83
g816
sg76
(lp828
S':'
asbag69
(g90
g71
NtRp829
(dp830
g74
(dp831
sg83
g816
sg76
(lp832
g69
(g70
g71
NtRp833
(dp834
g74
(dp835
g82
I4
ssg83
g829
sg76
(lp836
S'127.0.0.1-413fbb53-8fc7-4016-8695-7ff91d564649'
p837
ag69
(g78
g71
NtRp838
(dp839
g74
(dp840
g82
I3
ssg83
Nsg76
(lp841
g69
(g85
g71
NtRp842
(dp843
g74
(dp844
sg83
g838
sg76
(lp845
g69
(g90
g71
NtRp846
(dp847
g74
(dp848
g94
g95
ssg83
g842
sg76
(lp849
g284
asbag69
(g90
g71
NtRp850
(dp851
g74
(dp852
g101
g102
ssg83
g842
sg76
(lp853
S':'
asbag69
(g90
g71
NtRp854
(dp855
g74
(dp856
sg83
g842
sg76
(lp857
g69
(g70
g71
NtRp858
(dp859
g74
(dp860
g82
I3
ssg83
g854
sg76
(lp861
S''
asbasbasbag69
(g85
g71
NtRp862
(dp863
g74
(dp864
sg83
g838
sg76
(lp865
g69
(g90
g71
NtRp866
(dp867
g74
(dp868
g94
g95
ssg83
g862
sg76
(lp869
g305
asbag69
(g90
g71
NtRp870
(dp871
g74
(dp872
g101
g102
ssg83
g862
sg76
(lp873
S':'
asbag69
(g90
g71
NtRp874
(dp875
g74
(dp876
sg83
g862
sg76
(lp877
g69
(g70
g71
NtRp878
(dp879
g74
(dp880
g82
I3
ssg83
g874
sg76
(lp881
S''
asbasbasbag69
(g85
g71
NtRp882
(dp883
g74
(dp884
sg83
g838
sg76
(lp885
g69
(g90
g71
NtRp886
(dp887
g74
(dp888
g94
g95
ssg83
g882
sg76
(lp889
g326
asbag69
(g90
g71
NtRp890
(dp891
g74
(dp892
g101
g102
ssg83
g882
sg76
(lp893
S':'
asbag69
(g90
g71
NtRp894
(dp895
g74
(dp896
sg83
g882
sg76
(lp897
g69
(g70
g71
NtRp898
(dp899
g74
(dp900
g82
I3
ssg83
g894
sg76
(lp901
S''
asbasbasbag69
(g85
g71
NtRp902
(dp903
g74
(dp904
sg83
g838
sg76
(lp905
g69
(g90
g71
NtRp906
(dp907
g74
(dp908
g94
g95
ssg83
g902
sg76
(lp909
g347
asbag69
(g90
g71
NtRp910
(dp911
g74
(dp912
g101
g102
ssg83
g902
sg76
(lp913
S':'
asbag69
(g90
g71
NtRp914
(dp915
g74
(dp916
sg83
g902
sg76
(lp917
g69
(g70
g71
NtRp918
(dp919
g74
(dp920
g82
I3
ssg83
g914
sg76
(lp921
S''
asbasbasbag69
(g85
g71
NtRp922
(dp923
g74
(dp924
sg83
g838
sg76
(lp925
g69
(g90
g71
NtRp926
(dp927
g74
(dp928
g94
g95
ssg83
g922
sg76
(lp929
g368
asbag69
(g90
g71
NtRp930
(dp931
g74
(dp932
g101
g102
ssg83
g922
sg76
(lp933
S':'
asbag69
(g90
g71
NtRp934
(dp935
g74
(dp936
sg83
g922
sg76
(lp937
g69
(g70
g71
NtRp938
(dp939
g74
(dp940
g82
I3
ssg83
g934
sg76
(lp941
S''
asbasbasbag69
(g85
g71
NtRp942
(dp943
g74
(dp944
sg83
g838
sg76
(lp945
g69
(g90
g71
NtRp946
(dp947
g74
(dp948
g94
g95
ssg83
g942
sg76
(lp949
g389
asbag69
(g90
g71
NtRp950
(dp951
g74
(dp952
g101
g102
ssg83
g942
sg76
(lp953
S':'
asbag69
(g90
g71
NtRp954
(dp955
g74
(dp956
sg83
g942
sg76
(lp957
g69
(g70
g71
NtRp958
(dp959
g74
(dp960
g82
I3
ssg83
g954
sg76
(lp961
S''
asbasbasbag69
(g85
g71
NtRp962
(dp963
g74
(dp964
sg83
g838
sg76
(lp965
g69
(g90
g71
NtRp966
(dp967
g74
(dp968
g94
g95
ssg83
g962
sg76
(lp969
g410
asbag69
(g90
g71
NtRp970
(dp971
g74
(dp972
g101
g102
ssg83
g962
sg76
(lp973
S':'
asbag69
(g90
g71
NtRp974
(dp975
g74
(dp976
sg83
g962
sg76
(lp977
g69
(g70
g71
NtRp978
(dp979
g74
(dp980
g82
I3
ssg83
g974
sg76
(lp981
S''
asbasbasbag69
(g85
g71
NtRp982
(dp983
g74
(dp984
sg83
g838
sg76
(lp985
g69
(g90
g71
NtRp986
(dp987
g74
(dp988
g94
g95
ssg83
g982
sg76
(lp989
g431
asbag69
(g90
g71
NtRp990
(dp991
g74
(dp992
g101
g102
ssg83
g982
sg76
(lp993
S':'
asbag69
(g90
g71
NtRp994
(dp995
g74
(dp996
sg83
g982
sg76
(lp997
g69
(g70
g71
NtRp998
(dp999
g74
(dp1000
g82
I3
ssg83
g994
sg76
(lp1001
S''
asbasbasbasbasbasbasbasbasbasbasbag69
(g85
g71
NtRp1002
(dp1003
g74
(dp1004
sg83
g79
sg76
(lp1005
g69
(g90
g71
NtRp1006
(dp1007
g74
(dp1008
g94
g95
ssg83
g1002
sg76
(lp1009
S'env'
p1010
asbag69
(g90
g71
NtRp1011
(dp1012
g74
(dp1013
g101
g102
ssg83
g1002
sg76
(lp1014
S':'
asbag69
(g90
g71
NtRp1015
(dp1016
g74
(dp1017
sg83
g1002
sg76
(lp1018
g69
(g70
g71
NtRp1019
(dp1020
g74
(dp1021
g82
I5
ssg83
g1015
sg76
(lp1022
g69
(g78
g71
NtRp1023
(dp1024
g74
(dp1025
g82
I4
ssg83
Nsg76
(lp1026
g69
(g85
g71
NtRp1027
(dp1028
g74
(dp1029
sg83
g1023
sg76
(lp1030
g69
(g90
g71
NtRp1031
(dp1032
g74
(dp1033
g94
g95
ssg83
g1027
sg76
(lp1034
S'app_folders'
p1035
asbag69
(g90
g71
NtRp1036
(dp1037
g74
(dp1038
g101
g102
ssg83
g1027
sg76
(lp1039
S':'
asbag69
(g90
g71
NtRp1040
(dp1041
g74
(dp1042
sg83
g1027
sg76
(lp1043
g69
(g70
g71
NtRp1044
(dp1045
g74
(dp1046
g82
I4
ssg83
g1040
sg76
(lp1047
S"set(['c:\\\\Users\\\\rochacbruno\\\\jul12\\\\cursojulho12\\\\web2py\\\\applications\\\\ecommerce\\\\', 'c:\\\\Users\\\\rochacbruno\\\\jul12\\\\cursojulho12\\\\web2py\\\\applications\\\\admin\\\\'])"
p1048
asbasbasbag69
(g85
g71
NtRp1049
(dp1050
g74
(dp1051
sg83
g1023
sg76
(lp1052
g69
(g90
g71
NtRp1053
(dp1054
g74
(dp1055
g94
g95
ssg83
g1049
sg76
(lp1056
S'applications_parent'
p1057
asbag69
(g90
g71
NtRp1058
(dp1059
g74
(dp1060
g101
g102
ssg83
g1049
sg76
(lp1061
S':'
asbag69
(g90
g71
NtRp1062
(dp1063
g74
(dp1064
sg83
g1049
sg76
(lp1065
g69
(g70
g71
NtRp1066
(dp1067
g74
(dp1068
g82
I4
ssg83
g1062
sg76
(lp1069
S'c:\\Users\\rochacbruno\\jul12\\cursojulho12\\web2py'
p1070
asbasbasbag69
(g85
g71
NtRp1071
(dp1072
g74
(dp1073
sg83
g1023
sg76
(lp1074
g69
(g90
g71
NtRp1075
(dp1076
g74
(dp1077
g94
g95
ssg83
g1071
sg76
(lp1078
S'cmd_args'
p1079
asbag69
(g90
g71
NtRp1080
(dp1081
g74
(dp1082
g101
g102
ssg83
g1071
sg76
(lp1083
S':'
asbag69
(g90
g71
NtRp1084
(dp1085
g74
(dp1086
sg83
g1071
sg76
(lp1087
g69
(g70
g71
NtRp1088
(dp1089
g74
(dp1090
g82
I4
ssg83
g1084
sg76
(lp1091
g69
(g78
g71
NtRp1092
(dp1093
g74
(dp1094
g82
I3
ssg83
Nsg76
(lp1095
sbasbasbasbag69
(g85
g71
NtRp1096
(dp1097
g74
(dp1098
sg83
g1023
sg76
(lp1099
g69
(g90
g71
NtRp1100
(dp1101
g74
(dp1102
g94
g95
ssg83
g1096
sg76
(lp1103
S'cmd_options'
p1104
asbag69
(g90
g71
NtRp1105
(dp1106
g74
(dp1107
g101
g102
ssg83
g1096
sg76
(lp1108
S':'
asbag69
(g90
g71
NtRp1109
(dp1110
g74
(dp1111
sg83
g1096
sg76
(lp1112
g69
(g70
g71
NtRp1113
(dp1114
g74
(dp1115
g82
I4
ssg83
g1109
sg76
(lp1116
S"<Values at 0x2af8be8: {'verbose': False, 'ip': '127.0.0.1', 'with_scheduler': False, 'ips': ['192.168.1.100'], 'shutdown_timeout': 5, 'taskbar': False, 'port': 8000, 'maxthreads': None, 'softcron': False, 'server_name': 'rochacbruno-HP', 'bpython': False, 'nogui': False, 'nocron': True, 'extcron': False, 'run_system_tests': False, 'test': None, 'folder': 'c:\\\\Users\\\\rochacbruno\\\\jul12\\\\cursojulho12\\\\web2py', 'config': '', 'import_models': False, 'winservice': '', 'shell': None, 'run': '', 'log_filename': 'httpserver.log', 'debuglevel': 30, 'args': [''], 'socket_timeout': 5, 'ssl_ca_certificate': None, 'scheduler': None, 'profiler_filename': None, 'ssl_private_key': '', 'password': '1234', 'request_queue_size': 5, 'ssl_certificate': '', 'cronjob': False, 'numthreads': None, 'quiet': False, 'interfaces': None, 'minthreads': None, 'timeout': 10, 'plain': False, 'nobanner': False, 'pid_filename': 'httpserver.pid'}>"
p1117
asbasbasbag69
(g85
g71
NtRp1118
(dp1119
g74
(dp1120
sg83
g1023
sg76
(lp1121
g69
(g90
g71
NtRp1122
(dp1123
g74
(dp1124
g94
g95
ssg83
g1118
sg76
(lp1125
S'db_sessions'
p1126
asbag69
(g90
g71
NtRp1127
(dp1128
g74
(dp1129
g101
g102
ssg83
g1118
sg76
(lp1130
S':'
asbag69
(g90
g71
NtRp1131
(dp1132
g74
(dp1133
sg83
g1118
sg76
(lp1134
g69
(g70
g71
NtRp1135
(dp1136
g74
(dp1137
g82
I4
ssg83
g1131
sg76
(lp1138
S'set([])'
p1139
asbasbasbag69
(g85
g71
NtRp1140
(dp1141
g74
(dp1142
sg83
g1023
sg76
(lp1143
g69
(g90
g71
NtRp1144
(dp1145
g74
(dp1146
g94
g95
ssg83
g1140
sg76
(lp1147
S'debugging'
p1148
asbag69
(g90
g71
NtRp1149
(dp1150
g74
(dp1151
g101
g102
ssg83
g1140
sg76
(lp1152
S':'
asbag69
(g90
g71
NtRp1153
(dp1154
g74
(dp1155
sg83
g1140
sg76
(lp1156
g69
(g70
g71
NtRp1157
(dp1158
g74
(dp1159
g82
I4
ssg83
g1153
sg76
(lp1160
g112
asbasbasbag69
(g85
g71
NtRp1161
(dp1162
g74
(dp1163
sg83
g1023
sg76
(lp1164
g69
(g90
g71
NtRp1165
(dp1166
g74
(dp1167
g94
g95
ssg83
g1161
sg76
(lp1168
S'gluon_parent'
p1169
asbag69
(g90
g71
NtRp1170
(dp1171
g74
(dp1172
g101
g102
ssg83
g1161
sg76
(lp1173
S':'
asbag69
(g90
g71
NtRp1174
(dp1175
g74
(dp1176
sg83
g1161
sg76
(lp1177
g69
(g70
g71
NtRp1178
(dp1179
g74
(dp1180
g82
I4
ssg83
g1174
sg76
(lp1181
S'c:\\Users\\rochacbruno\\jul12\\cursojulho12\\web2py'
p1182
asbasbasbag69
(g85
g71
NtRp1183
(dp1184
g74
(dp1185
sg83
g1023
sg76
(lp1186
g69
(g90
g71
NtRp1187
(dp1188
g74
(dp1189
g94
g95
ssg83
g1183
sg76
(lp1190
S'http_accept'
p1191
asbag69
(g90
g71
NtRp1192
(dp1193
g74
(dp1194
g101
g102
ssg83
g1183
sg76
(lp1195
S':'
asbag69
(g90
g71
NtRp1196
(dp1197
g74
(dp1198
sg83
g1183
sg76
(lp1199
g69
(g70
g71
NtRp1200
(dp1201
g74
(dp1202
g82
I4
ssg83
g1196
sg76
(lp1203
S'text/html,application/xhtml+xml,application/xml;q=0.9,*/*;q=0.8'
p1204
asbasbasbag69
(g85
g71
NtRp1205
(dp1206
g74
(dp1207
sg83
g1023
sg76
(lp1208
g69
(g90
g71
NtRp1209
(dp1210
g74
(dp1211
g94
g95
ssg83
g1205
sg76
(lp1212
S'http_accept_encoding'
p1213
asbag69
(g90
g71
NtRp1214
(dp1215
g74
(dp1216
g101
g102
ssg83
g1205
sg76
(lp1217
S':'
asbag69
(g90
g71
NtRp1218
(dp1219
g74
(dp1220
sg83
g1205
sg76
(lp1221
g69
(g70
g71
NtRp1222
(dp1223
g74
(dp1224
g82
I4
ssg83
g1218
sg76
(lp1225
S'gzip, deflate'
p1226
asbasbasbag69
(g85
g71
NtRp1227
(dp1228
g74
(dp1229
sg83
g1023
sg76
(lp1230
g69
(g90
g71
NtRp1231
(dp1232
g74
(dp1233
g94
g95
ssg83
g1227
sg76
(lp1234
S'http_accept_language'
p1235
asbag69
(g90
g71
NtRp1236
(dp1237
g74
(dp1238
g101
g102
ssg83
g1227
sg76
(lp1239
S':'
asbag69
(g90
g71
NtRp1240
(dp1241
g74
(dp1242
sg83
g1227
sg76
(lp1243
g69
(g70
g71
NtRp1244
(dp1245
g74
(dp1246
g82
I4
ssg83
g1240
sg76
(lp1247
S'en,pt-br;q=0.8,pt;q=0.5,en-us;q=0.3'
p1248
asbasbasbag69
(g85
g71
NtRp1249
(dp1250
g74
(dp1251
sg83
g1023
sg76
(lp1252
g69
(g90
g71
NtRp1253
(dp1254
g74
(dp1255
g94
g95
ssg83
g1249
sg76
(lp1256
S'http_cache_control'
p1257
asbag69
(g90
g71
NtRp1258
(dp1259
g74
(dp1260
g101
g102
ssg83
g1249
sg76
(lp1261
S':'
asbag69
(g90
g71
NtRp1262
(dp1263
g74
(dp1264
sg83
g1249
sg76
(lp1265
g69
(g70
g71
NtRp1266
(dp1267
g74
(dp1268
g82
I4
ssg83
g1262
sg76
(lp1269
S'max-age=0'
p1270
asbasbasbag69
(g85
g71
NtRp1271
(dp1272
g74
(dp1273
sg83
g1023
sg76
(lp1274
g69
(g90
g71
NtRp1275
(dp1276
g74
(dp1277
g94
g95
ssg83
g1271
sg76
(lp1278
S'http_connection'
p1279
asbag69
(g90
g71
NtRp1280
(dp1281
g74
(dp1282
g101
g102
ssg83
g1271
sg76
(lp1283
S':'
asbag69
(g90
g71
NtRp1284
(dp1285
g74
(dp1286
sg83
g1271
sg76
(lp1287
g69
(g70
g71
NtRp1288
(dp1289
g74
(dp1290
g82
I4
ssg83
g1284
sg76
(lp1291
S'keep-alive'
p1292
asbasbasbag69
(g85
g71
NtRp1293
(dp1294
g74
(dp1295
sg83
g1023
sg76
(lp1296
g69
(g90
g71
NtRp1297
(dp1298
g74
(dp1299
g94
g95
ssg83
g1293
sg76
(lp1300
S'http_cookie'
p1301
asbag69
(g90
g71
NtRp1302
(dp1303
g74
(dp1304
g101
g102
ssg83
g1293
sg76
(lp1305
S':'
asbag69
(g90
g71
NtRp1306
(dp1307
g74
(dp1308
sg83
g1293
sg76
(lp1309
g69
(g70
g71
NtRp1310
(dp1311
g74
(dp1312
g82
I4
ssg83
g1306
sg76
(lp1313
S'session_id_admin=127.0.0.1-4873ed00-b716-4b13-a1bb-7fdaa43562f3; session_id_ecommerce=127.0.0.1-0fe94d39-4aae-427f-bfbc-597a65cd32c1; session_id_welcome=127.0.0.1-413fbb53-8fc7-4016-8695-7ff91d564649; session_id_init=127.0.0.1-5d866f8a-e112-44ab-84a9-267caae08c70'
p1314
asbasbasbag69
(g85
g71
NtRp1315
(dp1316
g74
(dp1317
sg83
g1023
sg76
(lp1318
g69
(g90
g71
NtRp1319
(dp1320
g74
(dp1321
g94
g95
ssg83
g1315
sg76
(lp1322
S'http_host'
p1323
asbag69
(g90
g71
NtRp1324
(dp1325
g74
(dp1326
g101
g102
ssg83
g1315
sg76
(lp1327
S':'
asbag69
(g90
g71
NtRp1328
(dp1329
g74
(dp1330
sg83
g1315
sg76
(lp1331
g69
(g70
g71
NtRp1332
(dp1333
g74
(dp1334
g82
I4
ssg83
g1328
sg76
(lp1335
S'localhost:8000'
p1336
asbasbasbag69
(g85
g71
NtRp1337
(dp1338
g74
(dp1339
sg83
g1023
sg76
(lp1340
g69
(g90
g71
NtRp1341
(dp1342
g74
(dp1343
g94
g95
ssg83
g1337
sg76
(lp1344
S'http_user_agent'
p1345
asbag69
(g90
g71
NtRp1346
(dp1347
g74
(dp1348
g101
g102
ssg83
g1337
sg76
(lp1349
S':'
asbag69
(g90
g71
NtRp1350
(dp1351
g74
(dp1352
sg83
g1337
sg76
(lp1353
g69
(g70
g71
NtRp1354
(dp1355
g74
(dp1356
g82
I4
ssg83
g1350
sg76
(lp1357
S'Mozilla/5.0 (Windows NT 6.1; rv:14.0) Gecko/20100101 Firefox/14.0.1'
p1358
asbasbasbag69
(g85
g71
NtRp1359
(dp1360
g74
(dp1361
sg83
g1023
sg76
(lp1362
g69
(g90
g71
NtRp1363
(dp1364
g74
(dp1365
g94
g95
ssg83
g1359
sg76
(lp1366
S'is_jython'
p1367
asbag69
(g90
g71
NtRp1368
(dp1369
g74
(dp1370
g101
g102
ssg83
g1359
sg76
(lp1371
S':'
asbag69
(g90
g71
NtRp1372
(dp1373
g74
(dp1374
sg83
g1359
sg76
(lp1375
g69
(g70
g71
NtRp1376
(dp1377
g74
(dp1378
g82
I4
ssg83
g1372
sg76
(lp1379
g112
asbasbasbag69
(g85
g71
NtRp1380
(dp1381
g74
(dp1382
sg83
g1023
sg76
(lp1383
g69
(g90
g71
NtRp1384
(dp1385
g74
(dp1386
g94
g95
ssg83
g1380
sg76
(lp1387
S'is_pypy'
p1388
asbag69
(g90
g71
NtRp1389
(dp1390
g74
(dp1391
g101
g102
ssg83
g1380
sg76
(lp1392
S':'
asbag69
(g90
g71
NtRp1393
(dp1394
g74
(dp1395
sg83
g1380
sg76
(lp1396
g69
(g70
g71
NtRp1397
(dp1398
g74
(dp1399
g82
I4
ssg83
g1393
sg76
(lp1400
g112
asbasbasbag69
(g85
g71
NtRp1401
(dp1402
g74
(dp1403
sg83
g1023
sg76
(lp1404
g69
(g90
g71
NtRp1405
(dp1406
g74
(dp1407
g94
g95
ssg83
g1401
sg76
(lp1408
S'path_info'
p1409
asbag69
(g90
g71
NtRp1410
(dp1411
g74
(dp1412
g101
g102
ssg83
g1401
sg76
(lp1413
S':'
asbag69
(g90
g71
NtRp1414
(dp1415
g74
(dp1416
sg83
g1401
sg76
(lp1417
g69
(g70
g71
NtRp1418
(dp1419
g74
(dp1420
g82
I4
ssg83
g1414
sg76
(lp1421
S'/product/new'
p1422
asbasbasbag69
(g85
g71
NtRp1423
(dp1424
g74
(dp1425
sg83
g1023
sg76
(lp1426
g69
(g90
g71
NtRp1427
(dp1428
g74
(dp1429
g94
g95
ssg83
g1423
sg76
(lp1430
S'query_string'
p1431
asbag69
(g90
g71
NtRp1432
(dp1433
g74
(dp1434
g101
g102
ssg83
g1423
sg76
(lp1435
S':'
asbag69
(g90
g71
NtRp1436
(dp1437
g74
(dp1438
sg83
g1423
sg76
(lp1439
g69
(g70
g71
NtRp1440
(dp1441
g74
(dp1442
g82
I4
ssg83
g1436
sg76
(lp1443
S''
asbasbasbag69
(g85
g71
NtRp1444
(dp1445
g74
(dp1446
sg83
g1023
sg76
(lp1447
g69
(g90
g71
NtRp1448
(dp1449
g74
(dp1450
g94
g95
ssg83
g1444
sg76
(lp1451
S'remote_addr'
p1452
asbag69
(g90
g71
NtRp1453
(dp1454
g74
(dp1455
g101
g102
ssg83
g1444
sg76
(lp1456
S':'
asbag69
(g90
g71
NtRp1457
(dp1458
g74
(dp1459
sg83
g1444
sg76
(lp1460
g69
(g70
g71
NtRp1461
(dp1462
g74
(dp1463
g82
I4
ssg83
g1457
sg76
(lp1464
g202
asbasbasbag69
(g85
g71
NtRp1465
(dp1466
g74
(dp1467
sg83
g1023
sg76
(lp1468
g69
(g90
g71
NtRp1469
(dp1470
g74
(dp1471
g94
g95
ssg83
g1465
sg76
(lp1472
S'remote_port'
p1473
asbag69
(g90
g71
NtRp1474
(dp1475
g74
(dp1476
g101
g102
ssg83
g1465
sg76
(lp1477
S':'
asbag69
(g90
g71
NtRp1478
(dp1479
g74
(dp1480
sg83
g1465
sg76
(lp1481
g69
(g70
g71
NtRp1482
(dp1483
g74
(dp1484
g82
I4
ssg83
g1478
sg76
(lp1485
S'50045'
p1486
asbasbasbag69
(g85
g71
NtRp1487
(dp1488
g74
(dp1489
sg83
g1023
sg76
(lp1490
g69
(g90
g71
NtRp1491
(dp1492
g74
(dp1493
g94
g95
ssg83
g1487
sg76
(lp1494
S'request_method'
p1495
asbag69
(g90
g71
NtRp1496
(dp1497
g74
(dp1498
g101
g102
ssg83
g1487
sg76
(lp1499
S':'
asbag69
(g90
g71
NtRp1500
(dp1501
g74
(dp1502
sg83
g1487
sg76
(lp1503
g69
(g70
g71
NtRp1504
(dp1505
g74
(dp1506
g82
I4
ssg83
g1500
sg76
(lp1507
S'GET'
p1508
asbasbasbag69
(g85
g71
NtRp1509
(dp1510
g74
(dp1511
sg83
g1023
sg76
(lp1512
g69
(g90
g71
NtRp1513
(dp1514
g74
(dp1515
g94
g95
ssg83
g1509
sg76
(lp1516
S'request_uri'
p1517
asbag69
(g90
g71
NtRp1518
(dp1519
g74
(dp1520
g101
g102
ssg83
g1509
sg76
(lp1521
S':'
asbag69
(g90
g71
NtRp1522
(dp1523
g74
(dp1524
sg83
g1509
sg76
(lp1525
g69
(g70
g71
NtRp1526
(dp1527
g74
(dp1528
g82
I4
ssg83
g1522
sg76
(lp1529
S'/ecommerce/product/new'
p1530
asbasbasbag69
(g85
g71
NtRp1531
(dp1532
g74
(dp1533
sg83
g1023
sg76
(lp1534
g69
(g90
g71
NtRp1535
(dp1536
g74
(dp1537
g94
g95
ssg83
g1531
sg76
(lp1538
S'script_name'
p1539
asbag69
(g90
g71
NtRp1540
(dp1541
g74
(dp1542
g101
g102
ssg83
g1531
sg76
(lp1543
S':'
asbag69
(g90
g71
NtRp1544
(dp1545
g74
(dp1546
sg83
g1531
sg76
(lp1547
g69
(g70
g71
NtRp1548
(dp1549
g74
(dp1550
g82
I4
ssg83
g1544
sg76
(lp1551
S''
asbasbasbag69
(g85
g71
NtRp1552
(dp1553
g74
(dp1554
sg83
g1023
sg76
(lp1555
g69
(g90
g71
NtRp1556
(dp1557
g74
(dp1558
g94
g95
ssg83
g1552
sg76
(lp1559
S'server_name'
p1560
asbag69
(g90
g71
NtRp1561
(dp1562
g74
(dp1563
g101
g102
ssg83
g1552
sg76
(lp1564
S':'
asbag69
(g90
g71
NtRp1565
(dp1566
g74
(dp1567
sg83
g1552
sg76
(lp1568
g69
(g70
g71
NtRp1569
(dp1570
g74
(dp1571
g82
I4
ssg83
g1565
sg76
(lp1572
S'rochacbruno-HP'
p1573
asbasbasbag69
(g85
g71
NtRp1574
(dp1575
g74
(dp1576
sg83
g1023
sg76
(lp1577
g69
(g90
g71
NtRp1578
(dp1579
g74
(dp1580
g94
g95
ssg83
g1574
sg76
(lp1581
S'server_port'
p1582
asbag69
(g90
g71
NtRp1583
(dp1584
g74
(dp1585
g101
g102
ssg83
g1574
sg76
(lp1586
S':'
asbag69
(g90
g71
NtRp1587
(dp1588
g74
(dp1589
sg83
g1574
sg76
(lp1590
g69
(g70
g71
NtRp1591
(dp1592
g74
(dp1593
g82
I4
ssg83
g1587
sg76
(lp1594
S'8000'
p1595
asbasbasbag69
(g85
g71
NtRp1596
(dp1597
g74
(dp1598
sg83
g1023
sg76
(lp1599
g69
(g90
g71
NtRp1600
(dp1601
g74
(dp1602
g94
g95
ssg83
g1596
sg76
(lp1603
S'server_protocol'
p1604
asbag69
(g90
g71
NtRp1605
(dp1606
g74
(dp1607
g101
g102
ssg83
g1596
sg76
(lp1608
S':'
asbag69
(g90
g71
NtRp1609
(dp1610
g74
(dp1611
sg83
g1596
sg76
(lp1612
g69
(g70
g71
NtRp1613
(dp1614
g74
(dp1615
g82
I4
ssg83
g1609
sg76
(lp1616
S'HTTP/1.1'
p1617
asbasbasbag69
(g85
g71
NtRp1618
(dp1619
g74
(dp1620
sg83
g1023
sg76
(lp1621
g69
(g90
g71
NtRp1622
(dp1623
g74
(dp1624
g94
g95
ssg83
g1618
sg76
(lp1625
S'server_software'
p1626
asbag69
(g90
g71
NtRp1627
(dp1628
g74
(dp1629
g101
g102
ssg83
g1618
sg76
(lp1630
S':'
asbag69
(g90
g71
NtRp1631
(dp1632
g74
(dp1633
sg83
g1618
sg76
(lp1634
g69
(g70
g71
NtRp1635
(dp1636
g74
(dp1637
g82
I4
ssg83
g1631
sg76
(lp1638
S'Rocket 1.2.4'
p1639
asbasbasbag69
(g85
g71
NtRp1640
(dp1641
g74
(dp1642
sg83
g1023
sg76
(lp1643
g69
(g90
g71
NtRp1644
(dp1645
g74
(dp1646
g94
g95
ssg83
g1640
sg76
(lp1647
S'web2py_original_uri'
p1648
asbag69
(g90
g71
NtRp1649
(dp1650
g74
(dp1651
g101
g102
ssg83
g1640
sg76
(lp1652
S':'
asbag69
(g90
g71
NtRp1653
(dp1654
g74
(dp1655
sg83
g1640
sg76
(lp1656
g69
(g70
g71
NtRp1657
(dp1658
g74
(dp1659
g82
I4
ssg83
g1653
sg76
(lp1660
g1422
asbasbasbag69
(g85
g71
NtRp1661
(dp1662
g74
(dp1663
sg83
g1023
sg76
(lp1664
g69
(g90
g71
NtRp1665
(dp1666
g74
(dp1667
g94
g95
ssg83
g1661
sg76
(lp1668
S'web2py_path'
p1669
asbag69
(g90
g71
NtRp1670
(dp1671
g74
(dp1672
g101
g102
ssg83
g1661
sg76
(lp1673
S':'
asbag69
(g90
g71
NtRp1674
(dp1675
g74
(dp1676
sg83
g1661
sg76
(lp1677
g69
(g70
g71
NtRp1678
(dp1679
g74
(dp1680
g82
I4
ssg83
g1674
sg76
(lp1681
g1070
asbasbasbag69
(g85
g71
NtRp1682
(dp1683
g74
(dp1684
sg83
g1023
sg76
(lp1685
g69
(g90
g71
NtRp1686
(dp1687
g74
(dp1688
g94
g95
ssg83
g1682
sg76
(lp1689
S'web2py_version'
p1690
asbag69
(g90
g71
NtRp1691
(dp1692
g74
(dp1693
g101
g102
ssg83
g1682
sg76
(lp1694
S':'
asbag69
(g90
g71
NtRp1695
(dp1696
g74
(dp1697
sg83
g1682
sg76
(lp1698
g69
(g70
g71
NtRp1699
(dp1700
g74
(dp1701
g82
I4
ssg83
g1695
sg76
(lp1702
g69
(g78
g71
NtRp1703
(dp1704
g74
(dp1705
g82
I3
ssg83
Nsg76
(lp1706
g69
(g85
g71
NtRp1707
(dp1708
g74
(dp1709
sg83
g1703
sg76
(lp1710
g69
(g90
g71
NtRp1711
(dp1712
g74
(dp1713
sg83
g1707
sg76
(lp1714
g69
(g70
g71
NtRp1715
(dp1716
g74
(dp1717
g82
I3
ssg83
g1711
sg76
(lp1718
S'2'
asbasbasbag69
(g85
g71
NtRp1719
(dp1720
g74
(dp1721
sg83
g1703
sg76
(lp1722
g69
(g90
g71
NtRp1723
(dp1724
g74
(dp1725
sg83
g1719
sg76
(lp1726
g69
(g70
g71
NtRp1727
(dp1728
g74
(dp1729
g82
I3
ssg83
g1723
sg76
(lp1730
S'0'
asbasbasbag69
(g85
g71
NtRp1731
(dp1732
g74
(dp1733
sg83
g1703
sg76
(lp1734
g69
(g90
g71
NtRp1735
(dp1736
g74
(dp1737
sg83
g1731
sg76
(lp1738
g69
(g70
g71
NtRp1739
(dp1740
g74
(dp1741
g82
I3
ssg83
g1735
sg76
(lp1742
S'0'
asbasbasbag69
(g85
g71
NtRp1743
(dp1744
g74
(dp1745
sg83
g1703
sg76
(lp1746
g69
(g90
g71
NtRp1747
(dp1748
g74
(dp1749
sg83
g1743
sg76
(lp1750
g69
(g70
g71
NtRp1751
(dp1752
g74
(dp1753
g82
I3
ssg83
g1747
sg76
(lp1754
S'datetime.datetime(2012, 8, 10, 13, 1, 31)'
p1755
asbasbasbag69
(g85
g71
NtRp1756
(dp1757
g74
(dp1758
sg83
g1703
sg76
(lp1759
g69
(g90
g71
NtRp1760
(dp1761
g74
(dp1762
sg83
g1756
sg76
(lp1763
g69
(g70
g71
NtRp1764
(dp1765
g74
(dp1766
g82
I3
ssg83
g1760
sg76
(lp1767
S'dev'
p1768
asbasbasbasbasbasbasbag69
(g85
g71
NtRp1769
(dp1770
g74
(dp1771
sg83
g1023
sg76
(lp1772
g69
(g90
g71
NtRp1773
(dp1774
g74
(dp1775
g94
g95
ssg83
g1769
sg76
(lp1776
S'wsgi_errors'
p1777
asbag69
(g90
g71
NtRp1778
(dp1779
g74
(dp1780
g101
g102
ssg83
g1769
sg76
(lp1781
S':'
asbag69
(g90
g71
NtRp1782
(dp1783
g74
(dp1784
sg83
g1769
sg76
(lp1785
g69
(g70
g71
NtRp1786
(dp1787
g74
(dp1788
g82
I4
ssg83
g1782
sg76
(lp1789
S"<open file '<stderr>', mode 'w' at 0x012750D0>"
p1790
asbasbasbag69
(g85
g71
NtRp1791
(dp1792
g74
(dp1793
sg83
g1023
sg76
(lp1794
g69
(g90
g71
NtRp1795
(dp1796
g74
(dp1797
g94
g95
ssg83
g1791
sg76
(lp1798
S'wsgi_file_wrapper'
p1799
asbag69
(g90
g71
NtRp1800
(dp1801
g74
(dp1802
g101
g102
ssg83
g1791
sg76
(lp1803
S':'
asbag69
(g90
g71
NtRp1804
(dp1805
g74
(dp1806
sg83
g1791
sg76
(lp1807
g69
(g70
g71
NtRp1808
(dp1809
g74
(dp1810
g82
I4
ssg83
g1804
sg76
(lp1811
S'<class wsgiref.util.FileWrapper at 0x02A383B0>'
p1812
asbasbasbag69
(g85
g71
NtRp1813
(dp1814
g74
(dp1815
sg83
g1023
sg76
(lp1816
g69
(g90
g71
NtRp1817
(dp1818
g74
(dp1819
g94
g95
ssg83
g1813
sg76
(lp1820
S'wsgi_input'
p1821
asbag69
(g90
g71
NtRp1822
(dp1823
g74
(dp1824
g101
g102
ssg83
g1813
sg76
(lp1825
S':'
asbag69
(g90
g71
NtRp1826
(dp1827
g74
(dp1828
sg83
g1813
sg76
(lp1829
g69
(g70
g71
NtRp1830
(dp1831
g74
(dp1832
g82
I4
ssg83
g1826
sg76
(lp1833
S'<socket._fileobject object at 0x05AD32F0>'
p1834
asbasbasbag69
(g85
g71
NtRp1835
(dp1836
g74
(dp1837
sg83
g1023
sg76
(lp1838
g69
(g90
g71
NtRp1839
(dp1840
g74
(dp1841
g94
g95
ssg83
g1835
sg76
(lp1842
S'wsgi_multiprocess'
p1843
asbag69
(g90
g71
NtRp1844
(dp1845
g74
(dp1846
g101
g102
ssg83
g1835
sg76
(lp1847
S':'
asbag69
(g90
g71
NtRp1848
(dp1849
g74
(dp1850
sg83
g1835
sg76
(lp1851
g69
(g70
g71
NtRp1852
(dp1853
g74
(dp1854
g82
I4
ssg83
g1848
sg76
(lp1855
g112
asbasbasbag69
(g85
g71
NtRp1856
(dp1857
g74
(dp1858
sg83
g1023
sg76
(lp1859
g69
(g90
g71
NtRp1860
(dp1861
g74
(dp1862
g94
g95
ssg83
g1856
sg76
(lp1863
S'wsgi_multithread'
p1864
asbag69
(g90
g71
NtRp1865
(dp1866
g74
(dp1867
g101
g102
ssg83
g1856
sg76
(lp1868
S':'
asbag69
(g90
g71
NtRp1869
(dp1870
g74
(dp1871
sg83
g1856
sg76
(lp1872
g69
(g70
g71
NtRp1873
(dp1874
g74
(dp1875
g82
I4
ssg83
g1869
sg76
(lp1876
S'True'
p1877
asbasbasbag69
(g85
g71
NtRp1878
(dp1879
g74
(dp1880
sg83
g1023
sg76
(lp1881
g69
(g90
g71
NtRp1882
(dp1883
g74
(dp1884
g94
g95
ssg83
g1878
sg76
(lp1885
S'wsgi_run_once'
p1886
asbag69
(g90
g71
NtRp1887
(dp1888
g74
(dp1889
g101
g102
ssg83
g1878
sg76
(lp1890
S':'
asbag69
(g90
g71
NtRp1891
(dp1892
g74
(dp1893
sg83
g1878
sg76
(lp1894
g69
(g70
g71
NtRp1895
(dp1896
g74
(dp1897
g82
I4
ssg83
g1891
sg76
(lp1898
g112
asbasbasbag69
(g85
g71
NtRp1899
(dp1900
g74
(dp1901
sg83
g1023
sg76
(lp1902
g69
(g90
g71
NtRp1903
(dp1904
g74
(dp1905
g94
g95
ssg83
g1899
sg76
(lp1906
S'wsgi_url_scheme'
p1907
asbag69
(g90
g71
NtRp1908
(dp1909
g74
(dp1910
g101
g102
ssg83
g1899
sg76
(lp1911
S':'
asbag69
(g90
g71
NtRp1912
(dp1913
g74
(dp1914
sg83
g1899
sg76
(lp1915
g69
(g70
g71
NtRp1916
(dp1917
g74
(dp1918
g82
I4
ssg83
g1912
sg76
(lp1919
S'http'
p1920
asbasbasbag69
(g85
g71
NtRp1921
(dp1922
g74
(dp1923
sg83
g1023
sg76
(lp1924
g69
(g90
g71
NtRp1925
(dp1926
g74
(dp1927
g94
g95
ssg83
g1921
sg76
(lp1928
S'wsgi_version'
p1929
asbag69
(g90
g71
NtRp1930
(dp1931
g74
(dp1932
g101
g102
ssg83
g1921
sg76
(lp1933
S':'
asbag69
(g90
g71
NtRp1934
(dp1935
g74
(dp1936
sg83
g1921
sg76
(lp1937
g69
(g70
g71
NtRp1938
(dp1939
g74
(dp1940
g82
I4
ssg83
g1934
sg76
(lp1941
g69
(g78
g71
NtRp1942
(dp1943
g74
(dp1944
g82
I3
ssg83
Nsg76
(lp1945
g69
(g85
g71
NtRp1946
(dp1947
g74
(dp1948
sg83
g1942
sg76
(lp1949
g69
(g90
g71
NtRp1950
(dp1951
g74
(dp1952
sg83
g1946
sg76
(lp1953
g69
(g70
g71
NtRp1954
(dp1955
g74
(dp1956
g82
I3
ssg83
g1950
sg76
(lp1957
S'1'
asbasbasbag69
(g85
g71
NtRp1958
(dp1959
g74
(dp1960
sg83
g1942
sg76
(lp1961
g69
(g90
g71
NtRp1962
(dp1963
g74
(dp1964
sg83
g1958
sg76
(lp1965
g69
(g70
g71
NtRp1966
(dp1967
g74
(dp1968
g82
I3
ssg83
g1962
sg76
(lp1969
S'0'
asbasbasbasbasbasbasbasbasbasbasbag69
(g85
g71
NtRp1970
(dp1971
g74
(dp1972
sg83
g79
sg76
(lp1973
g69
(g90
g71
NtRp1974
(dp1975
g74
(dp1976
g94
g95
ssg83
g1970
sg76
(lp1977
S'extension'
p1978
asbag69
(g90
g71
NtRp1979
(dp1980
g74
(dp1981
g101
g102
ssg83
g1970
sg76
(lp1982
S':'
asbag69
(g90
g71
NtRp1983
(dp1984
g74
(dp1985
sg83
g1970
sg76
(lp1986
g69
(g70
g71
NtRp1987
(dp1988
g74
(dp1989
g82
I5
ssg83
g1983
sg76
(lp1990
S'html'
p1991
asbasbasbag69
(g85
g71
NtRp1992
(dp1993
g74
(dp1994
sg83
g79
sg76
(lp1995
g69
(g90
g71
NtRp1996
(dp1997
g74
(dp1998
g94
g95
ssg83
g1992
sg76
(lp1999
S'folder'
p2000
asbag69
(g90
g71
NtRp2001
(dp2002
g74
(dp2003
g101
g102
ssg83
g1992
sg76
(lp2004
S':'
asbag69
(g90
g71
NtRp2005
(dp2006
g74
(dp2007
sg83
g1992
sg76
(lp2008
g69
(g70
g71
NtRp2009
(dp2010
g74
(dp2011
g82
I5
ssg83
g2005
sg76
(lp2012
S'c:\\Users\\rochacbruno\\jul12\\cursojulho12\\web2py\\applications\\ecommerce\\'
p2013
asbasbasbag69
(g85
g71
NtRp2014
(dp2015
g74
(dp2016
sg83
g79
sg76
(lp2017
g69
(g90
g71
NtRp2018
(dp2019
g74
(dp2020
g94
g95
ssg83
g2014
sg76
(lp2021
S'function'
p2022
asbag69
(g90
g71
NtRp2023
(dp2024
g74
(dp2025
g101
g102
ssg83
g2014
sg76
(lp2026
S':'
asbag69
(g90
g71
NtRp2027
(dp2028
g74
(dp2029
sg83
g2014
sg76
(lp2030
g69
(g70
g71
NtRp2031
(dp2032
g74
(dp2033
g82
I5
ssg83
g2027
sg76
(lp2034
S'new'
p2035
asbasbasbag69
(g85
g71
NtRp2036
(dp2037
g74
(dp2038
sg83
g79
sg76
(lp2039
g69
(g90
g71
NtRp2040
(dp2041
g74
(dp2042
g94
g95
ssg83
g2036
sg76
(lp2043
S'get_vars'
p2044
asbag69
(g90
g71
NtRp2045
(dp2046
g74
(dp2047
g101
g102
ssg83
g2036
sg76
(lp2048
S':'
asbag69
(g90
g71
NtRp2049
(dp2050
g74
(dp2051
sg83
g2036
sg76
(lp2052
g69
(g70
g71
NtRp2053
(dp2054
g74
(dp2055
g82
I5
ssg83
g2049
sg76
(lp2056
g69
(g78
g71
NtRp2057
(dp2058
g74
(dp2059
g82
I4
ssg83
Nsg76
(lp2060
sbasbasbasbag69
(g85
g71
NtRp2061
(dp2062
g74
(dp2063
sg83
g79
sg76
(lp2064
g69
(g90
g71
NtRp2065
(dp2066
g74
(dp2067
g94
g95
ssg83
g2061
sg76
(lp2068
S'global_settings'
p2069
asbag69
(g90
g71
NtRp2070
(dp2071
g74
(dp2072
g101
g102
ssg83
g2061
sg76
(lp2073
S':'
asbag69
(g90
g71
NtRp2074
(dp2075
g74
(dp2076
sg83
g2061
sg76
(lp2077
g69
(g70
g71
NtRp2078
(dp2079
g74
(dp2080
g82
I5
ssg83
g2074
sg76
(lp2081
g69
(g78
g71
NtRp2082
(dp2083
g74
(dp2084
g82
I4
ssg83
Nsg76
(lp2085
g69
(g85
g71
NtRp2086
(dp2087
g74
(dp2088
sg83
g2082
sg76
(lp2089
g69
(g90
g71
NtRp2090
(dp2091
g74
(dp2092
g94
g95
ssg83
g2086
sg76
(lp2093
g1035
asbag69
(g90
g71
NtRp2094
(dp2095
g74
(dp2096
g101
g102
ssg83
g2086
sg76
(lp2097
S':'
asbag69
(g90
g71
NtRp2098
(dp2099
g74
(dp2100
sg83
g2086
sg76
(lp2101
g69
(g70
g71
NtRp2102
(dp2103
g74
(dp2104
g82
I4
ssg83
g2098
sg76
(lp2105
S"set(['c:\\\\Users\\\\rochacbruno\\\\jul12\\\\cursojulho12\\\\web2py\\\\applications\\\\ecommerce\\\\', 'c:\\\\Users\\\\rochacbruno\\\\jul12\\\\cursojulho12\\\\web2py\\\\applications\\\\admin\\\\'])"
p2106
asbasbasbag69
(g85
g71
NtRp2107
(dp2108
g74
(dp2109
sg83
g2082
sg76
(lp2110
g69
(g90
g71
NtRp2111
(dp2112
g74
(dp2113
g94
g95
ssg83
g2107
sg76
(lp2114
g1057
asbag69
(g90
g71
NtRp2115
(dp2116
g74
(dp2117
g101
g102
ssg83
g2107
sg76
(lp2118
S':'
asbag69
(g90
g71
NtRp2119
(dp2120
g74
(dp2121
sg83
g2107
sg76
(lp2122
g69
(g70
g71
NtRp2123
(dp2124
g74
(dp2125
g82
I4
ssg83
g2119
sg76
(lp2126
g1070
asbasbasbag69
(g85
g71
NtRp2127
(dp2128
g74
(dp2129
sg83
g2082
sg76
(lp2130
g69
(g90
g71
NtRp2131
(dp2132
g74
(dp2133
g94
g95
ssg83
g2127
sg76
(lp2134
g1079
asbag69
(g90
g71
NtRp2135
(dp2136
g74
(dp2137
g101
g102
ssg83
g2127
sg76
(lp2138
S':'
asbag69
(g90
g71
NtRp2139
(dp2140
g74
(dp2141
sg83
g2127
sg76
(lp2142
g69
(g70
g71
NtRp2143
(dp2144
g74
(dp2145
g82
I4
ssg83
g2139
sg76
(lp2146
g69
(g78
g71
NtRp2147
(dp2148
g74
(dp2149
g82
I3
ssg83
Nsg76
(lp2150
sbasbasbasbag69
(g85
g71
NtRp2151
(dp2152
g74
(dp2153
sg83
g2082
sg76
(lp2154
g69
(g90
g71
NtRp2155
(dp2156
g74
(dp2157
g94
g95
ssg83
g2151
sg76
(lp2158
g1104
asbag69
(g90
g71
NtRp2159
(dp2160
g74
(dp2161
g101
g102
ssg83
g2151
sg76
(lp2162
S':'
asbag69
(g90
g71
NtRp2163
(dp2164
g74
(dp2165
sg83
g2151
sg76
(lp2166
g69
(g70
g71
NtRp2167
(dp2168
g74
(dp2169
g82
I4
ssg83
g2163
sg76
(lp2170
S"<Values at 0x2af8be8: {'verbose': False, 'ip': '127.0.0.1', 'with_scheduler': False, 'ips': ['192.168.1.100'], 'shutdown_timeout': 5, 'taskbar': False, 'port': 8000, 'maxthreads': None, 'softcron': False, 'server_name': 'rochacbruno-HP', 'bpython': False, 'nogui': False, 'nocron': True, 'extcron': False, 'run_system_tests': False, 'test': None, 'folder': 'c:\\\\Users\\\\rochacbruno\\\\jul12\\\\cursojulho12\\\\web2py', 'config': '', 'import_models': False, 'winservice': '', 'shell': None, 'run': '', 'log_filename': 'httpserver.log', 'debuglevel': 30, 'args': [''], 'socket_timeout': 5, 'ssl_ca_certificate': None, 'scheduler': None, 'profiler_filename': None, 'ssl_private_key': '', 'password': '1234', 'request_queue_size': 5, 'ssl_certificate': '', 'cronjob': False, 'numthreads': None, 'quiet': False, 'interfaces': None, 'minthreads': None, 'timeout': 10, 'plain': False, 'nobanner': False, 'pid_filename': 'httpserver.pid'}>"
p2171
asbasbasbag69
(g85
g71
NtRp2172
(dp2173
g74
(dp2174
sg83
g2082
sg76
(lp2175
g69
(g90
g71
NtRp2176
(dp2177
g74
(dp2178
g94
g95
ssg83
g2172
sg76
(lp2179
g1126
asbag69
(g90
g71
NtRp2180
(dp2181
g74
(dp2182
g101
g102
ssg83
g2172
sg76
(lp2183
S':'
asbag69
(g90
g71
NtRp2184
(dp2185
g74
(dp2186
sg83
g2172
sg76
(lp2187
g69
(g70
g71
NtRp2188
(dp2189
g74
(dp2190
g82
I4
ssg83
g2184
sg76
(lp2191
S'set([])'
p2192
asbasbasbag69
(g85
g71
NtRp2193
(dp2194
g74
(dp2195
sg83
g2082
sg76
(lp2196
g69
(g90
g71
NtRp2197
(dp2198
g74
(dp2199
g94
g95
ssg83
g2193
sg76
(lp2200
g1148
asbag69
(g90
g71
NtRp2201
(dp2202
g74
(dp2203
g101
g102
ssg83
g2193
sg76
(lp2204
S':'
asbag69
(g90
g71
NtRp2205
(dp2206
g74
(dp2207
sg83
g2193
sg76
(lp2208
g69
(g70
g71
NtRp2209
(dp2210
g74
(dp2211
g82
I4
ssg83
g2205
sg76
(lp2212
g112
asbasbasbag69
(g85
g71
NtRp2213
(dp2214
g74
(dp2215
sg83
g2082
sg76
(lp2216
g69
(g90
g71
NtRp2217
(dp2218
g74
(dp2219
g94
g95
ssg83
g2213
sg76
(lp2220
g1169
asbag69
(g90
g71
NtRp2221
(dp2222
g74
(dp2223
g101
g102
ssg83
g2213
sg76
(lp2224
S':'
asbag69
(g90
g71
NtRp2225
(dp2226
g74
(dp2227
sg83
g2213
sg76
(lp2228
g69
(g70
g71
NtRp2229
(dp2230
g74
(dp2231
g82
I4
ssg83
g2225
sg76
(lp2232
g1182
asbasbasbag69
(g85
g71
NtRp2233
(dp2234
g74
(dp2235
sg83
g2082
sg76
(lp2236
g69
(g90
g71
NtRp2237
(dp2238
g74
(dp2239
g94
g95
ssg83
g2233
sg76
(lp2240
g1367
asbag69
(g90
g71
NtRp2241
(dp2242
g74
(dp2243
g101
g102
ssg83
g2233
sg76
(lp2244
S':'
asbag69
(g90
g71
NtRp2245
(dp2246
g74
(dp2247
sg83
g2233
sg76
(lp2248
g69
(g70
g71
NtRp2249
(dp2250
g74
(dp2251
g82
I4
ssg83
g2245
sg76
(lp2252
g112
asbasbasbag69
(g85
g71
NtRp2253
(dp2254
g74
(dp2255
sg83
g2082
sg76
(lp2256
g69
(g90
g71
NtRp2257
(dp2258
g74
(dp2259
g94
g95
ssg83
g2253
sg76
(lp2260
g1388
asbag69
(g90
g71
NtRp2261
(dp2262
g74
(dp2263
g101
g102
ssg83
g2253
sg76
(lp2264
S':'
asbag69
(g90
g71
NtRp2265
(dp2266
g74
(dp2267
sg83
g2253
sg76
(lp2268
g69
(g70
g71
NtRp2269
(dp2270
g74
(dp2271
g82
I4
ssg83
g2265
sg76
(lp2272
g112
asbasbasbag69
(g85
g71
NtRp2273
(dp2274
g74
(dp2275
sg83
g2082
sg76
(lp2276
g69
(g90
g71
NtRp2277
(dp2278
g74
(dp2279
g94
g95
ssg83
g2273
sg76
(lp2280
g1690
asbag69
(g90
g71
NtRp2281
(dp2282
g74
(dp2283
g101
g102
ssg83
g2273
sg76
(lp2284
S':'
asbag69
(g90
g71
NtRp2285
(dp2286
g74
(dp2287
sg83
g2273
sg76
(lp2288
g69
(g70
g71
NtRp2289
(dp2290
g74
(dp2291
g82
I4
ssg83
g2285
sg76
(lp2292
g69
(g78
g71
NtRp2293
(dp2294
g74
(dp2295
g82
I3
ssg83
Nsg76
(lp2296
g69
(g85
g71
NtRp2297
(dp2298
g74
(dp2299
sg83
g2293
sg76
(lp2300
g69
(g90
g71
NtRp2301
(dp2302
g74
(dp2303
sg83
g2297
sg76
(lp2304
g69
(g70
g71
NtRp2305
(dp2306
g74
(dp2307
g82
I3
ssg83
g2301
sg76
(lp2308
S'2'
asbasbasbag69
(g85
g71
NtRp2309
(dp2310
g74
(dp2311
sg83
g2293
sg76
(lp2312
g69
(g90
g71
NtRp2313
(dp2314
g74
(dp2315
sg83
g2309
sg76
(lp2316
g69
(g70
g71
NtRp2317
(dp2318
g74
(dp2319
g82
I3
ssg83
g2313
sg76
(lp2320
S'0'
asbasbasbag69
(g85
g71
NtRp2321
(dp2322
g74
(dp2323
sg83
g2293
sg76
(lp2324
g69
(g90
g71
NtRp2325
(dp2326
g74
(dp2327
sg83
g2321
sg76
(lp2328
g69
(g70
g71
NtRp2329
(dp2330
g74
(dp2331
g82
I3
ssg83
g2325
sg76
(lp2332
S'0'
asbasbasbag69
(g85
g71
NtRp2333
(dp2334
g74
(dp2335
sg83
g2293
sg76
(lp2336
g69
(g90
g71
NtRp2337
(dp2338
g74
(dp2339
sg83
g2333
sg76
(lp2340
g69
(g70
g71
NtRp2341
(dp2342
g74
(dp2343
g82
I3
ssg83
g2337
sg76
(lp2344
S'datetime.datetime(2012, 8, 10, 13, 1, 31)'
p2345
asbasbasbag69
(g85
g71
NtRp2346
(dp2347
g74
(dp2348
sg83
g2293
sg76
(lp2349
g69
(g90
g71
NtRp2350
(dp2351
g74
(dp2352
sg83
g2346
sg76
(lp2353
g69
(g70
g71
NtRp2354
(dp2355
g74
(dp2356
g82
I3
ssg83
g2350
sg76
(lp2357
g1768
asbasbasbasbasbasbasbasbasbasbasbag69
(g85
g71
NtRp2358
(dp2359
g74
(dp2360
sg83
g79
sg76
(lp2361
g69
(g90
g71
NtRp2362
(dp2363
g74
(dp2364
g94
g95
ssg83
g2358
sg76
(lp2365
S'is_https'
p2366
asbag69
(g90
g71
NtRp2367
(dp2368
g74
(dp2369
g101
g102
ssg83
g2358
sg76
(lp2370
S':'
asbag69
(g90
g71
NtRp2371
(dp2372
g74
(dp2373
sg83
g2358
sg76
(lp2374
g69
(g70
g71
NtRp2375
(dp2376
g74
(dp2377
g82
I5
ssg83
g2371
sg76
(lp2378
g112
asbasbasbag69
(g85
g71
NtRp2379
(dp2380
g74
(dp2381
sg83
g79
sg76
(lp2382
g69
(g90
g71
NtRp2383
(dp2384
g74
(dp2385
g94
g95
ssg83
g2379
sg76
(lp2386
S'is_local'
p2387
asbag69
(g90
g71
NtRp2388
(dp2389
g74
(dp2390
g101
g102
ssg83
g2379
sg76
(lp2391
S':'
asbag69
(g90
g71
NtRp2392
(dp2393
g74
(dp2394
sg83
g2379
sg76
(lp2395
g69
(g70
g71
NtRp2396
(dp2397
g74
(dp2398
g82
I5
ssg83
g2392
sg76
(lp2399
g1877
asbasbasbag69
(g85
g71
NtRp2400
(dp2401
g74
(dp2402
sg83
g79
sg76
(lp2403
g69
(g90
g71
NtRp2404
(dp2405
g74
(dp2406
g94
g95
ssg83
g2400
sg76
(lp2407
S'is_restful'
p2408
asbag69
(g90
g71
NtRp2409
(dp2410
g74
(dp2411
g101
g102
ssg83
g2400
sg76
(lp2412
S':'
asbag69
(g90
g71
NtRp2413
(dp2414
g74
(dp2415
sg83
g2400
sg76
(lp2416
g69
(g70
g71
NtRp2417
(dp2418
g74
(dp2419
g82
I5
ssg83
g2413
sg76
(lp2420
g112
asbasbasbag69
(g85
g71
NtRp2421
(dp2422
g74
(dp2423
sg83
g79
sg76
(lp2424
g69
(g90
g71
NtRp2425
(dp2426
g74
(dp2427
g94
g95
ssg83
g2421
sg76
(lp2428
S'now'
p2429
asbag69
(g90
g71
NtRp2430
(dp2431
g74
(dp2432
g101
g102
ssg83
g2421
sg76
(lp2433
S':'
asbag69
(g90
g71
NtRp2434
(dp2435
g74
(dp2436
sg83
g2421
sg76
(lp2437
g69
(g70
g71
NtRp2438
(dp2439
g74
(dp2440
g82
I5
ssg83
g2434
sg76
(lp2441
S'datetime.datetime(2012, 8, 12, 12, 7, 21, 271000)'
p2442
asbasbasbag69
(g85
g71
NtRp2443
(dp2444
g74
(dp2445
sg83
g79
sg76
(lp2446
g69
(g90
g71
NtRp2447
(dp2448
g74
(dp2449
g94
g95
ssg83
g2443
sg76
(lp2450
S'post_vars'
p2451
asbag69
(g90
g71
NtRp2452
(dp2453
g74
(dp2454
g101
g102
ssg83
g2443
sg76
(lp2455
S':'
asbag69
(g90
g71
NtRp2456
(dp2457
g74
(dp2458
sg83
g2443
sg76
(lp2459
g69
(g70
g71
NtRp2460
(dp2461
g74
(dp2462
g82
I5
ssg83
g2456
sg76
(lp2463
g69
(g78
g71
NtRp2464
(dp2465
g74
(dp2466
g82
I4
ssg83
Nsg76
(lp2467
sbasbasbasbag69
(g85
g71
NtRp2468
(dp2469
g74
(dp2470
sg83
g79
sg76
(lp2471
g69
(g90
g71
NtRp2472
(dp2473
g74
(dp2474
g94
g95
ssg83
g2468
sg76
(lp2475
S'url'
p2476
asbag69
(g90
g71
NtRp2477
(dp2478
g74
(dp2479
g101
g102
ssg83
g2468
sg76
(lp2480
S':'
asbag69
(g90
g71
NtRp2481
(dp2482
g74
(dp2483
sg83
g2468
sg76
(lp2484
g69
(g70
g71
NtRp2485
(dp2486
g74
(dp2487
g82
I5
ssg83
g2481
sg76
(lp2488
S'/product/new'
p2489
asbasbasbag69
(g85
g71
NtRp2490
(dp2491
g74
(dp2492
sg83
g79
sg76
(lp2493
g69
(g90
g71
NtRp2494
(dp2495
g74
(dp2496
g94
g95
ssg83
g2490
sg76
(lp2497
S'utcnow'
p2498
asbag69
(g90
g71
NtRp2499
(dp2500
g74
(dp2501
g101
g102
ssg83
g2490
sg76
(lp2502
S':'
asbag69
(g90
g71
NtRp2503
(dp2504
g74
(dp2505
sg83
g2490
sg76
(lp2506
g69
(g70
g71
NtRp2507
(dp2508
g74
(dp2509
g82
I5
ssg83
g2503
sg76
(lp2510
S'datetime.datetime(2012, 8, 12, 15, 7, 21, 271000)'
p2511
asbasbasbag69
(g85
g71
NtRp2512
(dp2513
g74
(dp2514
sg83
g79
sg76
(lp2515
g69
(g90
g71
NtRp2516
(dp2517
g74
(dp2518
g94
g95
ssg83
g2512
sg76
(lp2519
S'uuid'
p2520
asbag69
(g90
g71
NtRp2521
(dp2522
g74
(dp2523
g101
g102
ssg83
g2512
sg76
(lp2524
S':'
asbag69
(g90
g71
NtRp2525
(dp2526
g74
(dp2527
sg83
g2512
sg76
(lp2528
g69
(g70
g71
NtRp2529
(dp2530
g74
(dp2531
g82
I5
ssg83
g2525
sg76
(lp2532
S'ecommerce/127.0.0.1.2012-08-12.12-07-21.a81575be-2eeb-4447-aebc-537f60cb8278'
p2533
asbasbasbag69
(g85
g71
NtRp2534
(dp2535
g74
(dp2536
sg83
g79
sg76
(lp2537
g69
(g90
g71
NtRp2538
(dp2539
g74
(dp2540
g94
g95
ssg83
g2534
sg76
(lp2541
S'vars'
p2542
asbag69
(g90
g71
NtRp2543
(dp2544
g74
(dp2545
g101
g102
ssg83
g2534
sg76
(lp2546
S':'
asbag69
(g90
g71
NtRp2547
(dp2548
g74
(dp2549
sg83
g2534
sg76
(lp2550
g69
(g70
g71
NtRp2551
(dp2552
g74
(dp2553
g82
I5
ssg83
g2547
sg76
(lp2554
g69
(g78
g71
NtRp2555
(dp2556
g74
(dp2557
g82
I4
ssg83
Nsg76
(lp2558
sbasbasbasbag69
(g85
g71
NtRp2559
(dp2560
g74
(dp2561
sg83
g79
sg76
(lp2562
g69
(g90
g71
NtRp2563
(dp2564
g74
(dp2565
g94
g95
ssg83
g2559
sg76
(lp2566
S'wsgi'
p2567
asbag69
(g90
g71
NtRp2568
(dp2569
g74
(dp2570
g101
g102
ssg83
g2559
sg76
(lp2571
S':'
asbag69
(g90
g71
NtRp2572
(dp2573
g74
(dp2574
sg83
g2559
sg76
(lp2575
g69
(g70
g71
NtRp2576
(dp2577
g74
(dp2578
g82
I5
ssg83
g2572
sg76
(lp2579
g69
(g78
g71
NtRp2580
(dp2581
g74
(dp2582
g82
I4
ssg83
Nsg76
(lp2583
g69
(g85
g71
NtRp2584
(dp2585
g74
(dp2586
sg83
g2580
sg76
(lp2587
g69
(g90
g71
NtRp2588
(dp2589
g74
(dp2590
g94
g95
ssg83
g2584
sg76
(lp2591
S'environ'
p2592
asbag69
(g90
g71
NtRp2593
(dp2594
g74
(dp2595
g101
g102
ssg83
g2584
sg76
(lp2596
S':'
asbag69
(g90
g71
NtRp2597
(dp2598
g74
(dp2599
sg83
g2584
sg76
(lp2600
g69
(g70
g71
NtRp2601
(dp2602
g74
(dp2603
g82
I4
ssg83
g2597
sg76
(lp2604
g69
(g78
g71
NtRp2605
(dp2606
g74
(dp2607
g82
I3
ssg83
Nsg76
(lp2608
g69
(g85
g71
NtRp2609
(dp2610
g74
(dp2611
sg83
g2605
sg76
(lp2612
g69
(g90
g71
NtRp2613
(dp2614
g74
(dp2615
g94
g95
ssg83
g2609
sg76
(lp2616
S'HTTP_ACCEPT'
p2617
asbag69
(g90
g71
NtRp2618
(dp2619
g74
(dp2620
g101
g102
ssg83
g2609
sg76
(lp2621
S':'
asbag69
(g90
g71
NtRp2622
(dp2623
g74
(dp2624
sg83
g2609
sg76
(lp2625
g69
(g70
g71
NtRp2626
(dp2627
g74
(dp2628
g82
I3
ssg83
g2622
sg76
(lp2629
g1204
asbasbasbag69
(g85
g71
NtRp2630
(dp2631
g74
(dp2632
sg83
g2605
sg76
(lp2633
g69
(g90
g71
NtRp2634
(dp2635
g74
(dp2636
g94
g95
ssg83
g2630
sg76
(lp2637
S'HTTP_ACCEPT_ENCODING'
p2638
asbag69
(g90
g71
NtRp2639
(dp2640
g74
(dp2641
g101
g102
ssg83
g2630
sg76
(lp2642
S':'
asbag69
(g90
g71
NtRp2643
(dp2644
g74
(dp2645
sg83
g2630
sg76
(lp2646
g69
(g70
g71
NtRp2647
(dp2648
g74
(dp2649
g82
I3
ssg83
g2643
sg76
(lp2650
g1226
asbasbasbag69
(g85
g71
NtRp2651
(dp2652
g74
(dp2653
sg83
g2605
sg76
(lp2654
g69
(g90
g71
NtRp2655
(dp2656
g74
(dp2657
g94
g95
ssg83
g2651
sg76
(lp2658
S'HTTP_ACCEPT_LANGUAGE'
p2659
asbag69
(g90
g71
NtRp2660
(dp2661
g74
(dp2662
g101
g102
ssg83
g2651
sg76
(lp2663
S':'
asbag69
(g90
g71
NtRp2664
(dp2665
g74
(dp2666
sg83
g2651
sg76
(lp2667
g69
(g70
g71
NtRp2668
(dp2669
g74
(dp2670
g82
I3
ssg83
g2664
sg76
(lp2671
g1248
asbasbasbag69
(g85
g71
NtRp2672
(dp2673
g74
(dp2674
sg83
g2605
sg76
(lp2675
g69
(g90
g71
NtRp2676
(dp2677
g74
(dp2678
g94
g95
ssg83
g2672
sg76
(lp2679
S'HTTP_CACHE_CONTROL'
p2680
asbag69
(g90
g71
NtRp2681
(dp2682
g74
(dp2683
g101
g102
ssg83
g2672
sg76
(lp2684
S':'
asbag69
(g90
g71
NtRp2685
(dp2686
g74
(dp2687
sg83
g2672
sg76
(lp2688
g69
(g70
g71
NtRp2689
(dp2690
g74
(dp2691
g82
I3
ssg83
g2685
sg76
(lp2692
g1270
asbasbasbag69
(g85
g71
NtRp2693
(dp2694
g74
(dp2695
sg83
g2605
sg76
(lp2696
g69
(g90
g71
NtRp2697
(dp2698
g74
(dp2699
g94
g95
ssg83
g2693
sg76
(lp2700
S'HTTP_CONNECTION'
p2701
asbag69
(g90
g71
NtRp2702
(dp2703
g74
(dp2704
g101
g102
ssg83
g2693
sg76
(lp2705
S':'
asbag69
(g90
g71
NtRp2706
(dp2707
g74
(dp2708
sg83
g2693
sg76
(lp2709
g69
(g70
g71
NtRp2710
(dp2711
g74
(dp2712
g82
I3
ssg83
g2706
sg76
(lp2713
g1292
asbasbasbag69
(g85
g71
NtRp2714
(dp2715
g74
(dp2716
sg83
g2605
sg76
(lp2717
g69
(g90
g71
NtRp2718
(dp2719
g74
(dp2720
g94
g95
ssg83
g2714
sg76
(lp2721
S'HTTP_COOKIE'
p2722
asbag69
(g90
g71
NtRp2723
(dp2724
g74
(dp2725
g101
g102
ssg83
g2714
sg76
(lp2726
S':'
asbag69
(g90
g71
NtRp2727
(dp2728
g74
(dp2729
sg83
g2714
sg76
(lp2730
g69
(g70
g71
NtRp2731
(dp2732
g74
(dp2733
g82
I3
ssg83
g2727
sg76
(lp2734
g1314
asbasbasbag69
(g85
g71
NtRp2735
(dp2736
g74
(dp2737
sg83
g2605
sg76
(lp2738
g69
(g90
g71
NtRp2739
(dp2740
g74
(dp2741
g94
g95
ssg83
g2735
sg76
(lp2742
S'HTTP_HOST'
p2743
asbag69
(g90
g71
NtRp2744
(dp2745
g74
(dp2746
g101
g102
ssg83
g2735
sg76
(lp2747
S':'
asbag69
(g90
g71
NtRp2748
(dp2749
g74
(dp2750
sg83
g2735
sg76
(lp2751
g69
(g70
g71
NtRp2752
(dp2753
g74
(dp2754
g82
I3
ssg83
g2748
sg76
(lp2755
g1336
asbasbasbag69
(g85
g71
NtRp2756
(dp2757
g74
(dp2758
sg83
g2605
sg76
(lp2759
g69
(g90
g71
NtRp2760
(dp2761
g74
(dp2762
g94
g95
ssg83
g2756
sg76
(lp2763
S'HTTP_USER_AGENT'
p2764
asbag69
(g90
g71
NtRp2765
(dp2766
g74
(dp2767
g101
g102
ssg83
g2756
sg76
(lp2768
S':'
asbag69
(g90
g71
NtRp2769
(dp2770
g74
(dp2771
sg83
g2756
sg76
(lp2772
g69
(g70
g71
NtRp2773
(dp2774
g74
(dp2775
g82
I3
ssg83
g2769
sg76
(lp2776
g1358
asbasbasbag69
(g85
g71
NtRp2777
(dp2778
g74
(dp2779
sg83
g2605
sg76
(lp2780
g69
(g90
g71
NtRp2781
(dp2782
g74
(dp2783
g94
g95
ssg83
g2777
sg76
(lp2784
S'PATH_INFO'
p2785
asbag69
(g90
g71
NtRp2786
(dp2787
g74
(dp2788
g101
g102
ssg83
g2777
sg76
(lp2789
S':'
asbag69
(g90
g71
NtRp2790
(dp2791
g74
(dp2792
sg83
g2777
sg76
(lp2793
g69
(g70
g71
NtRp2794
(dp2795
g74
(dp2796
g82
I3
ssg83
g2790
sg76
(lp2797
g1422
asbasbasbag69
(g85
g71
NtRp2798
(dp2799
g74
(dp2800
sg83
g2605
sg76
(lp2801
g69
(g90
g71
NtRp2802
(dp2803
g74
(dp2804
g94
g95
ssg83
g2798
sg76
(lp2805
S'QUERY_STRING'
p2806
asbag69
(g90
g71
NtRp2807
(dp2808
g74
(dp2809
g101
g102
ssg83
g2798
sg76
(lp2810
S':'
asbag69
(g90
g71
NtRp2811
(dp2812
g74
(dp2813
sg83
g2798
sg76
(lp2814
g69
(g70
g71
NtRp2815
(dp2816
g74
(dp2817
g82
I3
ssg83
g2811
sg76
(lp2818
S''
asbasbasbag69
(g85
g71
NtRp2819
(dp2820
g74
(dp2821
sg83
g2605
sg76
(lp2822
g69
(g90
g71
NtRp2823
(dp2824
g74
(dp2825
g94
g95
ssg83
g2819
sg76
(lp2826
S'REMOTE_ADDR'
p2827
asbag69
(g90
g71
NtRp2828
(dp2829
g74
(dp2830
g101
g102
ssg83
g2819
sg76
(lp2831
S':'
asbag69
(g90
g71
NtRp2832
(dp2833
g74
(dp2834
sg83
g2819
sg76
(lp2835
g69
(g70
g71
NtRp2836
(dp2837
g74
(dp2838
g82
I3
ssg83
g2832
sg76
(lp2839
g202
asbasbasbag69
(g85
g71
NtRp2840
(dp2841
g74
(dp2842
sg83
g2605
sg76
(lp2843
g69
(g90
g71
NtRp2844
(dp2845
g74
(dp2846
g94
g95
ssg83
g2840
sg76
(lp2847
S'REMOTE_PORT'
p2848
asbag69
(g90
g71
NtRp2849
(dp2850
g74
(dp2851
g101
g102
ssg83
g2840
sg76
(lp2852
S':'
asbag69
(g90
g71
NtRp2853
(dp2854
g74
(dp2855
sg83
g2840
sg76
(lp2856
g69
(g70
g71
NtRp2857
(dp2858
g74
(dp2859
g82
I3
ssg83
g2853
sg76
(lp2860
g1486
asbasbasbag69
(g85
g71
NtRp2861
(dp2862
g74
(dp2863
sg83
g2605
sg76
(lp2864
g69
(g90
g71
NtRp2865
(dp2866
g74
(dp2867
g94
g95
ssg83
g2861
sg76
(lp2868
S'REQUEST_METHOD'
p2869
asbag69
(g90
g71
NtRp2870
(dp2871
g74
(dp2872
g101
g102
ssg83
g2861
sg76
(lp2873
S':'
asbag69
(g90
g71
NtRp2874
(dp2875
g74
(dp2876
sg83
g2861
sg76
(lp2877
g69
(g70
g71
NtRp2878
(dp2879
g74
(dp2880
g82
I3
ssg83
g2874
sg76
(lp2881
g1508
asbasbasbag69
(g85
g71
NtRp2882
(dp2883
g74
(dp2884
sg83
g2605
sg76
(lp2885
g69
(g90
g71
NtRp2886
(dp2887
g74
(dp2888
g94
g95
ssg83
g2882
sg76
(lp2889
S'REQUEST_URI'
p2890
asbag69
(g90
g71
NtRp2891
(dp2892
g74
(dp2893
g101
g102
ssg83
g2882
sg76
(lp2894
S':'
asbag69
(g90
g71
NtRp2895
(dp2896
g74
(dp2897
sg83
g2882
sg76
(lp2898
g69
(g70
g71
NtRp2899
(dp2900
g74
(dp2901
g82
I3
ssg83
g2895
sg76
(lp2902
g1530
asbasbasbag69
(g85
g71
NtRp2903
(dp2904
g74
(dp2905
sg83
g2605
sg76
(lp2906
g69
(g90
g71
NtRp2907
(dp2908
g74
(dp2909
g94
g95
ssg83
g2903
sg76
(lp2910
S'SCRIPT_NAME'
p2911
asbag69
(g90
g71
NtRp2912
(dp2913
g74
(dp2914
g101
g102
ssg83
g2903
sg76
(lp2915
S':'
asbag69
(g90
g71
NtRp2916
(dp2917
g74
(dp2918
sg83
g2903
sg76
(lp2919
g69
(g70
g71
NtRp2920
(dp2921
g74
(dp2922
g82
I3
ssg83
g2916
sg76
(lp2923
S''
asbasbasbag69
(g85
g71
NtRp2924
(dp2925
g74
(dp2926
sg83
g2605
sg76
(lp2927
g69
(g90
g71
NtRp2928
(dp2929
g74
(dp2930
g94
g95
ssg83
g2924
sg76
(lp2931
S'SERVER_NAME'
p2932
asbag69
(g90
g71
NtRp2933
(dp2934
g74
(dp2935
g101
g102
ssg83
g2924
sg76
(lp2936
S':'
asbag69
(g90
g71
NtRp2937
(dp2938
g74
(dp2939
sg83
g2924
sg76
(lp2940
g69
(g70
g71
NtRp2941
(dp2942
g74
(dp2943
g82
I3
ssg83
g2937
sg76
(lp2944
g1573
asbasbasbag69
(g85
g71
NtRp2945
(dp2946
g74
(dp2947
sg83
g2605
sg76
(lp2948
g69
(g90
g71
NtRp2949
(dp2950
g74
(dp2951
g94
g95
ssg83
g2945
sg76
(lp2952
S'SERVER_PORT'
p2953
asbag69
(g90
g71
NtRp2954
(dp2955
g74
(dp2956
g101
g102
ssg83
g2945
sg76
(lp2957
S':'
asbag69
(g90
g71
NtRp2958
(dp2959
g74
(dp2960
sg83
g2945
sg76
(lp2961
g69
(g70
g71
NtRp2962
(dp2963
g74
(dp2964
g82
I3
ssg83
g2958
sg76
(lp2965
g1595
asbasbasbag69
(g85
g71
NtRp2966
(dp2967
g74
(dp2968
sg83
g2605
sg76
(lp2969
g69
(g90
g71
NtRp2970
(dp2971
g74
(dp2972
g94
g95
ssg83
g2966
sg76
(lp2973
S'SERVER_PROTOCOL'
p2974
asbag69
(g90
g71
NtRp2975
(dp2976
g74
(dp2977
g101
g102
ssg83
g2966
sg76
(lp2978
S':'
asbag69
(g90
g71
NtRp2979
(dp2980
g74
(dp2981
sg83
g2966
sg76
(lp2982
g69
(g70
g71
NtRp2983
(dp2984
g74
(dp2985
g82
I3
ssg83
g2979
sg76
(lp2986
g1617
asbasbasbag69
(g85
g71
NtRp2987
(dp2988
g74
(dp2989
sg83
g2605
sg76
(lp2990
g69
(g90
g71
NtRp2991
(dp2992
g74
(dp2993
g94
g95
ssg83
g2987
sg76
(lp2994
S'SERVER_SOFTWARE'
p2995
asbag69
(g90
g71
NtRp2996
(dp2997
g74
(dp2998
g101
g102
ssg83
g2987
sg76
(lp2999
S':'
asbag69
(g90
g71
NtRp3000
(dp3001
g74
(dp3002
sg83
g2987
sg76
(lp3003
g69
(g70
g71
NtRp3004
(dp3005
g74
(dp3006
g82
I3
ssg83
g3000
sg76
(lp3007
g1639
asbasbasbag69
(g85
g71
NtRp3008
(dp3009
g74
(dp3010
sg83
g2605
sg76
(lp3011
g69
(g90
g71
NtRp3012
(dp3013
g74
(dp3014
g94
g95
ssg83
g3008
sg76
(lp3015
S'WEB2PY_ORIGINAL_URI'
p3016
asbag69
(g90
g71
NtRp3017
(dp3018
g74
(dp3019
g101
g102
ssg83
g3008
sg76
(lp3020
S':'
asbag69
(g90
g71
NtRp3021
(dp3022
g74
(dp3023
sg83
g3008
sg76
(lp3024
g69
(g70
g71
NtRp3025
(dp3026
g74
(dp3027
g82
I3
ssg83
g3021
sg76
(lp3028
g1422
asbasbasbag69
(g85
g71
NtRp3029
(dp3030
g74
(dp3031
sg83
g2605
sg76
(lp3032
g69
(g90
g71
NtRp3033
(dp3034
g74
(dp3035
g94
g95
ssg83
g3029
sg76
(lp3036
S'wsgi.errors'
p3037
asbag69
(g90
g71
NtRp3038
(dp3039
g74
(dp3040
g101
g102
ssg83
g3029
sg76
(lp3041
S':'
asbag69
(g90
g71
NtRp3042
(dp3043
g74
(dp3044
sg83
g3029
sg76
(lp3045
g69
(g70
g71
NtRp3046
(dp3047
g74
(dp3048
g82
I3
ssg83
g3042
sg76
(lp3049
S"<open file '<stderr>', mode 'w' at 0x012750D0>"
p3050
asbasbasbag69
(g85
g71
NtRp3051
(dp3052
g74
(dp3053
sg83
g2605
sg76
(lp3054
g69
(g90
g71
NtRp3055
(dp3056
g74
(dp3057
g94
g95
ssg83
g3051
sg76
(lp3058
S'wsgi.file_wrapper'
p3059
asbag69
(g90
g71
NtRp3060
(dp3061
g74
(dp3062
g101
g102
ssg83
g3051
sg76
(lp3063
S':'
asbag69
(g90
g71
NtRp3064
(dp3065
g74
(dp3066
sg83
g3051
sg76
(lp3067
g69
(g70
g71
NtRp3068
(dp3069
g74
(dp3070
g82
I3
ssg83
g3064
sg76
(lp3071
S'<class wsgiref.util.FileWrapper at 0x02A383B0>'
p3072
asbasbasbag69
(g85
g71
NtRp3073
(dp3074
g74
(dp3075
sg83
g2605
sg76
(lp3076
g69
(g90
g71
NtRp3077
(dp3078
g74
(dp3079
g94
g95
ssg83
g3073
sg76
(lp3080
S'wsgi.input'
p3081
asbag69
(g90
g71
NtRp3082
(dp3083
g74
(dp3084
g101
g102
ssg83
g3073
sg76
(lp3085
S':'
asbag69
(g90
g71
NtRp3086
(dp3087
g74
(dp3088
sg83
g3073
sg76
(lp3089
g69
(g70
g71
NtRp3090
(dp3091
g74
(dp3092
g82
I3
ssg83
g3086
sg76
(lp3093
S'<cStringIO.StringO object at 0x059F9700>'
p3094
asbasbasbag69
(g85
g71
NtRp3095
(dp3096
g74
(dp3097
sg83
g2605
sg76
(lp3098
g69
(g90
g71
NtRp3099
(dp3100
g74
(dp3101
g94
g95
ssg83
g3095
sg76
(lp3102
S'wsgi.multiprocess'
p3103
asbag69
(g90
g71
NtRp3104
(dp3105
g74
(dp3106
g101
g102
ssg83
g3095
sg76
(lp3107
S':'
asbag69
(g90
g71
NtRp3108
(dp3109
g74
(dp3110
sg83
g3095
sg76
(lp3111
g69
(g70
g71
NtRp3112
(dp3113
g74
(dp3114
g82
I3
ssg83
g3108
sg76
(lp3115
g112
asbasbasbag69
(g85
g71
NtRp3116
(dp3117
g74
(dp3118
sg83
g2605
sg76
(lp3119
g69
(g90
g71
NtRp3120
(dp3121
g74
(dp3122
g94
g95
ssg83
g3116
sg76
(lp3123
S'wsgi.multithread'
p3124
asbag69
(g90
g71
NtRp3125
(dp3126
g74
(dp3127
g101
g102
ssg83
g3116
sg76
(lp3128
S':'
asbag69
(g90
g71
NtRp3129
(dp3130
g74
(dp3131
sg83
g3116
sg76
(lp3132
g69
(g70
g71
NtRp3133
(dp3134
g74
(dp3135
g82
I3
ssg83
g3129
sg76
(lp3136
g1877
asbasbasbag69
(g85
g71
NtRp3137
(dp3138
g74
(dp3139
sg83
g2605
sg76
(lp3140
g69
(g90
g71
NtRp3141
(dp3142
g74
(dp3143
g94
g95
ssg83
g3137
sg76
(lp3144
S'wsgi.run_once'
p3145
asbag69
(g90
g71
NtRp3146
(dp3147
g74
(dp3148
g101
g102
ssg83
g3137
sg76
(lp3149
S':'
asbag69
(g90
g71
NtRp3150
(dp3151
g74
(dp3152
sg83
g3137
sg76
(lp3153
g69
(g70
g71
NtRp3154
(dp3155
g74
(dp3156
g82
I3
ssg83
g3150
sg76
(lp3157
g112
asbasbasbag69
(g85
g71
NtRp3158
(dp3159
g74
(dp3160
sg83
g2605
sg76
(lp3161
g69
(g90
g71
NtRp3162
(dp3163
g74
(dp3164
g94
g95
ssg83
g3158
sg76
(lp3165
S'wsgi.url_scheme'
p3166
asbag69
(g90
g71
NtRp3167
(dp3168
g74
(dp3169
g101
g102
ssg83
g3158
sg76
(lp3170
S':'
asbag69
(g90
g71
NtRp3171
(dp3172
g74
(dp3173
sg83
g3158
sg76
(lp3174
g69
(g70
g71
NtRp3175
(dp3176
g74
(dp3177
g82
I3
ssg83
g3171
sg76
(lp3178
g1920
asbasbasbag69
(g85
g71
NtRp3179
(dp3180
g74
(dp3181
sg83
g2605
sg76
(lp3182
g69
(g90
g71
NtRp3183
(dp3184
g74
(dp3185
g94
g95
ssg83
g3179
sg76
(lp3186
S'wsgi.version'
p3187
asbag69
(g90
g71
NtRp3188
(dp3189
g74
(dp3190
g101
g102
ssg83
g3179
sg76
(lp3191
S':'
asbag69
(g90
g71
NtRp3192
(dp3193
g74
(dp3194
sg83
g3179
sg76
(lp3195
g69
(g70
g71
NtRp3196
(dp3197
g74
(dp3198
g82
I3
ssg83
g3192
sg76
(lp3199
S'1'
asbasbasbasbasbasbasbasbasbasbasbasbasbsS'frames'
p3200
(lp3201
(dp3202
S'file'
p3203
S'c:\\Users\\rochacbruno\\jul12\\cursojulho12\\web2py\\gluon\\restricted.py'
p3204
sS'dump'
p3205
(dp3206
S'environment'
p3207
S"{'A': <class 'gluon.html.A'>, 'Auth': <class 'gluon.tools.Auth'>, 'B': <class 'gluon.html.B'>, 'BEAUTIFY': <class 'gluon.html.BEAUTIFY'>, 'BODY': <class 'gluon.html.BODY'>, 'BR': <class 'gluon.html.BR'>, 'BUTTON': <class 'gluon.html.BUTTON'>, 'CAT': <class 'gluon.html.CAT'>, 'CENTER': <class 'gluon.html.CENTER'>, 'CLEANUP': <class 'gluon.validators.CLEANUP'>, ...}"
p3208
sS'ccode'
p3209
S'<code object <module> at 0576E338, file "c:\\User...ommerce\\models\\datamodel_application.py", line 5>'
p3210
ssS'lnum'
p3211
I205
sS'lines'
p3212
(dp3213
I200
S'    try:'
p3214
sI201
S'        if type(code) == types.CodeType:'
p3215
sI202
S'            ccode = code'
p3216
sI203
S'        else:'
p3217
sI204
S'            ccode = compile2(code,layer)'
p3218
sI205
S'        exec ccode in environment'
p3219
sI206
S'    except HTTP:'
p3220
sI207
S'        raise'
p3221
sI208
S'    except RestrictedError:'
p3222
sI209
S'        # do not encapsulate (obfuscate) the original RestrictedError'
p3223
ssS'call'
p3224
S"(code='#coding: utf-8\\n\\n# definir objetos da app (Auth, ...cao\\n# definir emails de autenticacao\\n\\n# signature', environment={'A': <class 'gluon.html.A'>, 'Auth': <class 'gluon.tools.Auth'>, 'B': <class 'gluon.html.B'>, 'BEAUTIFY': <class 'gluon.html.BEAUTIFY'>, 'BODY': <class 'gluon.html.BODY'>, 'BR': <class 'gluon.html.BR'>, 'BUTTON': <class 'gluon.html.BUTTON'>, 'CAT': <class 'gluon.html.CAT'>, 'CENTER': <class 'gluon.html.CENTER'>, 'CLEANUP': <class 'gluon.validators.CLEANUP'>, ...}, layer=r'c:\\Users\\rochacbruno\\jul12\\cursojulho12\\web2py\\a...cations\\ecommerce\\models\\datamodel_application.py')"
p3225
sS'func'
p3226
S'restricted'
p3227
sa(dp3228
g3203
S'c:\\Users\\rochacbruno\\jul12\\cursojulho12\\web2py\\applications\\ecommerce\\models\\datamodel_application.py'
p3229
sg3205
(dp3230
S'auth.define_tables'
p3231
S'<bound method Auth.define_tables of <gluon.tools.Auth object>>'
p3232
sS'auth'
p3233
S'<gluon.tools.Auth object>'
p3234
ssg3211
I38
sg3212
(dp3235
I33
S'mail.settings.login = config.mail.login'
p3236
sI34
S''
sI35
S'auth.settings.mailer = mail'
p3237
sI36
S''
sI37
S"# auth.settings.login_field = 'cpf'"
p3238
sI38
S'auth.define_tables()'
p3239
sI39
S''
sI40
S'# definir classes e funcoes da app'
p3240
sI41
S'# definir autenticacao'
p3241
sI42
S'# definir datamodel de autenticacao'
p3242
ssg3224
S'()'
p3243
sg3226
S'<module>'
p3244
sa(dp3245
g3203
S'c:\\Users\\rochacbruno\\jul12\\cursojulho12\\web2py\\gluon\\tools.py'
p3246
sg3205
(dp3247
S'builtinformat'
p3248
S'<built-in function format>'
p3249
ssg3211
I1448
sg3212
(dp3250
I1443
S'                    *extra_fields,'
p3251
sI1444
S'                    **dict('
p3252
sI1445
S'                        migrate=self.__get_migrate(settings.table_user_name,'
p3253
sI1446
S'                                                   migrate),'
p3254
sI1447
S'                        fake_migrate=fake_migrate,'
p3255
sI1448
S"                        format='%(first_name)s %(last_name)s (%(id)s)'))"
p3256
sI1449
S'            table.first_name.requires = \\'
p3257
sI1450
S'                IS_NOT_EMPTY(error_message=self.messages.is_empty)'
p3258
sI1451
S'            table.last_name.requires = \\'
p3259
sI1452
S'                IS_NOT_EMPTY(error_message=self.messages.is_empty)'
p3260
ssg3224
S'(self=<gluon.tools.Auth object>, username=False, signature=None, migrate=True, fake_migrate=False)'
p3261
sg3226
S'define_tables'
p3262
sa(dp3263
g3203
S'c:\\Users\\rochacbruno\\jul12\\cursojulho12\\web2py\\gluon\\dal.py'
p3264
sg3205
(dp3265
S'common_filter'
p3266
S'None'
p3267
ssg3211
I6961
sg3212
(dp3268
I6956
S''
sI6957
S'        t = self[tablename] = table_class(self, tablename, *fields,'
p3269
sI6958
S'                                          **dict(primarykey=primarykey,'
p3270
sI6959
S'                                                 trigger_name=trigger_name,'
p3271
sI6960
S'                                                 sequence_name=sequence_name,'
p3272
sI6961
S'                                                 common_filter=common_filter))'
p3273
sI6962
S''
sI6963
S'        # db magic'
p3274
sI6964
S"        if self._uri in (None,'None'):"
p3275
sI6965
S'            return t'
p3276
ssg3224
S"(self=<DAL {'_pool_size': 0, '_common_fields': [], '_l..._uri': 'sqlite://ecommerce.db', '_migrated': []}>, tablename='auth_user', *fields=(<gluon.dal.Field object>, <gluon.dal.Field object>, <gluon.dal.Field object>, <gluon.dal.Field object>, <gluon.dal.Field object>, <gluon.dal.Field object>, <gluon.dal.Field object>, <gluon.dal.Field object>, <gluon.dal.Field object>, <gluon.dal.Field object>, <gluon.dal.Field object>), **args={'fake_migrate': False, 'format': '%(first_name)s %(last_name)s (%(id)s)', 'migrate': True})"
p3277
sg3226
S'define_table'
p3278
sa(dp3279
g3203
S'c:\\Users\\rochacbruno\\jul12\\cursojulho12\\web2py\\gluon\\dal.py'
p3280
sg3205
(dp3281
S'field'
p3282
S'<gluon.dal.Field object>'
p3283
sS'db.check_reserved_keyword'
p3284
S"<bound method DAL.check_reserved_keyword of <DAL...uri': 'sqlite://ecommerce.db', '_migrated': []}>>"
p3285
sS'db'
p3286
S"<DAL {'_pool_size': 0, '_common_fields': [], '_l..._uri': 'sqlite://ecommerce.db', '_migrated': []}>"
p3287
sS'field.name'
p3288
S"'number'"
p3289
ssg3211
I7279
sg3212
(dp3290
I7274
S''
sI7275
S'        lower_fieldnames = set()'
p3291
sI7276
S"        reserved = dir(Table) + ['fields']"
p3292
sI7277
S'        for field in fields:'
p3293
sI7278
S'            if db and db.check_reserved:'
p3294
sI7279
S'                db.check_reserved_keyword(field.name)'
p3295
sI7280
S'            elif field.name in reserved:'
p3296
sI7281
S'                raise SyntaxError, "field name %s not allowed" % field.name'
p3297
sI7282
S''
sI7283
S'            if field.name.lower() in lower_fieldnames:'
p3298
ssg3224
S"(self=<Table {'last_name': <gluon.dal.Field object at ...ield object at 0x0595D890>, '_after_insert': []}>, db=<DAL {'_pool_size': 0, '_common_fields': [], '_l..._uri': 'sqlite://ecommerce.db', '_migrated': []}>, tablename='auth_user', *fields=[<gluon.dal.Field object>, <gluon.dal.Field object>, <gluon.dal.Field object>, <gluon.dal.Field object>, <gluon.dal.Field object>, <gluon.dal.Field object>, <gluon.dal.Field object>, <gluon.dal.Field object>, <gluon.dal.Field object>, <gluon.dal.Field object>, <gluon.dal.Field object>, <gluon.dal.Field object>], **args={'common_filter': None, 'primarykey': None, 'sequence_name': None, 'trigger_name': None})"
p3299
sg3226
g24
sa(dp3300
g3203
S'c:\\Users\\rochacbruno\\jul12\\cursojulho12\\web2py\\gluon\\dal.py'
p3301
sg3205
(dp3302
S'backend.upper'
p3303
S'<built-in method upper of str object>'
p3304
sS'builtinSyntaxError'
p3305
S"<type 'exceptions.SyntaxError'>"
p3306
sS'name'
p3307
S"'number'"
p3308
sS'backend'
p3309
S"'all'"
p3310
ssg3211
I6667
sg3212
(dp3311
I6662
S'        self.check_reserved'
p3312
sI6663
S"        ['all']"
p3313
sI6664
S'        """'
p3314
sI6665
S'        for backend in self.check_reserved:'
p3315
sI6666
S'            if name.upper() in self.RSK[backend]:'
p3316
sI6667
S'                raise SyntaxError, \'invalid table/column name "%s" is a "%s" reserved SQL keyword\' % (name, backend.upper())'
p3317
sI6668
S''
sI6669
S'    def __contains__(self, tablename):'
p3318
sI6670
S'        if self.has_key(tablename):'
p3319
sI6671
S'            return True'
p3320
ssg3224
S"(self=<DAL {'_pool_size': 0, '_common_fields': [], '_l..._uri': 'sqlite://ecommerce.db', '_migrated': []}>, name='number')"
p3321
sg3226
S'check_reserved_keyword'
p3322
sasS'pyver'
p3323
S'Python 2.7.2: c:\\Python27\\python.exe'
p3324
sS'session'
p3325
g69
(g70
g71
NtRp3326
(dp3327
g74
(dp3328
sg76
(lp3329
g69
(g78
g71
NtRp3330
(dp3331
g74
(dp3332
g82
I5
ssg83
Nsg76
(lp3333
sbasbsS'etype'
p3334
S"<type 'exceptions.SyntaxError'>"
p3335
sS'date'
p3336
S'Sun Aug 12 12:07:21 2012'
p3337
sS'response'
p3338
g69
(g70
g71
NtRp3339
(dp3340
g74
(dp3341
sg76
(lp3342
g69
(g78
g71
NtRp3343
(dp3344
g74
(dp3345
g82
I5
ssg83
Nsg76
(lp3346
g69
(g85
g71
NtRp3347
(dp3348
g74
(dp3349
sg83
g3343
sg76
(lp3350
g69
(g90
g71
NtRp3351
(dp3352
g74
(dp3353
g94
g95
ssg83
g3347
sg76
(lp3354
g167
asbag69
(g90
g71
NtRp3355
(dp3356
g74
(dp3357
g101
g102
ssg83
g3347
sg76
(lp3358
S':'
asbag69
(g90
g71
NtRp3359
(dp3360
g74
(dp3361
sg83
g3347
sg76
(lp3362
g69
(g70
g71
NtRp3363
(dp3364
g74
(dp3365
g82
I5
ssg83
g3359
sg76
(lp3366
S'<cStringIO.StringO object at 0x059F9420>'
p3367
asbasbasbag69
(g85
g71
NtRp3368
(dp3369
g74
(dp3370
sg83
g3343
sg76
(lp3371
g69
(g90
g71
NtRp3372
(dp3373
g74
(dp3374
g94
g95
ssg83
g3368
sg76
(lp3375
g233
asbag69
(g90
g71
NtRp3376
(dp3377
g74
(dp3378
g101
g102
ssg83
g3368
sg76
(lp3379
S':'
asbag69
(g90
g71
NtRp3380
(dp3381
g74
(dp3382
sg83
g3368
sg76
(lp3383
g69
(g70
g71
NtRp3384
(dp3385
g74
(dp3386
g82
I5
ssg83
g3380
sg76
(lp3387
g69
(g78
g71
NtRp3388
(dp3389
g74
(dp3390
g82
I4
ssg83
Nsg76
(lp3391
g69
(g85
g71
NtRp3392
(dp3393
g74
(dp3394
sg83
g3388
sg76
(lp3395
g69
(g90
g71
NtRp3396
(dp3397
g74
(dp3398
g94
g95
ssg83
g3392
sg76
(lp3399
S'session_id_ecommerce'
p3400
asbag69
(g90
g71
NtRp3401
(dp3402
g74
(dp3403
g101
g102
ssg83
g3392
sg76
(lp3404
S':'
asbag69
(g90
g71
NtRp3405
(dp3406
g74
(dp3407
sg83
g3392
sg76
(lp3408
g69
(g70
g71
NtRp3409
(dp3410
g74
(dp3411
g82
I4
ssg83
g3405
sg76
(lp3412
g465
ag69
(g78
g71
NtRp3413
(dp3414
g74
(dp3415
g82
I3
ssg83
Nsg76
(lp3416
g69
(g85
g71
NtRp3417
(dp3418
g74
(dp3419
sg83
g3413
sg76
(lp3420
g69
(g90
g71
NtRp3421
(dp3422
g74
(dp3423
g94
g95
ssg83
g3417
sg76
(lp3424
g284
asbag69
(g90
g71
NtRp3425
(dp3426
g74
(dp3427
g101
g102
ssg83
g3417
sg76
(lp3428
S':'
asbag69
(g90
g71
NtRp3429
(dp3430
g74
(dp3431
sg83
g3417
sg76
(lp3432
g69
(g70
g71
NtRp3433
(dp3434
g74
(dp3435
g82
I3
ssg83
g3429
sg76
(lp3436
S''
asbasbasbag69
(g85
g71
NtRp3437
(dp3438
g74
(dp3439
sg83
g3413
sg76
(lp3440
g69
(g90
g71
NtRp3441
(dp3442
g74
(dp3443
g94
g95
ssg83
g3437
sg76
(lp3444
g305
asbag69
(g90
g71
NtRp3445
(dp3446
g74
(dp3447
g101
g102
ssg83
g3437
sg76
(lp3448
S':'
asbag69
(g90
g71
NtRp3449
(dp3450
g74
(dp3451
sg83
g3437
sg76
(lp3452
g69
(g70
g71
NtRp3453
(dp3454
g74
(dp3455
g82
I3
ssg83
g3449
sg76
(lp3456
S''
asbasbasbag69
(g85
g71
NtRp3457
(dp3458
g74
(dp3459
sg83
g3413
sg76
(lp3460
g69
(g90
g71
NtRp3461
(dp3462
g74
(dp3463
g94
g95
ssg83
g3457
sg76
(lp3464
g326
asbag69
(g90
g71
NtRp3465
(dp3466
g74
(dp3467
g101
g102
ssg83
g3457
sg76
(lp3468
S':'
asbag69
(g90
g71
NtRp3469
(dp3470
g74
(dp3471
sg83
g3457
sg76
(lp3472
g69
(g70
g71
NtRp3473
(dp3474
g74
(dp3475
g82
I3
ssg83
g3469
sg76
(lp3476
S''
asbasbasbag69
(g85
g71
NtRp3477
(dp3478
g74
(dp3479
sg83
g3413
sg76
(lp3480
g69
(g90
g71
NtRp3481
(dp3482
g74
(dp3483
g94
g95
ssg83
g3477
sg76
(lp3484
g347
asbag69
(g90
g71
NtRp3485
(dp3486
g74
(dp3487
g101
g102
ssg83
g3477
sg76
(lp3488
S':'
asbag69
(g90
g71
NtRp3489
(dp3490
g74
(dp3491
sg83
g3477
sg76
(lp3492
g69
(g70
g71
NtRp3493
(dp3494
g74
(dp3495
g82
I3
ssg83
g3489
sg76
(lp3496
S''
asbasbasbag69
(g85
g71
NtRp3497
(dp3498
g74
(dp3499
sg83
g3413
sg76
(lp3500
g69
(g90
g71
NtRp3501
(dp3502
g74
(dp3503
g94
g95
ssg83
g3497
sg76
(lp3504
g368
asbag69
(g90
g71
NtRp3505
(dp3506
g74
(dp3507
g101
g102
ssg83
g3497
sg76
(lp3508
S':'
asbag69
(g90
g71
NtRp3509
(dp3510
g74
(dp3511
sg83
g3497
sg76
(lp3512
g69
(g70
g71
NtRp3513
(dp3514
g74
(dp3515
g82
I3
ssg83
g3509
sg76
(lp3516
S''
asbasbasbag69
(g85
g71
NtRp3517
(dp3518
g74
(dp3519
sg83
g3413
sg76
(lp3520
g69
(g90
g71
NtRp3521
(dp3522
g74
(dp3523
g94
g95
ssg83
g3517
sg76
(lp3524
g389
asbag69
(g90
g71
NtRp3525
(dp3526
g74
(dp3527
g101
g102
ssg83
g3517
sg76
(lp3528
S':'
asbag69
(g90
g71
NtRp3529
(dp3530
g74
(dp3531
sg83
g3517
sg76
(lp3532
g69
(g70
g71
NtRp3533
(dp3534
g74
(dp3535
g82
I3
ssg83
g3529
sg76
(lp3536
S'/'
asbasbasbag69
(g85
g71
NtRp3537
(dp3538
g74
(dp3539
sg83
g3413
sg76
(lp3540
g69
(g90
g71
NtRp3541
(dp3542
g74
(dp3543
g94
g95
ssg83
g3537
sg76
(lp3544
g410
asbag69
(g90
g71
NtRp3545
(dp3546
g74
(dp3547
g101
g102
ssg83
g3537
sg76
(lp3548
S':'
asbag69
(g90
g71
NtRp3549
(dp3550
g74
(dp3551
sg83
g3537
sg76
(lp3552
g69
(g70
g71
NtRp3553
(dp3554
g74
(dp3555
g82
I3
ssg83
g3549
sg76
(lp3556
S''
asbasbasbag69
(g85
g71
NtRp3557
(dp3558
g74
(dp3559
sg83
g3413
sg76
(lp3560
g69
(g90
g71
NtRp3561
(dp3562
g74
(dp3563
g94
g95
ssg83
g3557
sg76
(lp3564
g431
asbag69
(g90
g71
NtRp3565
(dp3566
g74
(dp3567
g101
g102
ssg83
g3557
sg76
(lp3568
S':'
asbag69
(g90
g71
NtRp3569
(dp3570
g74
(dp3571
sg83
g3557
sg76
(lp3572
g69
(g70
g71
NtRp3573
(dp3574
g74
(dp3575
g82
I3
ssg83
g3569
sg76
(lp3576
S''
asbasbasbasbasbasbasbasbasbasbasbag69
(g85
g71
NtRp3577
(dp3578
g74
(dp3579
sg83
g3343
sg76
(lp3580
g69
(g90
g71
NtRp3581
(dp3582
g74
(dp3583
g94
g95
ssg83
g3577
sg76
(lp3584
S'delimiters'
p3585
asbag69
(g90
g71
NtRp3586
(dp3587
g74
(dp3588
g101
g102
ssg83
g3577
sg76
(lp3589
S':'
asbag69
(g90
g71
NtRp3590
(dp3591
g74
(dp3592
sg83
g3577
sg76
(lp3593
g69
(g70
g71
NtRp3594
(dp3595
g74
(dp3596
g82
I5
ssg83
g3590
sg76
(lp3597
g69
(g78
g71
NtRp3598
(dp3599
g74
(dp3600
g82
I4
ssg83
Nsg76
(lp3601
g69
(g85
g71
NtRp3602
(dp3603
g74
(dp3604
sg83
g3598
sg76
(lp3605
g69
(g90
g71
NtRp3606
(dp3607
g74
(dp3608
sg83
g3602
sg76
(lp3609
g69
(g70
g71
NtRp3610
(dp3611
g74
(dp3612
g82
I4
ssg83
g3606
sg76
(lp3613
S'{{'
p3614
asbasbasbag69
(g85
g71
NtRp3615
(dp3616
g74
(dp3617
sg83
g3598
sg76
(lp3618
g69
(g90
g71
NtRp3619
(dp3620
g74
(dp3621
sg83
g3615
sg76
(lp3622
g69
(g70
g71
NtRp3623
(dp3624
g74
(dp3625
g82
I4
ssg83
g3619
sg76
(lp3626
S'}}'
p3627
asbasbasbasbasbasbasbag69
(g85
g71
NtRp3628
(dp3629
g74
(dp3630
sg83
g3343
sg76
(lp3631
g69
(g90
g71
NtRp3632
(dp3633
g74
(dp3634
g94
g95
ssg83
g3628
sg76
(lp3635
S'description'
p3636
asbag69
(g90
g71
NtRp3637
(dp3638
g74
(dp3639
g101
g102
ssg83
g3628
sg76
(lp3640
S':'
asbag69
(g90
g71
NtRp3641
(dp3642
g74
(dp3643
sg83
g3628
sg76
(lp3644
g69
(g70
g71
NtRp3645
(dp3646
g74
(dp3647
g82
I5
ssg83
g3641
sg76
(lp3648
S'Ecommerce'
p3649
asbasbasbag69
(g85
g71
NtRp3650
(dp3651
g74
(dp3652
sg83
g3343
sg76
(lp3653
g69
(g90
g71
NtRp3654
(dp3655
g74
(dp3656
g94
g95
ssg83
g3650
sg76
(lp3657
S'files'
p3658
asbag69
(g90
g71
NtRp3659
(dp3660
g74
(dp3661
g101
g102
ssg83
g3650
sg76
(lp3662
S':'
asbag69
(g90
g71
NtRp3663
(dp3664
g74
(dp3665
sg83
g3650
sg76
(lp3666
g69
(g70
g71
NtRp3667
(dp3668
g74
(dp3669
g82
I5
ssg83
g3663
sg76
(lp3670
g69
(g78
g71
NtRp3671
(dp3672
g74
(dp3673
g82
I4
ssg83
Nsg76
(lp3674
sbasbasbasbag69
(g85
g71
NtRp3675
(dp3676
g74
(dp3677
sg83
g3343
sg76
(lp3678
g69
(g90
g71
NtRp3679
(dp3680
g74
(dp3681
g94
g95
ssg83
g3675
sg76
(lp3682
S'flash'
p3683
asbag69
(g90
g71
NtRp3684
(dp3685
g74
(dp3686
g101
g102
ssg83
g3675
sg76
(lp3687
S':'
asbag69
(g90
g71
NtRp3688
(dp3689
g74
(dp3690
sg83
g3675
sg76
(lp3691
g69
(g70
g71
NtRp3692
(dp3693
g74
(dp3694
g82
I5
ssg83
g3688
sg76
(lp3695
S''
asbasbasbag69
(g85
g71
NtRp3696
(dp3697
g74
(dp3698
sg83
g3343
sg76
(lp3699
g69
(g90
g71
NtRp3700
(dp3701
g74
(dp3702
g94
g95
ssg83
g3696
sg76
(lp3703
S'generic_patterns'
p3704
asbag69
(g90
g71
NtRp3705
(dp3706
g74
(dp3707
g101
g102
ssg83
g3696
sg76
(lp3708
S':'
asbag69
(g90
g71
NtRp3709
(dp3710
g74
(dp3711
sg83
g3696
sg76
(lp3712
g69
(g70
g71
NtRp3713
(dp3714
g74
(dp3715
g82
I5
ssg83
g3709
sg76
(lp3716
g69
(g78
g71
NtRp3717
(dp3718
g74
(dp3719
g82
I4
ssg83
Nsg76
(lp3720
g69
(g85
g71
NtRp3721
(dp3722
g74
(dp3723
sg83
g3717
sg76
(lp3724
g69
(g90
g71
NtRp3725
(dp3726
g74
(dp3727
sg83
g3721
sg76
(lp3728
g69
(g70
g71
NtRp3729
(dp3730
g74
(dp3731
g82
I4
ssg83
g3725
sg76
(lp3732
S'*'
asbasbasbasbasbasbasbag69
(g85
g71
NtRp3733
(dp3734
g74
(dp3735
sg83
g3343
sg76
(lp3736
g69
(g90
g71
NtRp3737
(dp3738
g74
(dp3739
g94
g95
ssg83
g3733
sg76
(lp3740
S'headers'
p3741
asbag69
(g90
g71
NtRp3742
(dp3743
g74
(dp3744
g101
g102
ssg83
g3733
sg76
(lp3745
S':'
asbag69
(g90
g71
NtRp3746
(dp3747
g74
(dp3748
sg83
g3733
sg76
(lp3749
g69
(g70
g71
NtRp3750
(dp3751
g74
(dp3752
g82
I5
ssg83
g3746
sg76
(lp3753
g69
(g78
g71
NtRp3754
(dp3755
g74
(dp3756
g82
I4
ssg83
Nsg76
(lp3757
g69
(g85
g71
NtRp3758
(dp3759
g74
(dp3760
sg83
g3754
sg76
(lp3761
g69
(g90
g71
NtRp3762
(dp3763
g74
(dp3764
g94
g95
ssg83
g3758
sg76
(lp3765
S'Cache-Control'
p3766
asbag69
(g90
g71
NtRp3767
(dp3768
g74
(dp3769
g101
g102
ssg83
g3758
sg76
(lp3770
S':'
asbag69
(g90
g71
NtRp3771
(dp3772
g74
(dp3773
sg83
g3758
sg76
(lp3774
g69
(g70
g71
NtRp3775
(dp3776
g74
(dp3777
g82
I4
ssg83
g3771
sg76
(lp3778
S'no-store, no-cache, must-revalidate, post-check=0, pre-check=0'
p3779
asbasbasbag69
(g85
g71
NtRp3780
(dp3781
g74
(dp3782
sg83
g3754
sg76
(lp3783
g69
(g90
g71
NtRp3784
(dp3785
g74
(dp3786
g94
g95
ssg83
g3780
sg76
(lp3787
S'Content-Type'
p3788
asbag69
(g90
g71
NtRp3789
(dp3790
g74
(dp3791
g101
g102
ssg83
g3780
sg76
(lp3792
S':'
asbag69
(g90
g71
NtRp3793
(dp3794
g74
(dp3795
sg83
g3780
sg76
(lp3796
g69
(g70
g71
NtRp3797
(dp3798
g74
(dp3799
g82
I4
ssg83
g3793
sg76
(lp3800
S'text/html; charset=utf-8'
p3801
asbasbasbag69
(g85
g71
NtRp3802
(dp3803
g74
(dp3804
sg83
g3754
sg76
(lp3805
g69
(g90
g71
NtRp3806
(dp3807
g74
(dp3808
g94
g95
ssg83
g3802
sg76
(lp3809
S'Expires'
p3810
asbag69
(g90
g71
NtRp3811
(dp3812
g74
(dp3813
g101
g102
ssg83
g3802
sg76
(lp3814
S':'
asbag69
(g90
g71
NtRp3815
(dp3816
g74
(dp3817
sg83
g3802
sg76
(lp3818
g69
(g70
g71
NtRp3819
(dp3820
g74
(dp3821
g82
I4
ssg83
g3815
sg76
(lp3822
S'Sun, 12 Aug 2012 15:07:21 GMT'
p3823
asbasbasbag69
(g85
g71
NtRp3824
(dp3825
g74
(dp3826
sg83
g3754
sg76
(lp3827
g69
(g90
g71
NtRp3828
(dp3829
g74
(dp3830
g94
g95
ssg83
g3824
sg76
(lp3831
S'Pragma'
p3832
asbag69
(g90
g71
NtRp3833
(dp3834
g74
(dp3835
g101
g102
ssg83
g3824
sg76
(lp3836
S':'
asbag69
(g90
g71
NtRp3837
(dp3838
g74
(dp3839
sg83
g3824
sg76
(lp3840
g69
(g70
g71
NtRp3841
(dp3842
g74
(dp3843
g82
I4
ssg83
g3837
sg76
(lp3844
S'no-cache'
p3845
asbasbasbag69
(g85
g71
NtRp3846
(dp3847
g74
(dp3848
sg83
g3754
sg76
(lp3849
g69
(g90
g71
NtRp3850
(dp3851
g74
(dp3852
g94
g95
ssg83
g3846
sg76
(lp3853
S'X-Powered-By'
p3854
asbag69
(g90
g71
NtRp3855
(dp3856
g74
(dp3857
g101
g102
ssg83
g3846
sg76
(lp3858
S':'
asbag69
(g90
g71
NtRp3859
(dp3860
g74
(dp3861
sg83
g3846
sg76
(lp3862
g69
(g70
g71
NtRp3863
(dp3864
g74
(dp3865
g82
I4
ssg83
g3859
sg76
(lp3866
S'web2py'
p3867
asbasbasbasbasbasbasbag69
(g85
g71
NtRp3868
(dp3869
g74
(dp3870
sg83
g3343
sg76
(lp3871
g69
(g90
g71
NtRp3872
(dp3873
g74
(dp3874
g94
g95
ssg83
g3868
sg76
(lp3875
S'menu'
p3876
asbag69
(g90
g71
NtRp3877
(dp3878
g74
(dp3879
g101
g102
ssg83
g3868
sg76
(lp3880
S':'
asbag69
(g90
g71
NtRp3881
(dp3882
g74
(dp3883
sg83
g3868
sg76
(lp3884
g69
(g70
g71
NtRp3885
(dp3886
g74
(dp3887
g82
I5
ssg83
g3881
sg76
(lp3888
g69
(g78
g71
NtRp3889
(dp3890
g74
(dp3891
g82
I4
ssg83
Nsg76
(lp3892
sbasbasbasbag69
(g85
g71
NtRp3893
(dp3894
g74
(dp3895
sg83
g3343
sg76
(lp3896
g69
(g90
g71
NtRp3897
(dp3898
g74
(dp3899
g94
g95
ssg83
g3893
sg76
(lp3900
S'meta'
p3901
asbag69
(g90
g71
NtRp3902
(dp3903
g74
(dp3904
g101
g102
ssg83
g3893
sg76
(lp3905
S':'
asbag69
(g90
g71
NtRp3906
(dp3907
g74
(dp3908
sg83
g3893
sg76
(lp3909
g69
(g70
g71
NtRp3910
(dp3911
g74
(dp3912
g82
I5
ssg83
g3906
sg76
(lp3913
g69
(g78
g71
NtRp3914
(dp3915
g74
(dp3916
g82
I4
ssg83
Nsg76
(lp3917
sbasbasbasbag69
(g85
g71
NtRp3918
(dp3919
g74
(dp3920
sg83
g3343
sg76
(lp3921
g69
(g90
g71
NtRp3922
(dp3923
g74
(dp3924
g94
g95
ssg83
g3918
sg76
(lp3925
S'postprocessing'
p3926
asbag69
(g90
g71
NtRp3927
(dp3928
g74
(dp3929
g101
g102
ssg83
g3918
sg76
(lp3930
S':'
asbag69
(g90
g71
NtRp3931
(dp3932
g74
(dp3933
sg83
g3918
sg76
(lp3934
g69
(g70
g71
NtRp3935
(dp3936
g74
(dp3937
g82
I5
ssg83
g3931
sg76
(lp3938
g69
(g78
g71
NtRp3939
(dp3940
g74
(dp3941
g82
I4
ssg83
Nsg76
(lp3942
sbasbasbasbag69
(g85
g71
NtRp3943
(dp3944
g74
(dp3945
sg83
g3343
sg76
(lp3946
g69
(g90
g71
NtRp3947
(dp3948
g74
(dp3949
g94
g95
ssg83
g3943
sg76
(lp3950
S'session_file'
p3951
asbag69
(g90
g71
NtRp3952
(dp3953
g74
(dp3954
g101
g102
ssg83
g3943
sg76
(lp3955
S':'
asbag69
(g90
g71
NtRp3956
(dp3957
g74
(dp3958
sg83
g3943
sg76
(lp3959
g69
(g70
g71
NtRp3960
(dp3961
g74
(dp3962
g82
I5
ssg83
g3956
sg76
(lp3963
S"<open file 'c:\\Users\\rochacbruno\\jul12\\cursojulho12\\web2py\\applications\\ecommerce\\sessions\\127.0.0.1-0fe94d39-4aae-427f-bfbc-597a65cd32c1', mode 'rb+' at 0x059B3AC8>"
p3964
asbasbasbag69
(g85
g71
NtRp3965
(dp3966
g74
(dp3967
sg83
g3343
sg76
(lp3968
g69
(g90
g71
NtRp3969
(dp3970
g74
(dp3971
g94
g95
ssg83
g3965
sg76
(lp3972
S'session_filename'
p3973
asbag69
(g90
g71
NtRp3974
(dp3975
g74
(dp3976
g101
g102
ssg83
g3965
sg76
(lp3977
S':'
asbag69
(g90
g71
NtRp3978
(dp3979
g74
(dp3980
sg83
g3965
sg76
(lp3981
g69
(g70
g71
NtRp3982
(dp3983
g74
(dp3984
g82
I5
ssg83
g3978
sg76
(lp3985
S'c:\\Users\\rochacbruno\\jul12\\cursojulho12\\web2py\\applications\\ecommerce\\sessions\\127.0.0.1-0fe94d39-4aae-427f-bfbc-597a65cd32c1'
p3986
asbasbasbag69
(g85
g71
NtRp3987
(dp3988
g74
(dp3989
sg83
g3343
sg76
(lp3990
g69
(g90
g71
NtRp3991
(dp3992
g74
(dp3993
g94
g95
ssg83
g3987
sg76
(lp3994
S'session_id'
p3995
asbag69
(g90
g71
NtRp3996
(dp3997
g74
(dp3998
g101
g102
ssg83
g3987
sg76
(lp3999
S':'
asbag69
(g90
g71
NtRp4000
(dp4001
g74
(dp4002
sg83
g3987
sg76
(lp4003
g69
(g70
g71
NtRp4004
(dp4005
g74
(dp4006
g82
I5
ssg83
g4000
sg76
(lp4007
g465
asbasbasbag69
(g85
g71
NtRp4008
(dp4009
g74
(dp4010
sg83
g3343
sg76
(lp4011
g69
(g90
g71
NtRp4012
(dp4013
g74
(dp4014
g94
g95
ssg83
g4008
sg76
(lp4015
S'session_id_name'
p4016
asbag69
(g90
g71
NtRp4017
(dp4018
g74
(dp4019
g101
g102
ssg83
g4008
sg76
(lp4020
S':'
asbag69
(g90
g71
NtRp4021
(dp4022
g74
(dp4023
sg83
g4008
sg76
(lp4024
g69
(g70
g71
NtRp4025
(dp4026
g74
(dp4027
g82
I5
ssg83
g4021
sg76
(lp4028
g3400
asbasbasbag69
(g85
g71
NtRp4029
(dp4030
g74
(dp4031
sg83
g3343
sg76
(lp4032
g69
(g90
g71
NtRp4033
(dp4034
g74
(dp4035
g94
g95
ssg83
g4029
sg76
(lp4036
S'session_locked'
p4037
asbag69
(g90
g71
NtRp4038
(dp4039
g74
(dp4040
g101
g102
ssg83
g4029
sg76
(lp4041
S':'
asbag69
(g90
g71
NtRp4042
(dp4043
g74
(dp4044
sg83
g4029
sg76
(lp4045
g69
(g70
g71
NtRp4046
(dp4047
g74
(dp4048
g82
I5
ssg83
g4042
sg76
(lp4049
g1877
asbasbasbag69
(g85
g71
NtRp4050
(dp4051
g74
(dp4052
sg83
g3343
sg76
(lp4053
g69
(g90
g71
NtRp4054
(dp4055
g74
(dp4056
g94
g95
ssg83
g4050
sg76
(lp4057
S'session_new'
p4058
asbag69
(g90
g71
NtRp4059
(dp4060
g74
(dp4061
g101
g102
ssg83
g4050
sg76
(lp4062
S':'
asbag69
(g90
g71
NtRp4063
(dp4064
g74
(dp4065
sg83
g4050
sg76
(lp4066
g69
(g70
g71
NtRp4067
(dp4068
g74
(dp4069
g82
I5
ssg83
g4063
sg76
(lp4070
g112
asbasbasbag69
(g85
g71
NtRp4071
(dp4072
g74
(dp4073
sg83
g3343
sg76
(lp4074
g69
(g90
g71
NtRp4075
(dp4076
g74
(dp4077
g94
g95
ssg83
g4071
sg76
(lp4078
S'status'
p4079
asbag69
(g90
g71
NtRp4080
(dp4081
g74
(dp4082
g101
g102
ssg83
g4071
sg76
(lp4083
S':'
asbag69
(g90
g71
NtRp4084
(dp4085
g74
(dp4086
sg83
g4071
sg76
(lp4087
g69
(g70
g71
NtRp4088
(dp4089
g74
(dp4090
g82
I5
ssg83
g4084
sg76
(lp4091
S'200'
p4092
asbasbasbag69
(g85
g71
NtRp4093
(dp4094
g74
(dp4095
sg83
g3343
sg76
(lp4096
g69
(g90
g71
NtRp4097
(dp4098
g74
(dp4099
g94
g95
ssg83
g4093
sg76
(lp4100
S'title'
p4101
asbag69
(g90
g71
NtRp4102
(dp4103
g74
(dp4104
g101
g102
ssg83
g4093
sg76
(lp4105
S':'
asbag69
(g90
g71
NtRp4106
(dp4107
g74
(dp4108
sg83
g4093
sg76
(lp4109
g69
(g70
g71
NtRp4110
(dp4111
g74
(dp4112
g82
I5
ssg83
g4106
sg76
(lp4113
S'Ecommerce do Bruno | CursodePython.com.br'
p4114
asbasbasbag69
(g85
g71
NtRp4115
(dp4116
g74
(dp4117
sg83
g3343
sg76
(lp4118
g69
(g90
g71
NtRp4119
(dp4120
g74
(dp4121
g94
g95
ssg83
g4115
sg76
(lp4122
g2520
asbag69
(g90
g71
NtRp4123
(dp4124
g74
(dp4125
g101
g102
ssg83
g4115
sg76
(lp4126
S':'
asbag69
(g90
g71
NtRp4127
(dp4128
g74
(dp4129
sg83
g4115
sg76
(lp4130
g69
(g70
g71
NtRp4131
(dp4132
g74
(dp4133
g82
I5
ssg83
g4127
sg76
(lp4134
g2533
asbasbasbag69
(g85
g71
NtRp4135
(dp4136
g74
(dp4137
sg83
g3343
sg76
(lp4138
g69
(g90
g71
NtRp4139
(dp4140
g74
(dp4141
g94
g95
ssg83
g4135
sg76
(lp4142
S'view'
p4143
asbag69
(g90
g71
NtRp4144
(dp4145
g74
(dp4146
g101
g102
ssg83
g4135
sg76
(lp4147
S':'
asbag69
(g90
g71
NtRp4148
(dp4149
g74
(dp4150
sg83
g4135
sg76
(lp4151
g69
(g70
g71
NtRp4152
(dp4153
g74
(dp4154
g82
I5
ssg83
g4148
sg76
(lp4155
S'product/new.html'
p4156
asbasbasbasbasbsS'locals'
p4157
(dp4158
S'self'
p4159
S"<DAL {'_pool_size': 0, '_common_fields': [], '_l..._uri': 'sqlite://ecommerce.db', '_migrated': []}>"
p4160
sS'name'
p4161
S"'number'"
p4162
sS'backend'
p4163
S"'all'"
p4164
sssS'traceback'
p4165
S'Traceback (most recent call last):\n  File "c:\\Users\\rochacbruno\\jul12\\cursojulho12\\web2py\\gluon\\restricted.py", line 205, in restricted\n    exec ccode in environment\n  File "c:\\Users\\rochacbruno\\jul12\\cursojulho12\\web2py\\applications\\ecommerce\\models\\datamodel_application.py", line 38, in <module>\n    auth.define_tables()\n  File "c:\\Users\\rochacbruno\\jul12\\cursojulho12\\web2py\\gluon\\tools.py", line 1448, in define_tables\n    format=\'%(first_name)s %(last_name)s (%(id)s)\'))\n  File "c:\\Users\\rochacbruno\\jul12\\cursojulho12\\web2py\\gluon\\dal.py", line 6961, in define_table\n    common_filter=common_filter))\n  File "c:\\Users\\rochacbruno\\jul12\\cursojulho12\\web2py\\gluon\\dal.py", line 7279, in __init__\n    db.check_reserved_keyword(field.name)\n  File "c:\\Users\\rochacbruno\\jul12\\cursojulho12\\web2py\\gluon\\dal.py", line 6667, in check_reserved_keyword\n    raise SyntaxError, \'invalid table/column name "%s" is a "%s" reserved SQL keyword\' % (name, backend.upper())\nSyntaxError: invalid table/column name "number" is a "ALL" reserved SQL keyword\n'
p4166
s.