(dp1
S'output'
p2
S"<type 'exceptions.TypeError'> not enough arguments for format string"
p3
sS'layer'
p4
S'c:\\Users\\rochacbruno\\jul12\\cursojulho12\\web2py\\applications\\ecommerce\\views\\appadmin.html'
p5
sS'code'
p6
S'response.write(\'<!DOCTYPE html>\\r\\n<html lang="en">\\r\\n  <head>\\r\\n    <meta charset="utf-8">\\r\\n    <title>\', escape=False)\nresponse.write(response.title)\nresponse.write(\'</title>\\r\\n    <meta name="viewport" content="width=device-width, initial-scale=1.0">\\r\\n    <meta name="description" content="\', escape=False)\nresponse.write(response.description)\nresponse.write(\'">\\r\\n    <!-- Le styles -->\\r\\n    <link href="\', escape=False)\nresponse.write(URL(\'static\', \'css\', args=\'bootstrap.css\'))\nresponse.write(\'" rel="stylesheet">\\r\\n\\r\\n    <!-- web2py css -->\\r\\n    <link href="\', escape=False)\nresponse.write(URL(\'static\', \'css\', args=\'calendar.css\'))\nresponse.write(\'" rel="stylesheet">\\r\\n    <link href="\', escape=False)\nresponse.write(URL(\'static\', \'css\', args=\'web2py.css\'))\nresponse.write(\'" rel="stylesheet">\\r\\n    \\r\\n    <!-- navbar -->\\r\\n    <style type="text/css">\\r\\n      body {\\r\\n        padding-top: 60px;\\r\\n        padding-bottom: 40px;\\r\\n      }\\r\\n    </style>\\r\\n    \\r\\n    <link href="\', escape=False)\nresponse.write(URL(\'static\', \'css\', args=\'bootstrap-responsive.css\'))\nresponse.write(\'" rel="stylesheet">\\r\\n    \\r\\n    <!-- Le HTML5 shim, for IE6-8 support of HTML5 elements -->\\r\\n    <!--[if lt IE 9]>\\r\\n      <script src="http://html5shim.googlecode.com/svn/trunk/html5.js"></script>\\r\\n    <![endif]-->\\r\\n    \\r\\n    <!-- web2py JS -->\\r\\n    \\r\\n    <script type="text/javascript"><!--\\r\\n    // These variables are used by the web2py_ajax_init function in web2py_ajax.js (which is loaded below).\\r\\n    var w2p_ajax_confirm_message = "\', escape=False)\nresponse.write(T(\'Are you sure you want to delete this object?\'))\nresponse.write(\'";\\r\\n    var w2p_ajax_date_format = "\', escape=False)\nresponse.write(T(\'%Y-%m-%d\'))\nresponse.write(\'";\\r\\n    var w2p_ajax_datetime_format = "\', escape=False)\nresponse.write(T(\'%Y-%m-%d %H:%M:%S\'))\nresponse.write(\'";\\r\\n    //--></script>\\r\\n\\r\\n    <script src="\', escape=False)\nresponse.write(URL(\'static\', \'js\', args=\'jquery.js\'))\nresponse.write(\'"></script>\\r\\n    <script src="\', escape=False)\nresponse.write(URL(\'static\', \'js\', args=\'calendar.js\'))\nresponse.write(\'"></script>\\r\\n    <script src="\', escape=False)\nresponse.write(URL(\'static\', \'js\', args=\'web2py.js\'))\nresponse.write(\'"></script>\\r\\n    \\r\\n    <!-- bootstrap JS -->\\r\\n    <script src="\', escape=False)\nresponse.write(URL(\'static\', \'js\', args=\'bootstrap.js\'))\nresponse.write(\'"></script>\\r\\n    \\r\\n    \', escape=False)\nresponse.write(\'\\r\\n<script><!--\\r\\n    jQuery(document).ready(function(){\\r\\n    jQuery("table.sortable tbody tr").mouseover( function() {\\r\\n    jQuery(this).addClass("highlight"); }).mouseout( function() { \\r\\n    jQuery(this).removeClass("highlight"); });\\r\\n    jQuery(\\\'table.sortable tbody tr:odd\\\').addClass(\\\'odd\\\');\\r\\n    jQuery(\\\'table.sortable tbody tr:even\\\').addClass(\\\'even\\\');\\r\\n});\\r\\n//--></script>\\r\\n\', escape=False)\nresponse.write(\'    \\r\\n  </head>\\r\\n  <body>\\r\\n    \', escape=False)\nresponse.write(\'\\r\\n    <div class="navbar navbar-fixed-top">\\r\\n      <div class="navbar-inner">\\r\\n        <div class="container">\\r\\n          <a class="btn btn-navbar" data-toggle="collapse" data-target=".nav-collapse">\\r\\n            <span class="icon-bar"></span>\\r\\n            <span class="icon-bar"></span>\\r\\n            <span class="icon-bar"></span>\\r\\n          </a>\\r\\n          <a class="brand" href="/">Ecommerce</a>\\r\\n          <div class="nav-collapse">\\r\\n            <ul class="nav">\\r\\n              <li class="active"><a href="#">Home</a></li>\\r\\n              <li><a href="#about">About</a></li>\\r\\n              <li><a href="#contact">Contact</a></li>\\r\\n            </ul>\\r\\n          </div><!--/.nav-collapse -->\\r\\n        </div>\\r\\n      </div>\\r\\n    </div>\\r\\n    \', escape=False)\nresponse.write(\'\\r\\n\\r\\n    <div class="container">\\r\\n      \', escape=False)\nresponse.write(\'\\r\\n\\r\\n      \', escape=False)\nresponse.write(\'\\r\\n\\r\\n      \', escape=False)\nresponse.write(\'\\r\\n\', escape=False)\nif request.function==\'index\':\n    response.write(\'\\r\\n<h2>\', escape=False)\n    response.write(T("Available databases and tables"))\n    response.write(\'</h2>\\r\\n  \', escape=False)\n    if not databases:\n        response.write(T("No databases in this application"))\n        pass\n    response.write(\'\\r\\n  \', escape=False)\n    for db in sorted(databases):\n        response.write(\'\\r\\n    \', escape=False)\n        for table in databases[db].tables:\n            response.write(\'\\r\\n      \', escape=False)\n            qry=\'%s.%s.id>0\'%(db,table)\n            response.write(\'\\r\\n      \', escape=False)\n            tbl=databases[db][table]\n            response.write(\'\\r\\n      \', escape=False)\n            if hasattr(tbl,\'_primarykey\'):\n                response.write(\'\\r\\n        \', escape=False)\n                if tbl._primarykey:\n                    response.write(\'\\r\\n            \', escape=False)\n                    firstkey=tbl[tbl._primarykey[0]]\n                    response.write(\'\\r\\n            \', escape=False)\n                    if firstkey.type in [\'string\',\'text\']:\n                        response.write(\'\\r\\n              \', escape=False)\n                        qry=\'%s.%s.%s!=""\'%(db,table,firstkey.name)\n                        response.write(\'\\r\\n            \', escape=False)\n                    else:\n                        response.write(\'\\r\\n              \', escape=False)\n                        qry=\'%s.%s.%s>0\'%(db,table,firstkey.name)\n                        response.write(\'\\r\\n            \', escape=False)\n                        pass\n                    response.write(\'\\r\\n        \', escape=False)\n                else:\n                    response.write(\'\\r\\n             \', escape=False)\n                    qry=\'\'\n                    response.write(\'\\r\\n             \', escape=False)\n                    pass\n                response.write(\'\\r\\n      \', escape=False)\n                pass\n            response.write(\'\\r\\n      <h3>\\r\\n    \', escape=False)\n            response.write(A("%s.%s" % (db,table),_href=URL(\'select\',args=[db],vars=dict(query=qry))))\n            response.write(\'\\r\\n      </h3>\\r\\n      [ \', escape=False)\n            response.write(A(str(T(\'insert new\'))+\' \'+table,_href=URL(\'insert\',args=[db,table])))\n            response.write(\' ]\\r\\n    <br /><br />\\r\\n    \', escape=False)\n            pass\n        response.write(\'\\r\\n  \', escape=False)\n        pass\n    response.write(\'\\r\\n\\r\\n\', escape=False)\nelif request.function==\'select\':\n    response.write(\'\\r\\n  <h2>\', escape=False)\n    response.write(XML(str(T("database %s select"))%A(request.args[0],_href=URL(\'index\'))))\n    response.write(\'\\r\\n  </h2>\\r\\n   \', escape=False)\n    if table:\n        response.write(\'\\r\\n  [ \', escape=False)\n        response.write(A(str(T(\'insert new %s\'))%table,_href=URL(\'insert\',args=[request.args[0],table])))\n        response.write(\' ]<br/><br/>\\r\\n    <h3>\', escape=False)\n        response.write(T("Rows in table"))\n        response.write(\'</h3><br/>\\r\\n   \', escape=False)\n    else:\n        response.write(\'\\r\\n    <h3>\', escape=False)\n        response.write(T("Rows selected"))\n        response.write(\'</h3><br/>\\r\\n   \', escape=False)\n        pass\n    response.write(\'\\r\\n   \', escape=False)\n    response.write(form)\n    response.write(\'\\r\\n   <p>\', escape=False)\n    response.write(T(\'The "query" is a condition like "db.table1.field1==\\\'value\\\'". Something like "db.table1.field1==db.table2.field2" results in a SQL JOIN.\'))\n    response.write(\'<br/>\\r\\n      \', escape=False)\n    response.write(T(\'Use (...)&(...) for AND, (...)|(...) for OR, and ~(...)  for NOT to build more complex queries.\'))\n    response.write(\'<br/>\\r\\n      \', escape=False)\n    response.write(T(\'"update" is an optional expression like "field1=\\\'newvalue\\\'". You cannot update or delete the results of a JOIN\'))\n    response.write(\'</p>\\r\\n    <br/><br/>\\r\\n    <h4>\', escape=False)\n    response.write(T("%s selected", nrows))\n    response.write(\'</h4>\\r\\n    \', escape=False)\n    if start>0:\n        response.write(\'[ \', escape=False)\n        response.write(A(T(\'previous 100 rows\'),_href=URL(\'select\',args=request.args[0],vars=dict(start=start-100))))\n        response.write(\' ]\', escape=False)\n        pass\n    response.write(\'\\r\\n    \', escape=False)\n    if stop<nrows:\n        response.write(\'[ \', escape=False)\n        response.write(A(T(\'next 100 rows\'),_href=URL(\'select\',args=request.args[0],vars=dict(start=start+100))))\n        response.write(\' ]\', escape=False)\n        pass\n    response.write(\'    \\r\\n    \', escape=False)\n    if rows:\n        response.write(\'\\r\\n       <div style="overflow: auto;" width="80%">\\r\\n       \', escape=False)\n        linkto=URL(\'update\',args=request.args[0])\n        response.write(\'\\r\\n       \', escape=False)\n        upload=URL(\'download\',args=request.args[0])\n        response.write(\'    \\r\\n       \', escape=False)\n        response.write(SQLTABLE(rows,linkto,upload,orderby=True,_class=\'sortable\'))\n        response.write(\'\\r\\n       </div>\\r\\n    \', escape=False)\n        pass\n    response.write(\'\\r\\n    <br/><br/><h3>\', escape=False)\n    response.write(T("Import/Export"))\n    response.write(\'</h3><br/>\\r\\n    [ <a href="\', escape=False)\n    response.write(URL(\'csv\',args=request.args[0],vars=dict(query=query)))\n    response.write(\'">\', escape=False)\n    response.write(T("export as csv file"))\n    response.write(\'</a> ]\\r\\n  \', escape=False)\n    response.write(formcsv or \'\')\n    response.write(\'\\r\\n\\r\\n\', escape=False)\nelif request.function==\'insert\':\n    response.write(\'  \\r\\n  <h2>\', escape=False)\n    response.write(T("database"))\n    response.write(\' \', escape=False)\n    response.write(A(request.args[0],_href=URL(\'index\')))\n    response.write(\'\\r\\n    \', escape=False)\n    if hasattr(table,\'_primarykey\'):\n        response.write(\'\\r\\n      \', escape=False)\n        fieldname=table._primarykey[0]\n        response.write(\'\\r\\n      \', escape=False)\n        dbname=request.args[0]\n        response.write(\'\\r\\n      \', escape=False)\n        tablename=request.args[1]\n        response.write(\'\\r\\n      \', escape=False)\n        cond = table[fieldname].type in [\'string\',\'text\'] and \'!=""\' or \'>0\'\n        response.write(\'\\r\\n      \', escape=False)\n        response.write(T("table"))\n        response.write(\' \', escape=False)\n        response.write(A(tablename,_href=URL(\'select\',args=dbname,vars=dict(query=\'%s.%s.%s%s\'%(dbname,tablename,fieldname,cond)))))\n        response.write(\'\\r\\n    \', escape=False)\n    else:\n        response.write(\'  \\r\\n      \', escape=False)\n        response.write(T("table"))\n        response.write(\' \', escape=False)\n        response.write(A(request.args[1],_href=URL(\'select\',args=request.args[0],vars=dict(query=\'%s.%s.id>0\'%tuple(request.args[:2])))))\n        response.write(\'\\r\\n    \', escape=False)\n        pass\n    response.write(\'\\r\\n  </h2>\\r\\n  <h3>\', escape=False)\n    response.write(T("New Record"))\n    response.write(\'</h3><br/>\\r\\n  \', escape=False)\n    response.write(form)\n    response.write(\'\\r\\n\', escape=False)\nelif request.function==\'update\':\n    response.write(\'\\r\\n  <h2>\', escape=False)\n    response.write(T("database"))\n    response.write(\' \', escape=False)\n    response.write(A(request.args[0],_href=URL(\'index\')))\n    response.write(\'\\r\\n    \', escape=False)\n    if hasattr(table,\'_primarykey\'):\n        response.write(\'\\r\\n      \', escape=False)\n        fieldname=request.vars.keys()[0]\n        response.write(\'\\r\\n      \', escape=False)\n        dbname=request.args[0]\n        response.write(\'\\r\\n      \', escape=False)\n        tablename=request.args[1]\n        response.write(\'\\r\\n      \', escape=False)\n        cond = table[fieldname].type in [\'string\',\'text\'] and \'!=""\' or \'>0\'\n        response.write(\'      \\r\\n      \', escape=False)\n        response.write(T("table"))\n        response.write(\' \', escape=False)\n        response.write(A(tablename,_href=URL(\'select\',args=dbname,vars=dict(query=\'%s.%s.%s%s\'%(dbname,tablename,fieldname,cond)))))\n        response.write(\'\\r\\n      \', escape=False)\n        response.write(T("record"))\n        response.write(\' \', escape=False)\n        response.write(A(\'%s=%s\'%request.vars.items()[0],_href=URL(\'update\',args=request.args[:2],vars=request.vars)))\n        response.write(\'\\r\\n    \', escape=False)\n    else:\n        response.write(\'\\r\\n      \', escape=False)\n        response.write(T("table"))\n        response.write(\' \', escape=False)\n        response.write(A(request.args[1],_href=URL(\'select\',args=request.args[0],vars=dict(query=\'%s.%s.id>0\'%tuple(request.args[:2])))))\n        response.write(\'\\r\\n      \', escape=False)\n        response.write(T("record id"))\n        response.write(\' \', escape=False)\n        response.write(A(request.args[2],_href=URL(\'update\',args=request.args[:3])))\n        response.write(\'\\r\\n    \', escape=False)\n        pass\n    response.write(\'\\r\\n  </h2>\\r\\n  <h3>\', escape=False)\n    response.write(T("Edit current record"))\n    response.write(\'</h3><br/><br/>\', escape=False)\n    response.write(form)\n    response.write(\'\\r\\n\\r\\n\', escape=False)\nelif request.function==\'state\':\n    response.write(\'\\r\\n  <h2>\', escape=False)\n    response.write(T("Internal State"))\n    response.write(\'</h2>\\r\\n  <h3>\', escape=False)\n    response.write(T("Current request"))\n    response.write(\'</h3>\\r\\n  \', escape=False)\n    response.write(BEAUTIFY(request))\n    response.write(\'\\r\\n  <br/><h3>\', escape=False)\n    response.write(T("Current response"))\n    response.write(\'</h3>\\r\\n  \', escape=False)\n    response.write(BEAUTIFY(response))\n    response.write(\'\\r\\n  <br/><h3>\', escape=False)\n    response.write(T("Current session"))\n    response.write(\'</h3>\\r\\n  \', escape=False)\n    response.write(BEAUTIFY(session))\n    response.write(\'\\r\\n\\r\\n\\r\\n\', escape=False)\nelif request.function == \'ccache\':\n    response.write(\'\\r\\n<h2>\', escape=False)\n    T("Cache")\n    response.write(\'</h2>\\r\\n<div class="list">\\r\\n\\r\\n  <div class="list-header">\\r\\n    <h3>\', escape=False)\n    T("Statistics")\n    response.write(\'</h3>\\r\\n  </div>\\r\\n\\r\\n  <div class="content">\\r\\n    <h4>\', escape=False)\n    response.write(T("Overview"))\n    response.write(\'</h4>\\r\\n    <p>\', escape=False)\n    response.write(T.M("Number of entries: **%s**", total[\'entries\']))\n    response.write(\'</p>\\r\\n    \', escape=False)\n    if total[\'entries\'] > 0:\n        response.write(\'\\r\\n      <p>\', escape=False)\n        response.write(T.M("Hit Ratio: **%(ratio)s%%** (**%(hits)s** %%{hit(hits)} and **%(misses)s** %%{miss(misses})",\n        dict(ratio=total[\'ratio\'], hits=total[\'hits\'], misses=total[\'misses\'])))\n        response.write(\'\\r\\n     </p>\\r\\n    <p>\\r\\n      \', escape=False)\n        response.write(T("Size of cache:"))\n        response.write(\' \\r\\n      \', escape=False)\n        if object_stats:\n            response.write(\'\\r\\n        \', escape=False)\n            response.write(T.M("**%(items)s** %%{item(items)}, **%(bytes)s** %%{byte(bytes)}", dict(items=total[\'objects\'], bytes=total[\'bytes\'])))\n            response.write(\'\\r\\n        \', escape=False)\n            if total[\'bytes\'] > 524287:\n                response.write(\'\\r\\n          \', escape=False)\n                response.write(T.M("(**%.0d MB**)", total[\'bytes\'] / 1048576))\n                response.write(\'\\r\\n        \', escape=False)\n                pass\n            response.write(\'\\r\\n      \', escape=False)\n        else:\n            response.write(\'\\r\\n        \', escape=False)\n            response.write(T.M("**not available** (requires the Python [[guppy http://pypi.python.org/pypi/guppy/ popup]] library)"))\n            response.write(\'\\r\\n      \', escape=False)\n            pass\n        response.write(\'\\r\\n    </p>\\r\\n    <p>\\r\\n      \', escape=False)\n        response.write(T.M("Cache contains items up to **%(hours)02d** %%{hour(hours)} **%(min)02d** %%{minute(min)} **%(sec)02d** %%{second(sec)} old.",\n        dict(hours=total[\'oldest\'][0], min=total[\'oldest\'][1], sec=total[\'oldest\'][2])))\n        response.write(\'\\r\\n    </p>\\r\\n    \', escape=False)\n        response.write(BUTTON(T(\'Cache Keys\'), _onclick=\'jQuery("#all_keys").toggle();\'))\n        response.write(\'\\r\\n    <div class="hidden" id="all_keys">\\r\\n      \', escape=False)\n        response.write(total[\'keys\'])\n        response.write(\'\\r\\n    </div>\\r\\n    <br />\\r\\n    \', escape=False)\n        pass\n    response.write(\'\\r\\n        \\r\\n    <h4>\', escape=False)\n    response.write(T("RAM"))\n    response.write(\'</h4>\\r\\n    <p>\', escape=False)\n    response.write(T.M("Number of entries: **%s**", ram[\'entries\']))\n    response.write(\'</p>\\r\\n    \', escape=False)\n    if ram[\'entries\'] > 0:\n        response.write(\'\\r\\n    <p>\', escape=False)\n        response.write(T.M("Hit Ratio: **%(ratio)s%%** (**%(hits)s** %{hit(hits)} and **%(misses)s** %%{miss(misses)})",\n        dict( ratio=ram[\'ratio\'], hits=ram[\'hits\'], misses=ram[\'misses\'])))\n        response.write(\'\\r\\n    </p>\\r\\n    <p>\\r\\n      \', escape=False)\n        response.write(T("Size of cache:"))\n        response.write(\'\\r\\n      \', escape=False)\n        if object_stats:\n            response.write(\'\\r\\n        \', escape=False)\n            response.write(T.M("**%(items)s** items, **%(bytes)s** %%{byte(bytes)}", dict(items=ram[\'objects\'], bytes=ram[\'bytes\'])))\n            response.write(\'\\r\\n        \', escape=False)\n            if ram[\'bytes\'] > 524287:\n                response.write(\'\\r\\n          \', escape=False)\n                response.write(T.M("(**%.0d MB**)", ram[\'bytes\'] / 10485576))\n                response.write(\'\\r\\n        \', escape=False)\n                pass\n            response.write(\'\\r\\n      \', escape=False)\n        else:\n            response.write(\'\\r\\n        \', escape=False)\n            response.write(T.M("``**not available**``:red (requires the Python [[guppy http://pypi.python.org/pypi/guppy/ popup]] library)"))\n            response.write(\'\\r\\n      \', escape=False)\n            pass\n        response.write(\'\\r\\n    </p>\\r\\n    <p>\\r\\n      \', escape=False)\n        response.write(T.M("RAM contains items up to **%(hours)02d** %%{hour(hours)} **%(min)02d** %%{minute(min)} **%(sec)02d** %%{second(sec)} old.",\n        dict(hours=ram[\'oldest\'][0], min=ram[\'oldest\'][1], sec=ram[\'oldest\'][2])))\n        response.write(\'\\r\\n    </p>\\r\\n    \', escape=False)\n        response.write(BUTTON(T(\'RAM Cache Keys\'), _onclick=\'jQuery("#ram_keys").toggle();\'))\n        response.write(\'\\r\\n    <div class="hidden" id="ram_keys">\\r\\n      \', escape=False)\n        response.write(ram[\'keys\'])\n        response.write(\'\\r\\n    </div>\\r\\n    <br />\\r\\n    \', escape=False)\n        pass\n    response.write(\'\\r\\n    \\r\\n    <h4>\', escape=False)\n    response.write(T("DISK"))\n    response.write(\'</h4>\\r\\n    <p>\', escape=False)\n    response.write(T.M("Number of entries: **%s**", disk[\'entries\']))\n    response.write(\'</p>\\r\\n    \', escape=False)\n    if disk[\'entries\'] > 0:\n        response.write(\'\\r\\n      <p>\\r\\n      \', escape=False)\n        response.write(T.M("Hit Ratio: **%(ratio)s%%** (**%(hits)s** %%{hit(hits)} and **%(misses)s** %%{miss(misses)})",\n        dict(ratio=disk[\'ratio\'], hits=disk[\'hits\'], misses=disk[\'misses\'])))\n        response.write(\' \\r\\n      </p>\\r\\n      <p>\\r\\n      \', escape=False)\n        response.write(T("Size of cache:"))\n        response.write(\' \\r\\n      \', escape=False)\n        if object_stats:\n            response.write(\'\\r\\n        \', escape=False)\n            response.write(T.M("**%(items)s** %%{item(items)}, **%(bytes)s** %%{byte(bytes)}", dict( items=disk[\'objects\'], bytes=disk[\'bytes\'])))\n            response.write(\'\\r\\n        \', escape=False)\n            if disk[\'bytes\'] > 524287:\n                response.write(\'\\r\\n          \', escape=False)\n                response.write(T.M("(**%.0d MB**)", disk[\'bytes\'] / 1048576))\n                response.write(\'\\r\\n        \', escape=False)\n                pass\n            response.write(\'\\r\\n      \', escape=False)\n        else:\n            response.write(\'\\r\\n        \', escape=False)\n            response.write(T.M("``**not available**``:red (requires the Python [[guppy http://pypi.python.org/pypi/guppy/ popup]] library)"))\n            response.write(\'\\r\\n      \', escape=False)\n            pass\n        response.write(\'\\r\\n      </p>\\r\\n      <p>\\r\\n      \', escape=False)\n        response.write(T.M("DISK contains items up to **%(hours)02d** %%{hour(hours)} **%(min)02d** %%{minute(min)} **%(sec)02d** %%{second(sec)} old.",\n        dict(hours=disk[\'oldest\'][0], min=disk[\'oldest\'][1], sec=disk[\'oldest\'][2])))\n        response.write(\'\\r\\n      </p>\\r\\n      \', escape=False)\n        response.write(BUTTON(T(\'Disk Cache Keys\'), _onclick=\'jQuery("#disk_keys").toggle();\'))\n        response.write(\'\\r\\n      <div class="hidden" id="disk_keys">\\r\\n      \', escape=False)\n        response.write(disk[\'keys\'])\n        response.write(\'\\r\\n      </div>\\r\\n      <br />\\r\\n    \', escape=False)\n        pass\n    response.write(\'\\r\\n  </div>\\r\\n    \\r\\n  <div class="list-header">\\r\\n    <h3>\', escape=False)\n    response.write(T("Manage Cache"))\n    response.write(\'</h3>\\r\\n  </div>\\r\\n  \\r\\n  <div class="content">\\r\\n    <p>\\r\\n      \', escape=False)\n    response.write(form)\n    response.write(\'\\r\\n    </p>\\r\\n  </div>\\r\\n</div>\\r\\n<div class="clear"></div>\\r\\n\', escape=False)\n    pass\nresponse.write(\'\\r\\n\', escape=False)\nresponse.write(\'\\r\\n\\r\\n      \', escape=False)\n#include \'../static/fail.html\'\nresponse.write(\'\\r\\n      <hr>\\r\\n      \\r\\n      \', escape=False)\nresponse.write(\'\\r\\n      <footer>\\r\\n        <p>\', escape=False)\nresponse.write(\'<strong>Copyright 2012 - Ecommerce do Bruno</strong>\', escape=False)\nresponse.write(\'</p>\\r\\n      </footer>\\r\\n      \', escape=False)\nresponse.write(\'\\r\\n    </div> <!-- /container -->\\r\\n  </body>\\r\\n</html>\\r\\n\', escape=False)'
p7
sS'snapshot'
p8
(dp9
S'exception'
p10
(dp11
S'__hash__'
p12
S"<method-wrapper '__hash__' of exceptions.TypeError object>"
p13
sS'__setattr__'
p14
S"<method-wrapper '__setattr__' of exceptions.TypeError object>"
p15
sS'__reduce_ex__'
p16
S'<built-in method __reduce_ex__ of exceptions.TypeError object>'
p17
sS'__getslice__'
p18
S"<method-wrapper '__getslice__' of exceptions.TypeError object>"
p19
sS'__getitem__'
p20
S"<method-wrapper '__getitem__' of exceptions.TypeError object>"
p21
sS'__setstate__'
p22
S'<built-in method __setstate__ of exceptions.TypeError object>'
p23
sS'__reduce__'
p24
S'<built-in method __reduce__ of exceptions.TypeError object>'
p25
sS'__str__'
p26
S"<method-wrapper '__str__' of exceptions.TypeError object>"
p27
sS'__format__'
p28
S'<built-in method __format__ of exceptions.TypeError object>'
p29
sS'__getattribute__'
p30
S"<method-wrapper '__getattribute__' of exceptions.TypeError object>"
p31
sS'__class__'
p32
S"<type 'exceptions.TypeError'>"
p33
sS'__unicode__'
p34
S'<built-in method __unicode__ of exceptions.TypeError object>'
p35
sS'__delattr__'
p36
S"<method-wrapper '__delattr__' of exceptions.TypeError object>"
p37
sS'__subclasshook__'
p38
S'<built-in method __subclasshook__ of type object>'
p39
sS'__repr__'
p40
S"<method-wrapper '__repr__' of exceptions.TypeError object>"
p41
sS'args'
p42
S"('not enough arguments for format string',)"
p43
sS'__dict__'
p44
S'{}'
p45
sS'__sizeof__'
p46
S'<built-in method __sizeof__ of exceptions.TypeError object>'
p47
sS'__doc__'
p48
S"'Inappropriate argument type.'"
p49
sS'__init__'
p50
S"<method-wrapper '__init__' of exceptions.TypeError object>"
p51
sS'__new__'
p52
S'<built-in method __new__ of type object>'
p53
ssS'evalue'
p54
S'not enough arguments for format string'
p55
sS'request'
p56
ccopy_reg
_reconstructor
p57
(cgluon.html
BEAUTIFY
p58
c__builtin__
object
p59
NtRp60
(dp61
S'attributes'
p62
(dp63
sS'components'
p64
(lp65
g57
(cgluon.html
TABLE
p66
g59
NtRp67
(dp68
g62
(dp69
S'level'
p70
I5
ssS'parent'
p71
Nsg64
(lp72
g57
(cgluon.html
TR
p73
g59
NtRp74
(dp75
g62
(dp76
sg71
g67
sg64
(lp77
g57
(cgluon.html
TD
p78
g59
NtRp79
(dp80
g62
(dp81
S'_style'
p82
S'font-weight:bold;vertical-align:top'
p83
ssg71
g74
sg64
(lp84
S'ajax'
p85
asbag57
(g78
g59
NtRp86
(dp87
g62
(dp88
S'_valign'
p89
S'top'
p90
ssg71
g74
sg64
(lp91
S':'
asbag57
(g78
g59
NtRp92
(dp93
g62
(dp94
sg71
g74
sg64
(lp95
g57
(g58
g59
NtRp96
(dp97
g62
(dp98
g70
I5
ssg71
g92
sg64
(lp99
S'False'
p100
asbasbasbag57
(g73
g59
NtRp101
(dp102
g62
(dp103
sg71
g67
sg64
(lp104
g57
(g78
g59
NtRp105
(dp106
g62
(dp107
g82
g83
ssg71
g101
sg64
(lp108
S'application'
p109
asbag57
(g78
g59
NtRp110
(dp111
g62
(dp112
g89
g90
ssg71
g101
sg64
(lp113
S':'
asbag57
(g78
g59
NtRp114
(dp115
g62
(dp116
sg71
g101
sg64
(lp117
g57
(g58
g59
NtRp118
(dp119
g62
(dp120
g70
I5
ssg71
g114
sg64
(lp121
S'ecommerce'
p122
asbasbasbag57
(g73
g59
NtRp123
(dp124
g62
(dp125
sg71
g67
sg64
(lp126
g57
(g78
g59
NtRp127
(dp128
g62
(dp129
g82
g83
ssg71
g123
sg64
(lp130
g42
asbag57
(g78
g59
NtRp131
(dp132
g62
(dp133
g89
g90
ssg71
g123
sg64
(lp134
S':'
asbag57
(g78
g59
NtRp135
(dp136
g62
(dp137
sg71
g123
sg64
(lp138
g57
(g58
g59
NtRp139
(dp140
g62
(dp141
g70
I5
ssg71
g135
sg64
(lp142
g57
(g66
g59
NtRp143
(dp144
g62
(dp145
g70
I4
ssg71
Nsg64
(lp146
sbasbasbasbag57
(g73
g59
NtRp147
(dp148
g62
(dp149
sg71
g67
sg64
(lp150
g57
(g78
g59
NtRp151
(dp152
g62
(dp153
g82
g83
ssg71
g147
sg64
(lp154
S'body'
p155
asbag57
(g78
g59
NtRp156
(dp157
g62
(dp158
g89
g90
ssg71
g147
sg64
(lp159
S':'
asbag57
(g78
g59
NtRp160
(dp161
g62
(dp162
sg71
g147
sg64
(lp163
g57
(g58
g59
NtRp164
(dp165
g62
(dp166
g70
I5
ssg71
g160
sg64
(lp167
S'<cStringIO.StringO object at 0x029ECA00>'
p168
asbasbasbag57
(g73
g59
NtRp169
(dp170
g62
(dp171
sg71
g67
sg64
(lp172
g57
(g78
g59
NtRp173
(dp174
g62
(dp175
g82
g83
ssg71
g169
sg64
(lp176
S'client'
p177
asbag57
(g78
g59
NtRp178
(dp179
g62
(dp180
g89
g90
ssg71
g169
sg64
(lp181
S':'
asbag57
(g78
g59
NtRp182
(dp183
g62
(dp184
sg71
g169
sg64
(lp185
g57
(g58
g59
NtRp186
(dp187
g62
(dp188
g70
I5
ssg71
g182
sg64
(lp189
S'127.0.0.1'
p190
asbasbasbag57
(g73
g59
NtRp191
(dp192
g62
(dp193
sg71
g67
sg64
(lp194
g57
(g78
g59
NtRp195
(dp196
g62
(dp197
g82
g83
ssg71
g191
sg64
(lp198
S'controller'
p199
asbag57
(g78
g59
NtRp200
(dp201
g62
(dp202
g89
g90
ssg71
g191
sg64
(lp203
S':'
asbag57
(g78
g59
NtRp204
(dp205
g62
(dp206
sg71
g191
sg64
(lp207
g57
(g58
g59
NtRp208
(dp209
g62
(dp210
g70
I5
ssg71
g204
sg64
(lp211
S'appadmin'
p212
asbasbasbag57
(g73
g59
NtRp213
(dp214
g62
(dp215
sg71
g67
sg64
(lp216
g57
(g78
g59
NtRp217
(dp218
g62
(dp219
g82
g83
ssg71
g213
sg64
(lp220
S'cookies'
p221
asbag57
(g78
g59
NtRp222
(dp223
g62
(dp224
g89
g90
ssg71
g213
sg64
(lp225
S':'
asbag57
(g78
g59
NtRp226
(dp227
g62
(dp228
sg71
g213
sg64
(lp229
g57
(g58
g59
NtRp230
(dp231
g62
(dp232
g70
I5
ssg71
g226
sg64
(lp233
g57
(g66
g59
NtRp234
(dp235
g62
(dp236
g70
I4
ssg71
Nsg64
(lp237
g57
(g73
g59
NtRp238
(dp239
g62
(dp240
sg71
g234
sg64
(lp241
g57
(g78
g59
NtRp242
(dp243
g62
(dp244
g82
g83
ssg71
g238
sg64
(lp245
S'session_id_admin'
p246
asbag57
(g78
g59
NtRp247
(dp248
g62
(dp249
g89
g90
ssg71
g238
sg64
(lp250
S':'
asbag57
(g78
g59
NtRp251
(dp252
g62
(dp253
sg71
g238
sg64
(lp254
g57
(g58
g59
NtRp255
(dp256
g62
(dp257
g70
I4
ssg71
g251
sg64
(lp258
S'127.0.0.1-b76660bc-c2e2-49e9-9b6d-dce1fea2551e'
p259
ag57
(g66
g59
NtRp260
(dp261
g62
(dp262
g70
I3
ssg71
Nsg64
(lp263
g57
(g73
g59
NtRp264
(dp265
g62
(dp266
sg71
g260
sg64
(lp267
g57
(g78
g59
NtRp268
(dp269
g62
(dp270
g82
g83
ssg71
g264
sg64
(lp271
S'comment'
p272
asbag57
(g78
g59
NtRp273
(dp274
g62
(dp275
g89
g90
ssg71
g264
sg64
(lp276
S':'
asbag57
(g78
g59
NtRp277
(dp278
g62
(dp279
sg71
g264
sg64
(lp280
g57
(g58
g59
NtRp281
(dp282
g62
(dp283
g70
I3
ssg71
g277
sg64
(lp284
S''
asbasbasbag57
(g73
g59
NtRp285
(dp286
g62
(dp287
sg71
g260
sg64
(lp288
g57
(g78
g59
NtRp289
(dp290
g62
(dp291
g82
g83
ssg71
g285
sg64
(lp292
S'domain'
p293
asbag57
(g78
g59
NtRp294
(dp295
g62
(dp296
g89
g90
ssg71
g285
sg64
(lp297
S':'
asbag57
(g78
g59
NtRp298
(dp299
g62
(dp300
sg71
g285
sg64
(lp301
g57
(g58
g59
NtRp302
(dp303
g62
(dp304
g70
I3
ssg71
g298
sg64
(lp305
S''
asbasbasbag57
(g73
g59
NtRp306
(dp307
g62
(dp308
sg71
g260
sg64
(lp309
g57
(g78
g59
NtRp310
(dp311
g62
(dp312
g82
g83
ssg71
g306
sg64
(lp313
S'expires'
p314
asbag57
(g78
g59
NtRp315
(dp316
g62
(dp317
g89
g90
ssg71
g306
sg64
(lp318
S':'
asbag57
(g78
g59
NtRp319
(dp320
g62
(dp321
sg71
g306
sg64
(lp322
g57
(g58
g59
NtRp323
(dp324
g62
(dp325
g70
I3
ssg71
g319
sg64
(lp326
S''
asbasbasbag57
(g73
g59
NtRp327
(dp328
g62
(dp329
sg71
g260
sg64
(lp330
g57
(g78
g59
NtRp331
(dp332
g62
(dp333
g82
g83
ssg71
g327
sg64
(lp334
S'httponly'
p335
asbag57
(g78
g59
NtRp336
(dp337
g62
(dp338
g89
g90
ssg71
g327
sg64
(lp339
S':'
asbag57
(g78
g59
NtRp340
(dp341
g62
(dp342
sg71
g327
sg64
(lp343
g57
(g58
g59
NtRp344
(dp345
g62
(dp346
g70
I3
ssg71
g340
sg64
(lp347
S''
asbasbasbag57
(g73
g59
NtRp348
(dp349
g62
(dp350
sg71
g260
sg64
(lp351
g57
(g78
g59
NtRp352
(dp353
g62
(dp354
g82
g83
ssg71
g348
sg64
(lp355
S'max-age'
p356
asbag57
(g78
g59
NtRp357
(dp358
g62
(dp359
g89
g90
ssg71
g348
sg64
(lp360
S':'
asbag57
(g78
g59
NtRp361
(dp362
g62
(dp363
sg71
g348
sg64
(lp364
g57
(g58
g59
NtRp365
(dp366
g62
(dp367
g70
I3
ssg71
g361
sg64
(lp368
S''
asbasbasbag57
(g73
g59
NtRp369
(dp370
g62
(dp371
sg71
g260
sg64
(lp372
g57
(g78
g59
NtRp373
(dp374
g62
(dp375
g82
g83
ssg71
g369
sg64
(lp376
S'path'
p377
asbag57
(g78
g59
NtRp378
(dp379
g62
(dp380
g89
g90
ssg71
g369
sg64
(lp381
S':'
asbag57
(g78
g59
NtRp382
(dp383
g62
(dp384
sg71
g369
sg64
(lp385
g57
(g58
g59
NtRp386
(dp387
g62
(dp388
g70
I3
ssg71
g382
sg64
(lp389
S''
asbasbasbag57
(g73
g59
NtRp390
(dp391
g62
(dp392
sg71
g260
sg64
(lp393
g57
(g78
g59
NtRp394
(dp395
g62
(dp396
g82
g83
ssg71
g390
sg64
(lp397
S'secure'
p398
asbag57
(g78
g59
NtRp399
(dp400
g62
(dp401
g89
g90
ssg71
g390
sg64
(lp402
S':'
asbag57
(g78
g59
NtRp403
(dp404
g62
(dp405
sg71
g390
sg64
(lp406
g57
(g58
g59
NtRp407
(dp408
g62
(dp409
g70
I3
ssg71
g403
sg64
(lp410
S''
asbasbasbag57
(g73
g59
NtRp411
(dp412
g62
(dp413
sg71
g260
sg64
(lp414
g57
(g78
g59
NtRp415
(dp416
g62
(dp417
g82
g83
ssg71
g411
sg64
(lp418
S'version'
p419
asbag57
(g78
g59
NtRp420
(dp421
g62
(dp422
g89
g90
ssg71
g411
sg64
(lp423
S':'
asbag57
(g78
g59
NtRp424
(dp425
g62
(dp426
sg71
g411
sg64
(lp427
g57
(g58
g59
NtRp428
(dp429
g62
(dp430
g70
I3
ssg71
g424
sg64
(lp431
S''
asbasbasbasbasbasbasbag57
(g73
g59
NtRp432
(dp433
g62
(dp434
sg71
g234
sg64
(lp435
g57
(g78
g59
NtRp436
(dp437
g62
(dp438
g82
g83
ssg71
g432
sg64
(lp439
S'session_id_ecommerce'
p440
asbag57
(g78
g59
NtRp441
(dp442
g62
(dp443
g89
g90
ssg71
g432
sg64
(lp444
S':'
asbag57
(g78
g59
NtRp445
(dp446
g62
(dp447
sg71
g432
sg64
(lp448
g57
(g58
g59
NtRp449
(dp450
g62
(dp451
g70
I4
ssg71
g445
sg64
(lp452
S'127.0.0.1-90082fff-2c2e-4cce-a80d-e4b9f822d574'
p453
ag57
(g66
g59
NtRp454
(dp455
g62
(dp456
g70
I3
ssg71
Nsg64
(lp457
g57
(g73
g59
NtRp458
(dp459
g62
(dp460
sg71
g454
sg64
(lp461
g57
(g78
g59
NtRp462
(dp463
g62
(dp464
g82
g83
ssg71
g458
sg64
(lp465
g272
asbag57
(g78
g59
NtRp466
(dp467
g62
(dp468
g89
g90
ssg71
g458
sg64
(lp469
S':'
asbag57
(g78
g59
NtRp470
(dp471
g62
(dp472
sg71
g458
sg64
(lp473
g57
(g58
g59
NtRp474
(dp475
g62
(dp476
g70
I3
ssg71
g470
sg64
(lp477
S''
asbasbasbag57
(g73
g59
NtRp478
(dp479
g62
(dp480
sg71
g454
sg64
(lp481
g57
(g78
g59
NtRp482
(dp483
g62
(dp484
g82
g83
ssg71
g478
sg64
(lp485
g293
asbag57
(g78
g59
NtRp486
(dp487
g62
(dp488
g89
g90
ssg71
g478
sg64
(lp489
S':'
asbag57
(g78
g59
NtRp490
(dp491
g62
(dp492
sg71
g478
sg64
(lp493
g57
(g58
g59
NtRp494
(dp495
g62
(dp496
g70
I3
ssg71
g490
sg64
(lp497
S''
asbasbasbag57
(g73
g59
NtRp498
(dp499
g62
(dp500
sg71
g454
sg64
(lp501
g57
(g78
g59
NtRp502
(dp503
g62
(dp504
g82
g83
ssg71
g498
sg64
(lp505
g314
asbag57
(g78
g59
NtRp506
(dp507
g62
(dp508
g89
g90
ssg71
g498
sg64
(lp509
S':'
asbag57
(g78
g59
NtRp510
(dp511
g62
(dp512
sg71
g498
sg64
(lp513
g57
(g58
g59
NtRp514
(dp515
g62
(dp516
g70
I3
ssg71
g510
sg64
(lp517
S''
asbasbasbag57
(g73
g59
NtRp518
(dp519
g62
(dp520
sg71
g454
sg64
(lp521
g57
(g78
g59
NtRp522
(dp523
g62
(dp524
g82
g83
ssg71
g518
sg64
(lp525
g335
asbag57
(g78
g59
NtRp526
(dp527
g62
(dp528
g89
g90
ssg71
g518
sg64
(lp529
S':'
asbag57
(g78
g59
NtRp530
(dp531
g62
(dp532
sg71
g518
sg64
(lp533
g57
(g58
g59
NtRp534
(dp535
g62
(dp536
g70
I3
ssg71
g530
sg64
(lp537
S''
asbasbasbag57
(g73
g59
NtRp538
(dp539
g62
(dp540
sg71
g454
sg64
(lp541
g57
(g78
g59
NtRp542
(dp543
g62
(dp544
g82
g83
ssg71
g538
sg64
(lp545
g356
asbag57
(g78
g59
NtRp546
(dp547
g62
(dp548
g89
g90
ssg71
g538
sg64
(lp549
S':'
asbag57
(g78
g59
NtRp550
(dp551
g62
(dp552
sg71
g538
sg64
(lp553
g57
(g58
g59
NtRp554
(dp555
g62
(dp556
g70
I3
ssg71
g550
sg64
(lp557
S''
asbasbasbag57
(g73
g59
NtRp558
(dp559
g62
(dp560
sg71
g454
sg64
(lp561
g57
(g78
g59
NtRp562
(dp563
g62
(dp564
g82
g83
ssg71
g558
sg64
(lp565
g377
asbag57
(g78
g59
NtRp566
(dp567
g62
(dp568
g89
g90
ssg71
g558
sg64
(lp569
S':'
asbag57
(g78
g59
NtRp570
(dp571
g62
(dp572
sg71
g558
sg64
(lp573
g57
(g58
g59
NtRp574
(dp575
g62
(dp576
g70
I3
ssg71
g570
sg64
(lp577
S''
asbasbasbag57
(g73
g59
NtRp578
(dp579
g62
(dp580
sg71
g454
sg64
(lp581
g57
(g78
g59
NtRp582
(dp583
g62
(dp584
g82
g83
ssg71
g578
sg64
(lp585
g398
asbag57
(g78
g59
NtRp586
(dp587
g62
(dp588
g89
g90
ssg71
g578
sg64
(lp589
S':'
asbag57
(g78
g59
NtRp590
(dp591
g62
(dp592
sg71
g578
sg64
(lp593
g57
(g58
g59
NtRp594
(dp595
g62
(dp596
g70
I3
ssg71
g590
sg64
(lp597
S''
asbasbasbag57
(g73
g59
NtRp598
(dp599
g62
(dp600
sg71
g454
sg64
(lp601
g57
(g78
g59
NtRp602
(dp603
g62
(dp604
g82
g83
ssg71
g598
sg64
(lp605
g419
asbag57
(g78
g59
NtRp606
(dp607
g62
(dp608
g89
g90
ssg71
g598
sg64
(lp609
S':'
asbag57
(g78
g59
NtRp610
(dp611
g62
(dp612
sg71
g598
sg64
(lp613
g57
(g58
g59
NtRp614
(dp615
g62
(dp616
g70
I3
ssg71
g610
sg64
(lp617
S''
asbasbasbasbasbasbasbag57
(g73
g59
NtRp618
(dp619
g62
(dp620
sg71
g234
sg64
(lp621
g57
(g78
g59
NtRp622
(dp623
g62
(dp624
g82
g83
ssg71
g618
sg64
(lp625
S'session_id_init'
p626
asbag57
(g78
g59
NtRp627
(dp628
g62
(dp629
g89
g90
ssg71
g618
sg64
(lp630
S':'
asbag57
(g78
g59
NtRp631
(dp632
g62
(dp633
sg71
g618
sg64
(lp634
g57
(g58
g59
NtRp635
(dp636
g62
(dp637
g70
I4
ssg71
g631
sg64
(lp638
S'127.0.0.1-58dc755d-7c02-4ffb-8f0c-79d0fc118030'
p639
ag57
(g66
g59
NtRp640
(dp641
g62
(dp642
g70
I3
ssg71
Nsg64
(lp643
g57
(g73
g59
NtRp644
(dp645
g62
(dp646
sg71
g640
sg64
(lp647
g57
(g78
g59
NtRp648
(dp649
g62
(dp650
g82
g83
ssg71
g644
sg64
(lp651
g272
asbag57
(g78
g59
NtRp652
(dp653
g62
(dp654
g89
g90
ssg71
g644
sg64
(lp655
S':'
asbag57
(g78
g59
NtRp656
(dp657
g62
(dp658
sg71
g644
sg64
(lp659
g57
(g58
g59
NtRp660
(dp661
g62
(dp662
g70
I3
ssg71
g656
sg64
(lp663
S''
asbasbasbag57
(g73
g59
NtRp664
(dp665
g62
(dp666
sg71
g640
sg64
(lp667
g57
(g78
g59
NtRp668
(dp669
g62
(dp670
g82
g83
ssg71
g664
sg64
(lp671
g293
asbag57
(g78
g59
NtRp672
(dp673
g62
(dp674
g89
g90
ssg71
g664
sg64
(lp675
S':'
asbag57
(g78
g59
NtRp676
(dp677
g62
(dp678
sg71
g664
sg64
(lp679
g57
(g58
g59
NtRp680
(dp681
g62
(dp682
g70
I3
ssg71
g676
sg64
(lp683
S''
asbasbasbag57
(g73
g59
NtRp684
(dp685
g62
(dp686
sg71
g640
sg64
(lp687
g57
(g78
g59
NtRp688
(dp689
g62
(dp690
g82
g83
ssg71
g684
sg64
(lp691
g314
asbag57
(g78
g59
NtRp692
(dp693
g62
(dp694
g89
g90
ssg71
g684
sg64
(lp695
S':'
asbag57
(g78
g59
NtRp696
(dp697
g62
(dp698
sg71
g684
sg64
(lp699
g57
(g58
g59
NtRp700
(dp701
g62
(dp702
g70
I3
ssg71
g696
sg64
(lp703
S''
asbasbasbag57
(g73
g59
NtRp704
(dp705
g62
(dp706
sg71
g640
sg64
(lp707
g57
(g78
g59
NtRp708
(dp709
g62
(dp710
g82
g83
ssg71
g704
sg64
(lp711
g335
asbag57
(g78
g59
NtRp712
(dp713
g62
(dp714
g89
g90
ssg71
g704
sg64
(lp715
S':'
asbag57
(g78
g59
NtRp716
(dp717
g62
(dp718
sg71
g704
sg64
(lp719
g57
(g58
g59
NtRp720
(dp721
g62
(dp722
g70
I3
ssg71
g716
sg64
(lp723
S''
asbasbasbag57
(g73
g59
NtRp724
(dp725
g62
(dp726
sg71
g640
sg64
(lp727
g57
(g78
g59
NtRp728
(dp729
g62
(dp730
g82
g83
ssg71
g724
sg64
(lp731
g356
asbag57
(g78
g59
NtRp732
(dp733
g62
(dp734
g89
g90
ssg71
g724
sg64
(lp735
S':'
asbag57
(g78
g59
NtRp736
(dp737
g62
(dp738
sg71
g724
sg64
(lp739
g57
(g58
g59
NtRp740
(dp741
g62
(dp742
g70
I3
ssg71
g736
sg64
(lp743
S''
asbasbasbag57
(g73
g59
NtRp744
(dp745
g62
(dp746
sg71
g640
sg64
(lp747
g57
(g78
g59
NtRp748
(dp749
g62
(dp750
g82
g83
ssg71
g744
sg64
(lp751
g377
asbag57
(g78
g59
NtRp752
(dp753
g62
(dp754
g89
g90
ssg71
g744
sg64
(lp755
S':'
asbag57
(g78
g59
NtRp756
(dp757
g62
(dp758
sg71
g744
sg64
(lp759
g57
(g58
g59
NtRp760
(dp761
g62
(dp762
g70
I3
ssg71
g756
sg64
(lp763
S''
asbasbasbag57
(g73
g59
NtRp764
(dp765
g62
(dp766
sg71
g640
sg64
(lp767
g57
(g78
g59
NtRp768
(dp769
g62
(dp770
g82
g83
ssg71
g764
sg64
(lp771
g398
asbag57
(g78
g59
NtRp772
(dp773
g62
(dp774
g89
g90
ssg71
g764
sg64
(lp775
S':'
asbag57
(g78
g59
NtRp776
(dp777
g62
(dp778
sg71
g764
sg64
(lp779
g57
(g58
g59
NtRp780
(dp781
g62
(dp782
g70
I3
ssg71
g776
sg64
(lp783
S''
asbasbasbag57
(g73
g59
NtRp784
(dp785
g62
(dp786
sg71
g640
sg64
(lp787
g57
(g78
g59
NtRp788
(dp789
g62
(dp790
g82
g83
ssg71
g784
sg64
(lp791
g419
asbag57
(g78
g59
NtRp792
(dp793
g62
(dp794
g89
g90
ssg71
g784
sg64
(lp795
S':'
asbag57
(g78
g59
NtRp796
(dp797
g62
(dp798
sg71
g784
sg64
(lp799
g57
(g58
g59
NtRp800
(dp801
g62
(dp802
g70
I3
ssg71
g796
sg64
(lp803
S''
asbasbasbasbasbasbasbag57
(g73
g59
NtRp804
(dp805
g62
(dp806
sg71
g234
sg64
(lp807
g57
(g78
g59
NtRp808
(dp809
g62
(dp810
g82
g83
ssg71
g804
sg64
(lp811
S'session_id_welcome'
p812
asbag57
(g78
g59
NtRp813
(dp814
g62
(dp815
g89
g90
ssg71
g804
sg64
(lp816
S':'
asbag57
(g78
g59
NtRp817
(dp818
g62
(dp819
sg71
g804
sg64
(lp820
g57
(g58
g59
NtRp821
(dp822
g62
(dp823
g70
I4
ssg71
g817
sg64
(lp824
S'127.0.0.1-cc92338d-b854-4e3a-8523-db9091df4240'
p825
ag57
(g66
g59
NtRp826
(dp827
g62
(dp828
g70
I3
ssg71
Nsg64
(lp829
g57
(g73
g59
NtRp830
(dp831
g62
(dp832
sg71
g826
sg64
(lp833
g57
(g78
g59
NtRp834
(dp835
g62
(dp836
g82
g83
ssg71
g830
sg64
(lp837
g272
asbag57
(g78
g59
NtRp838
(dp839
g62
(dp840
g89
g90
ssg71
g830
sg64
(lp841
S':'
asbag57
(g78
g59
NtRp842
(dp843
g62
(dp844
sg71
g830
sg64
(lp845
g57
(g58
g59
NtRp846
(dp847
g62
(dp848
g70
I3
ssg71
g842
sg64
(lp849
S''
asbasbasbag57
(g73
g59
NtRp850
(dp851
g62
(dp852
sg71
g826
sg64
(lp853
g57
(g78
g59
NtRp854
(dp855
g62
(dp856
g82
g83
ssg71
g850
sg64
(lp857
g293
asbag57
(g78
g59
NtRp858
(dp859
g62
(dp860
g89
g90
ssg71
g850
sg64
(lp861
S':'
asbag57
(g78
g59
NtRp862
(dp863
g62
(dp864
sg71
g850
sg64
(lp865
g57
(g58
g59
NtRp866
(dp867
g62
(dp868
g70
I3
ssg71
g862
sg64
(lp869
S''
asbasbasbag57
(g73
g59
NtRp870
(dp871
g62
(dp872
sg71
g826
sg64
(lp873
g57
(g78
g59
NtRp874
(dp875
g62
(dp876
g82
g83
ssg71
g870
sg64
(lp877
g314
asbag57
(g78
g59
NtRp878
(dp879
g62
(dp880
g89
g90
ssg71
g870
sg64
(lp881
S':'
asbag57
(g78
g59
NtRp882
(dp883
g62
(dp884
sg71
g870
sg64
(lp885
g57
(g58
g59
NtRp886
(dp887
g62
(dp888
g70
I3
ssg71
g882
sg64
(lp889
S''
asbasbasbag57
(g73
g59
NtRp890
(dp891
g62
(dp892
sg71
g826
sg64
(lp893
g57
(g78
g59
NtRp894
(dp895
g62
(dp896
g82
g83
ssg71
g890
sg64
(lp897
g335
asbag57
(g78
g59
NtRp898
(dp899
g62
(dp900
g89
g90
ssg71
g890
sg64
(lp901
S':'
asbag57
(g78
g59
NtRp902
(dp903
g62
(dp904
sg71
g890
sg64
(lp905
g57
(g58
g59
NtRp906
(dp907
g62
(dp908
g70
I3
ssg71
g902
sg64
(lp909
S''
asbasbasbag57
(g73
g59
NtRp910
(dp911
g62
(dp912
sg71
g826
sg64
(lp913
g57
(g78
g59
NtRp914
(dp915
g62
(dp916
g82
g83
ssg71
g910
sg64
(lp917
g356
asbag57
(g78
g59
NtRp918
(dp919
g62
(dp920
g89
g90
ssg71
g910
sg64
(lp921
S':'
asbag57
(g78
g59
NtRp922
(dp923
g62
(dp924
sg71
g910
sg64
(lp925
g57
(g58
g59
NtRp926
(dp927
g62
(dp928
g70
I3
ssg71
g922
sg64
(lp929
S''
asbasbasbag57
(g73
g59
NtRp930
(dp931
g62
(dp932
sg71
g826
sg64
(lp933
g57
(g78
g59
NtRp934
(dp935
g62
(dp936
g82
g83
ssg71
g930
sg64
(lp937
g377
asbag57
(g78
g59
NtRp938
(dp939
g62
(dp940
g89
g90
ssg71
g930
sg64
(lp941
S':'
asbag57
(g78
g59
NtRp942
(dp943
g62
(dp944
sg71
g930
sg64
(lp945
g57
(g58
g59
NtRp946
(dp947
g62
(dp948
g70
I3
ssg71
g942
sg64
(lp949
S''
asbasbasbag57
(g73
g59
NtRp950
(dp951
g62
(dp952
sg71
g826
sg64
(lp953
g57
(g78
g59
NtRp954
(dp955
g62
(dp956
g82
g83
ssg71
g950
sg64
(lp957
g398
asbag57
(g78
g59
NtRp958
(dp959
g62
(dp960
g89
g90
ssg71
g950
sg64
(lp961
S':'
asbag57
(g78
g59
NtRp962
(dp963
g62
(dp964
sg71
g950
sg64
(lp965
g57
(g58
g59
NtRp966
(dp967
g62
(dp968
g70
I3
ssg71
g962
sg64
(lp969
S''
asbasbasbag57
(g73
g59
NtRp970
(dp971
g62
(dp972
sg71
g826
sg64
(lp973
g57
(g78
g59
NtRp974
(dp975
g62
(dp976
g82
g83
ssg71
g970
sg64
(lp977
g419
asbag57
(g78
g59
NtRp978
(dp979
g62
(dp980
g89
g90
ssg71
g970
sg64
(lp981
S':'
asbag57
(g78
g59
NtRp982
(dp983
g62
(dp984
sg71
g970
sg64
(lp985
g57
(g58
g59
NtRp986
(dp987
g62
(dp988
g70
I3
ssg71
g982
sg64
(lp989
S''
asbasbasbasbasbasbasbasbasbasbasbag57
(g73
g59
NtRp990
(dp991
g62
(dp992
sg71
g67
sg64
(lp993
g57
(g78
g59
NtRp994
(dp995
g62
(dp996
g82
g83
ssg71
g990
sg64
(lp997
S'env'
p998
asbag57
(g78
g59
NtRp999
(dp1000
g62
(dp1001
g89
g90
ssg71
g990
sg64
(lp1002
S':'
asbag57
(g78
g59
NtRp1003
(dp1004
g62
(dp1005
sg71
g990
sg64
(lp1006
g57
(g58
g59
NtRp1007
(dp1008
g62
(dp1009
g70
I5
ssg71
g1003
sg64
(lp1010
g57
(g66
g59
NtRp1011
(dp1012
g62
(dp1013
g70
I4
ssg71
Nsg64
(lp1014
g57
(g73
g59
NtRp1015
(dp1016
g62
(dp1017
sg71
g1011
sg64
(lp1018
g57
(g78
g59
NtRp1019
(dp1020
g62
(dp1021
g82
g83
ssg71
g1015
sg64
(lp1022
S'app_folders'
p1023
asbag57
(g78
g59
NtRp1024
(dp1025
g62
(dp1026
g89
g90
ssg71
g1015
sg64
(lp1027
S':'
asbag57
(g78
g59
NtRp1028
(dp1029
g62
(dp1030
sg71
g1015
sg64
(lp1031
g57
(g58
g59
NtRp1032
(dp1033
g62
(dp1034
g70
I4
ssg71
g1028
sg64
(lp1035
S"set(['c:\\\\Users\\\\rochacbruno\\\\jul12\\\\cursojulho12\\\\web2py\\\\applications\\\\ecommerce\\\\', 'c:\\\\Users\\\\rochacbruno\\\\jul12\\\\cursojulho12\\\\web2py\\\\applications\\\\init\\\\', 'c:\\\\Users\\\\rochacbruno\\\\jul12\\\\cursojulho12\\\\web2py\\\\applications\\\\admin\\\\'])"
p1036
asbasbasbag57
(g73
g59
NtRp1037
(dp1038
g62
(dp1039
sg71
g1011
sg64
(lp1040
g57
(g78
g59
NtRp1041
(dp1042
g62
(dp1043
g82
g83
ssg71
g1037
sg64
(lp1044
S'applications_parent'
p1045
asbag57
(g78
g59
NtRp1046
(dp1047
g62
(dp1048
g89
g90
ssg71
g1037
sg64
(lp1049
S':'
asbag57
(g78
g59
NtRp1050
(dp1051
g62
(dp1052
sg71
g1037
sg64
(lp1053
g57
(g58
g59
NtRp1054
(dp1055
g62
(dp1056
g70
I4
ssg71
g1050
sg64
(lp1057
S'c:\\Users\\rochacbruno\\jul12\\cursojulho12\\web2py'
p1058
asbasbasbag57
(g73
g59
NtRp1059
(dp1060
g62
(dp1061
sg71
g1011
sg64
(lp1062
g57
(g78
g59
NtRp1063
(dp1064
g62
(dp1065
g82
g83
ssg71
g1059
sg64
(lp1066
S'cmd_args'
p1067
asbag57
(g78
g59
NtRp1068
(dp1069
g62
(dp1070
g89
g90
ssg71
g1059
sg64
(lp1071
S':'
asbag57
(g78
g59
NtRp1072
(dp1073
g62
(dp1074
sg71
g1059
sg64
(lp1075
g57
(g58
g59
NtRp1076
(dp1077
g62
(dp1078
g70
I4
ssg71
g1072
sg64
(lp1079
g57
(g66
g59
NtRp1080
(dp1081
g62
(dp1082
g70
I3
ssg71
Nsg64
(lp1083
sbasbasbasbag57
(g73
g59
NtRp1084
(dp1085
g62
(dp1086
sg71
g1011
sg64
(lp1087
g57
(g78
g59
NtRp1088
(dp1089
g62
(dp1090
g82
g83
ssg71
g1084
sg64
(lp1091
S'cmd_options'
p1092
asbag57
(g78
g59
NtRp1093
(dp1094
g62
(dp1095
g89
g90
ssg71
g1084
sg64
(lp1096
S':'
asbag57
(g78
g59
NtRp1097
(dp1098
g62
(dp1099
sg71
g1084
sg64
(lp1100
g57
(g58
g59
NtRp1101
(dp1102
g62
(dp1103
g70
I4
ssg71
g1097
sg64
(lp1104
S"<Values at 0x25f78c8: {'verbose': False, 'ip': '127.0.0.1', 'with_scheduler': False, 'ips': ['192.168.1.100'], 'shutdown_timeout': 5, 'taskbar': False, 'port': 8000, 'maxthreads': None, 'softcron': False, 'server_name': 'rochacbruno-HP', 'bpython': False, 'nogui': False, 'nocron': True, 'extcron': False, 'run_system_tests': False, 'test': None, 'folder': 'c:\\\\Users\\\\rochacbruno\\\\jul12\\\\cursojulho12\\\\web2py', 'config': '', 'import_models': False, 'winservice': '', 'shell': None, 'run': '', 'log_filename': 'httpserver.log', 'debuglevel': 30, 'args': [''], 'socket_timeout': 5, 'ssl_ca_certificate': None, 'scheduler': None, 'profiler_filename': None, 'ssl_private_key': '', 'password': '1234', 'request_queue_size': 5, 'ssl_certificate': '', 'cronjob': False, 'numthreads': None, 'quiet': False, 'interfaces': None, 'minthreads': None, 'timeout': 10, 'plain': False, 'nobanner': False, 'pid_filename': 'httpserver.pid'}>"
p1105
asbasbasbag57
(g73
g59
NtRp1106
(dp1107
g62
(dp1108
sg71
g1011
sg64
(lp1109
g57
(g78
g59
NtRp1110
(dp1111
g62
(dp1112
g82
g83
ssg71
g1106
sg64
(lp1113
S'db_sessions'
p1114
asbag57
(g78
g59
NtRp1115
(dp1116
g62
(dp1117
g89
g90
ssg71
g1106
sg64
(lp1118
S':'
asbag57
(g78
g59
NtRp1119
(dp1120
g62
(dp1121
sg71
g1106
sg64
(lp1122
g57
(g58
g59
NtRp1123
(dp1124
g62
(dp1125
g70
I4
ssg71
g1119
sg64
(lp1126
S'set([])'
p1127
asbasbasbag57
(g73
g59
NtRp1128
(dp1129
g62
(dp1130
sg71
g1011
sg64
(lp1131
g57
(g78
g59
NtRp1132
(dp1133
g62
(dp1134
g82
g83
ssg71
g1128
sg64
(lp1135
S'debugging'
p1136
asbag57
(g78
g59
NtRp1137
(dp1138
g62
(dp1139
g89
g90
ssg71
g1128
sg64
(lp1140
S':'
asbag57
(g78
g59
NtRp1141
(dp1142
g62
(dp1143
sg71
g1128
sg64
(lp1144
g57
(g58
g59
NtRp1145
(dp1146
g62
(dp1147
g70
I4
ssg71
g1141
sg64
(lp1148
g100
asbasbasbag57
(g73
g59
NtRp1149
(dp1150
g62
(dp1151
sg71
g1011
sg64
(lp1152
g57
(g78
g59
NtRp1153
(dp1154
g62
(dp1155
g82
g83
ssg71
g1149
sg64
(lp1156
S'gluon_parent'
p1157
asbag57
(g78
g59
NtRp1158
(dp1159
g62
(dp1160
g89
g90
ssg71
g1149
sg64
(lp1161
S':'
asbag57
(g78
g59
NtRp1162
(dp1163
g62
(dp1164
sg71
g1149
sg64
(lp1165
g57
(g58
g59
NtRp1166
(dp1167
g62
(dp1168
g70
I4
ssg71
g1162
sg64
(lp1169
S'c:\\Users\\rochacbruno\\jul12\\cursojulho12\\web2py'
p1170
asbasbasbag57
(g73
g59
NtRp1171
(dp1172
g62
(dp1173
sg71
g1011
sg64
(lp1174
g57
(g78
g59
NtRp1175
(dp1176
g62
(dp1177
g82
g83
ssg71
g1171
sg64
(lp1178
S'http_accept'
p1179
asbag57
(g78
g59
NtRp1180
(dp1181
g62
(dp1182
g89
g90
ssg71
g1171
sg64
(lp1183
S':'
asbag57
(g78
g59
NtRp1184
(dp1185
g62
(dp1186
sg71
g1171
sg64
(lp1187
g57
(g58
g59
NtRp1188
(dp1189
g62
(dp1190
g70
I4
ssg71
g1184
sg64
(lp1191
S'text/html,application/xhtml+xml,application/xml;q=0.9,*/*;q=0.8'
p1192
asbasbasbag57
(g73
g59
NtRp1193
(dp1194
g62
(dp1195
sg71
g1011
sg64
(lp1196
g57
(g78
g59
NtRp1197
(dp1198
g62
(dp1199
g82
g83
ssg71
g1193
sg64
(lp1200
S'http_accept_encoding'
p1201
asbag57
(g78
g59
NtRp1202
(dp1203
g62
(dp1204
g89
g90
ssg71
g1193
sg64
(lp1205
S':'
asbag57
(g78
g59
NtRp1206
(dp1207
g62
(dp1208
sg71
g1193
sg64
(lp1209
g57
(g58
g59
NtRp1210
(dp1211
g62
(dp1212
g70
I4
ssg71
g1206
sg64
(lp1213
S'gzip, deflate'
p1214
asbasbasbag57
(g73
g59
NtRp1215
(dp1216
g62
(dp1217
sg71
g1011
sg64
(lp1218
g57
(g78
g59
NtRp1219
(dp1220
g62
(dp1221
g82
g83
ssg71
g1215
sg64
(lp1222
S'http_accept_language'
p1223
asbag57
(g78
g59
NtRp1224
(dp1225
g62
(dp1226
g89
g90
ssg71
g1215
sg64
(lp1227
S':'
asbag57
(g78
g59
NtRp1228
(dp1229
g62
(dp1230
sg71
g1215
sg64
(lp1231
g57
(g58
g59
NtRp1232
(dp1233
g62
(dp1234
g70
I4
ssg71
g1228
sg64
(lp1235
S'pt-br,en;q=0.8,pt;q=0.5,en-us;q=0.3'
p1236
asbasbasbag57
(g73
g59
NtRp1237
(dp1238
g62
(dp1239
sg71
g1011
sg64
(lp1240
g57
(g78
g59
NtRp1241
(dp1242
g62
(dp1243
g82
g83
ssg71
g1237
sg64
(lp1244
S'http_cache_control'
p1245
asbag57
(g78
g59
NtRp1246
(dp1247
g62
(dp1248
g89
g90
ssg71
g1237
sg64
(lp1249
S':'
asbag57
(g78
g59
NtRp1250
(dp1251
g62
(dp1252
sg71
g1237
sg64
(lp1253
g57
(g58
g59
NtRp1254
(dp1255
g62
(dp1256
g70
I4
ssg71
g1250
sg64
(lp1257
S'max-age=0'
p1258
asbasbasbag57
(g73
g59
NtRp1259
(dp1260
g62
(dp1261
sg71
g1011
sg64
(lp1262
g57
(g78
g59
NtRp1263
(dp1264
g62
(dp1265
g82
g83
ssg71
g1259
sg64
(lp1266
S'http_connection'
p1267
asbag57
(g78
g59
NtRp1268
(dp1269
g62
(dp1270
g89
g90
ssg71
g1259
sg64
(lp1271
S':'
asbag57
(g78
g59
NtRp1272
(dp1273
g62
(dp1274
sg71
g1259
sg64
(lp1275
g57
(g58
g59
NtRp1276
(dp1277
g62
(dp1278
g70
I4
ssg71
g1272
sg64
(lp1279
S'keep-alive'
p1280
asbasbasbag57
(g73
g59
NtRp1281
(dp1282
g62
(dp1283
sg71
g1011
sg64
(lp1284
g57
(g78
g59
NtRp1285
(dp1286
g62
(dp1287
g82
g83
ssg71
g1281
sg64
(lp1288
S'http_cookie'
p1289
asbag57
(g78
g59
NtRp1290
(dp1291
g62
(dp1292
g89
g90
ssg71
g1281
sg64
(lp1293
S':'
asbag57
(g78
g59
NtRp1294
(dp1295
g62
(dp1296
sg71
g1281
sg64
(lp1297
g57
(g58
g59
NtRp1298
(dp1299
g62
(dp1300
g70
I4
ssg71
g1294
sg64
(lp1301
S'session_id_ecommerce=127.0.0.1-90082fff-2c2e-4cce-a80d-e4b9f822d574; session_id_admin=127.0.0.1-b76660bc-c2e2-49e9-9b6d-dce1fea2551e; session_id_welcome=127.0.0.1-cc92338d-b854-4e3a-8523-db9091df4240; session_id_init=127.0.0.1-58dc755d-7c02-4ffb-8f0c-79d0fc118030'
p1302
asbasbasbag57
(g73
g59
NtRp1303
(dp1304
g62
(dp1305
sg71
g1011
sg64
(lp1306
g57
(g78
g59
NtRp1307
(dp1308
g62
(dp1309
g82
g83
ssg71
g1303
sg64
(lp1310
S'http_host'
p1311
asbag57
(g78
g59
NtRp1312
(dp1313
g62
(dp1314
g89
g90
ssg71
g1303
sg64
(lp1315
S':'
asbag57
(g78
g59
NtRp1316
(dp1317
g62
(dp1318
sg71
g1303
sg64
(lp1319
g57
(g58
g59
NtRp1320
(dp1321
g62
(dp1322
g70
I4
ssg71
g1316
sg64
(lp1323
S'localhost:8000'
p1324
asbasbasbag57
(g73
g59
NtRp1325
(dp1326
g62
(dp1327
sg71
g1011
sg64
(lp1328
g57
(g78
g59
NtRp1329
(dp1330
g62
(dp1331
g82
g83
ssg71
g1325
sg64
(lp1332
S'http_user_agent'
p1333
asbag57
(g78
g59
NtRp1334
(dp1335
g62
(dp1336
g89
g90
ssg71
g1325
sg64
(lp1337
S':'
asbag57
(g78
g59
NtRp1338
(dp1339
g62
(dp1340
sg71
g1325
sg64
(lp1341
g57
(g58
g59
NtRp1342
(dp1343
g62
(dp1344
g70
I4
ssg71
g1338
sg64
(lp1345
S'Mozilla/5.0 (Windows NT 6.1; rv:14.0) Gecko/20100101 Firefox/14.0.1'
p1346
asbasbasbag57
(g73
g59
NtRp1347
(dp1348
g62
(dp1349
sg71
g1011
sg64
(lp1350
g57
(g78
g59
NtRp1351
(dp1352
g62
(dp1353
g82
g83
ssg71
g1347
sg64
(lp1354
S'is_jython'
p1355
asbag57
(g78
g59
NtRp1356
(dp1357
g62
(dp1358
g89
g90
ssg71
g1347
sg64
(lp1359
S':'
asbag57
(g78
g59
NtRp1360
(dp1361
g62
(dp1362
sg71
g1347
sg64
(lp1363
g57
(g58
g59
NtRp1364
(dp1365
g62
(dp1366
g70
I4
ssg71
g1360
sg64
(lp1367
g100
asbasbasbag57
(g73
g59
NtRp1368
(dp1369
g62
(dp1370
sg71
g1011
sg64
(lp1371
g57
(g78
g59
NtRp1372
(dp1373
g62
(dp1374
g82
g83
ssg71
g1368
sg64
(lp1375
S'is_pypy'
p1376
asbag57
(g78
g59
NtRp1377
(dp1378
g62
(dp1379
g89
g90
ssg71
g1368
sg64
(lp1380
S':'
asbag57
(g78
g59
NtRp1381
(dp1382
g62
(dp1383
sg71
g1368
sg64
(lp1384
g57
(g58
g59
NtRp1385
(dp1386
g62
(dp1387
g70
I4
ssg71
g1381
sg64
(lp1388
g100
asbasbasbag57
(g73
g59
NtRp1389
(dp1390
g62
(dp1391
sg71
g1011
sg64
(lp1392
g57
(g78
g59
NtRp1393
(dp1394
g62
(dp1395
g82
g83
ssg71
g1389
sg64
(lp1396
S'path_info'
p1397
asbag57
(g78
g59
NtRp1398
(dp1399
g62
(dp1400
g89
g90
ssg71
g1389
sg64
(lp1401
S':'
asbag57
(g78
g59
NtRp1402
(dp1403
g62
(dp1404
sg71
g1389
sg64
(lp1405
g57
(g58
g59
NtRp1406
(dp1407
g62
(dp1408
g70
I4
ssg71
g1402
sg64
(lp1409
S'/ecommerce/appadmin/ccache'
p1410
asbasbasbag57
(g73
g59
NtRp1411
(dp1412
g62
(dp1413
sg71
g1011
sg64
(lp1414
g57
(g78
g59
NtRp1415
(dp1416
g62
(dp1417
g82
g83
ssg71
g1411
sg64
(lp1418
S'query_string'
p1419
asbag57
(g78
g59
NtRp1420
(dp1421
g62
(dp1422
g89
g90
ssg71
g1411
sg64
(lp1423
S':'
asbag57
(g78
g59
NtRp1424
(dp1425
g62
(dp1426
sg71
g1411
sg64
(lp1427
g57
(g58
g59
NtRp1428
(dp1429
g62
(dp1430
g70
I4
ssg71
g1424
sg64
(lp1431
S''
asbasbasbag57
(g73
g59
NtRp1432
(dp1433
g62
(dp1434
sg71
g1011
sg64
(lp1435
g57
(g78
g59
NtRp1436
(dp1437
g62
(dp1438
g82
g83
ssg71
g1432
sg64
(lp1439
S'remote_addr'
p1440
asbag57
(g78
g59
NtRp1441
(dp1442
g62
(dp1443
g89
g90
ssg71
g1432
sg64
(lp1444
S':'
asbag57
(g78
g59
NtRp1445
(dp1446
g62
(dp1447
sg71
g1432
sg64
(lp1448
g57
(g58
g59
NtRp1449
(dp1450
g62
(dp1451
g70
I4
ssg71
g1445
sg64
(lp1452
g190
asbasbasbag57
(g73
g59
NtRp1453
(dp1454
g62
(dp1455
sg71
g1011
sg64
(lp1456
g57
(g78
g59
NtRp1457
(dp1458
g62
(dp1459
g82
g83
ssg71
g1453
sg64
(lp1460
S'remote_port'
p1461
asbag57
(g78
g59
NtRp1462
(dp1463
g62
(dp1464
g89
g90
ssg71
g1453
sg64
(lp1465
S':'
asbag57
(g78
g59
NtRp1466
(dp1467
g62
(dp1468
sg71
g1453
sg64
(lp1469
g57
(g58
g59
NtRp1470
(dp1471
g62
(dp1472
g70
I4
ssg71
g1466
sg64
(lp1473
S'50754'
p1474
asbasbasbag57
(g73
g59
NtRp1475
(dp1476
g62
(dp1477
sg71
g1011
sg64
(lp1478
g57
(g78
g59
NtRp1479
(dp1480
g62
(dp1481
g82
g83
ssg71
g1475
sg64
(lp1482
S'request_method'
p1483
asbag57
(g78
g59
NtRp1484
(dp1485
g62
(dp1486
g89
g90
ssg71
g1475
sg64
(lp1487
S':'
asbag57
(g78
g59
NtRp1488
(dp1489
g62
(dp1490
sg71
g1475
sg64
(lp1491
g57
(g58
g59
NtRp1492
(dp1493
g62
(dp1494
g70
I4
ssg71
g1488
sg64
(lp1495
S'GET'
p1496
asbasbasbag57
(g73
g59
NtRp1497
(dp1498
g62
(dp1499
sg71
g1011
sg64
(lp1500
g57
(g78
g59
NtRp1501
(dp1502
g62
(dp1503
g82
g83
ssg71
g1497
sg64
(lp1504
S'script_name'
p1505
asbag57
(g78
g59
NtRp1506
(dp1507
g62
(dp1508
g89
g90
ssg71
g1497
sg64
(lp1509
S':'
asbag57
(g78
g59
NtRp1510
(dp1511
g62
(dp1512
sg71
g1497
sg64
(lp1513
g57
(g58
g59
NtRp1514
(dp1515
g62
(dp1516
g70
I4
ssg71
g1510
sg64
(lp1517
S''
asbasbasbag57
(g73
g59
NtRp1518
(dp1519
g62
(dp1520
sg71
g1011
sg64
(lp1521
g57
(g78
g59
NtRp1522
(dp1523
g62
(dp1524
g82
g83
ssg71
g1518
sg64
(lp1525
S'server_name'
p1526
asbag57
(g78
g59
NtRp1527
(dp1528
g62
(dp1529
g89
g90
ssg71
g1518
sg64
(lp1530
S':'
asbag57
(g78
g59
NtRp1531
(dp1532
g62
(dp1533
sg71
g1518
sg64
(lp1534
g57
(g58
g59
NtRp1535
(dp1536
g62
(dp1537
g70
I4
ssg71
g1531
sg64
(lp1538
S'rochacbruno-HP'
p1539
asbasbasbag57
(g73
g59
NtRp1540
(dp1541
g62
(dp1542
sg71
g1011
sg64
(lp1543
g57
(g78
g59
NtRp1544
(dp1545
g62
(dp1546
g82
g83
ssg71
g1540
sg64
(lp1547
S'server_port'
p1548
asbag57
(g78
g59
NtRp1549
(dp1550
g62
(dp1551
g89
g90
ssg71
g1540
sg64
(lp1552
S':'
asbag57
(g78
g59
NtRp1553
(dp1554
g62
(dp1555
sg71
g1540
sg64
(lp1556
g57
(g58
g59
NtRp1557
(dp1558
g62
(dp1559
g70
I4
ssg71
g1553
sg64
(lp1560
S'8000'
p1561
asbasbasbag57
(g73
g59
NtRp1562
(dp1563
g62
(dp1564
sg71
g1011
sg64
(lp1565
g57
(g78
g59
NtRp1566
(dp1567
g62
(dp1568
g82
g83
ssg71
g1562
sg64
(lp1569
S'server_protocol'
p1570
asbag57
(g78
g59
NtRp1571
(dp1572
g62
(dp1573
g89
g90
ssg71
g1562
sg64
(lp1574
S':'
asbag57
(g78
g59
NtRp1575
(dp1576
g62
(dp1577
sg71
g1562
sg64
(lp1578
g57
(g58
g59
NtRp1579
(dp1580
g62
(dp1581
g70
I4
ssg71
g1575
sg64
(lp1582
S'HTTP/1.1'
p1583
asbasbasbag57
(g73
g59
NtRp1584
(dp1585
g62
(dp1586
sg71
g1011
sg64
(lp1587
g57
(g78
g59
NtRp1588
(dp1589
g62
(dp1590
g82
g83
ssg71
g1584
sg64
(lp1591
S'server_software'
p1592
asbag57
(g78
g59
NtRp1593
(dp1594
g62
(dp1595
g89
g90
ssg71
g1584
sg64
(lp1596
S':'
asbag57
(g78
g59
NtRp1597
(dp1598
g62
(dp1599
sg71
g1584
sg64
(lp1600
g57
(g58
g59
NtRp1601
(dp1602
g62
(dp1603
g70
I4
ssg71
g1597
sg64
(lp1604
S'Rocket 1.2.4'
p1605
asbasbasbag57
(g73
g59
NtRp1606
(dp1607
g62
(dp1608
sg71
g1011
sg64
(lp1609
g57
(g78
g59
NtRp1610
(dp1611
g62
(dp1612
g82
g83
ssg71
g1606
sg64
(lp1613
S'web2py_path'
p1614
asbag57
(g78
g59
NtRp1615
(dp1616
g62
(dp1617
g89
g90
ssg71
g1606
sg64
(lp1618
S':'
asbag57
(g78
g59
NtRp1619
(dp1620
g62
(dp1621
sg71
g1606
sg64
(lp1622
g57
(g58
g59
NtRp1623
(dp1624
g62
(dp1625
g70
I4
ssg71
g1619
sg64
(lp1626
g1058
asbasbasbag57
(g73
g59
NtRp1627
(dp1628
g62
(dp1629
sg71
g1011
sg64
(lp1630
g57
(g78
g59
NtRp1631
(dp1632
g62
(dp1633
g82
g83
ssg71
g1627
sg64
(lp1634
S'web2py_version'
p1635
asbag57
(g78
g59
NtRp1636
(dp1637
g62
(dp1638
g89
g90
ssg71
g1627
sg64
(lp1639
S':'
asbag57
(g78
g59
NtRp1640
(dp1641
g62
(dp1642
sg71
g1627
sg64
(lp1643
g57
(g58
g59
NtRp1644
(dp1645
g62
(dp1646
g70
I4
ssg71
g1640
sg64
(lp1647
g57
(g66
g59
NtRp1648
(dp1649
g62
(dp1650
g70
I3
ssg71
Nsg64
(lp1651
g57
(g73
g59
NtRp1652
(dp1653
g62
(dp1654
sg71
g1648
sg64
(lp1655
g57
(g78
g59
NtRp1656
(dp1657
g62
(dp1658
sg71
g1652
sg64
(lp1659
g57
(g58
g59
NtRp1660
(dp1661
g62
(dp1662
g70
I3
ssg71
g1656
sg64
(lp1663
S'2'
asbasbasbag57
(g73
g59
NtRp1664
(dp1665
g62
(dp1666
sg71
g1648
sg64
(lp1667
g57
(g78
g59
NtRp1668
(dp1669
g62
(dp1670
sg71
g1664
sg64
(lp1671
g57
(g58
g59
NtRp1672
(dp1673
g62
(dp1674
g70
I3
ssg71
g1668
sg64
(lp1675
S'0'
asbasbasbag57
(g73
g59
NtRp1676
(dp1677
g62
(dp1678
sg71
g1648
sg64
(lp1679
g57
(g78
g59
NtRp1680
(dp1681
g62
(dp1682
sg71
g1676
sg64
(lp1683
g57
(g58
g59
NtRp1684
(dp1685
g62
(dp1686
g70
I3
ssg71
g1680
sg64
(lp1687
S'0'
asbasbasbag57
(g73
g59
NtRp1688
(dp1689
g62
(dp1690
sg71
g1648
sg64
(lp1691
g57
(g78
g59
NtRp1692
(dp1693
g62
(dp1694
sg71
g1688
sg64
(lp1695
g57
(g58
g59
NtRp1696
(dp1697
g62
(dp1698
g70
I3
ssg71
g1692
sg64
(lp1699
S'datetime.datetime(2012, 8, 10, 13, 1, 31)'
p1700
asbasbasbag57
(g73
g59
NtRp1701
(dp1702
g62
(dp1703
sg71
g1648
sg64
(lp1704
g57
(g78
g59
NtRp1705
(dp1706
g62
(dp1707
sg71
g1701
sg64
(lp1708
g57
(g58
g59
NtRp1709
(dp1710
g62
(dp1711
g70
I3
ssg71
g1705
sg64
(lp1712
S'dev'
p1713
asbasbasbasbasbasbasbag57
(g73
g59
NtRp1714
(dp1715
g62
(dp1716
sg71
g1011
sg64
(lp1717
g57
(g78
g59
NtRp1718
(dp1719
g62
(dp1720
g82
g83
ssg71
g1714
sg64
(lp1721
S'wsgi_errors'
p1722
asbag57
(g78
g59
NtRp1723
(dp1724
g62
(dp1725
g89
g90
ssg71
g1714
sg64
(lp1726
S':'
asbag57
(g78
g59
NtRp1727
(dp1728
g62
(dp1729
sg71
g1714
sg64
(lp1730
g57
(g58
g59
NtRp1731
(dp1732
g62
(dp1733
g70
I4
ssg71
g1727
sg64
(lp1734
S"<open file '<stderr>', mode 'w' at 0x012B50D0>"
p1735
asbasbasbag57
(g73
g59
NtRp1736
(dp1737
g62
(dp1738
sg71
g1011
sg64
(lp1739
g57
(g78
g59
NtRp1740
(dp1741
g62
(dp1742
g82
g83
ssg71
g1736
sg64
(lp1743
S'wsgi_file_wrapper'
p1744
asbag57
(g78
g59
NtRp1745
(dp1746
g62
(dp1747
g89
g90
ssg71
g1736
sg64
(lp1748
S':'
asbag57
(g78
g59
NtRp1749
(dp1750
g62
(dp1751
sg71
g1736
sg64
(lp1752
g57
(g58
g59
NtRp1753
(dp1754
g62
(dp1755
g70
I4
ssg71
g1749
sg64
(lp1756
S'<class wsgiref.util.FileWrapper at 0x025383B0>'
p1757
asbasbasbag57
(g73
g59
NtRp1758
(dp1759
g62
(dp1760
sg71
g1011
sg64
(lp1761
g57
(g78
g59
NtRp1762
(dp1763
g62
(dp1764
g82
g83
ssg71
g1758
sg64
(lp1765
S'wsgi_input'
p1766
asbag57
(g78
g59
NtRp1767
(dp1768
g62
(dp1769
g89
g90
ssg71
g1758
sg64
(lp1770
S':'
asbag57
(g78
g59
NtRp1771
(dp1772
g62
(dp1773
sg71
g1758
sg64
(lp1774
g57
(g58
g59
NtRp1775
(dp1776
g62
(dp1777
g70
I4
ssg71
g1771
sg64
(lp1778
S'<socket._fileobject object at 0x05103E30>'
p1779
asbasbasbag57
(g73
g59
NtRp1780
(dp1781
g62
(dp1782
sg71
g1011
sg64
(lp1783
g57
(g78
g59
NtRp1784
(dp1785
g62
(dp1786
g82
g83
ssg71
g1780
sg64
(lp1787
S'wsgi_multiprocess'
p1788
asbag57
(g78
g59
NtRp1789
(dp1790
g62
(dp1791
g89
g90
ssg71
g1780
sg64
(lp1792
S':'
asbag57
(g78
g59
NtRp1793
(dp1794
g62
(dp1795
sg71
g1780
sg64
(lp1796
g57
(g58
g59
NtRp1797
(dp1798
g62
(dp1799
g70
I4
ssg71
g1793
sg64
(lp1800
g100
asbasbasbag57
(g73
g59
NtRp1801
(dp1802
g62
(dp1803
sg71
g1011
sg64
(lp1804
g57
(g78
g59
NtRp1805
(dp1806
g62
(dp1807
g82
g83
ssg71
g1801
sg64
(lp1808
S'wsgi_multithread'
p1809
asbag57
(g78
g59
NtRp1810
(dp1811
g62
(dp1812
g89
g90
ssg71
g1801
sg64
(lp1813
S':'
asbag57
(g78
g59
NtRp1814
(dp1815
g62
(dp1816
sg71
g1801
sg64
(lp1817
g57
(g58
g59
NtRp1818
(dp1819
g62
(dp1820
g70
I4
ssg71
g1814
sg64
(lp1821
S'True'
p1822
asbasbasbag57
(g73
g59
NtRp1823
(dp1824
g62
(dp1825
sg71
g1011
sg64
(lp1826
g57
(g78
g59
NtRp1827
(dp1828
g62
(dp1829
g82
g83
ssg71
g1823
sg64
(lp1830
S'wsgi_run_once'
p1831
asbag57
(g78
g59
NtRp1832
(dp1833
g62
(dp1834
g89
g90
ssg71
g1823
sg64
(lp1835
S':'
asbag57
(g78
g59
NtRp1836
(dp1837
g62
(dp1838
sg71
g1823
sg64
(lp1839
g57
(g58
g59
NtRp1840
(dp1841
g62
(dp1842
g70
I4
ssg71
g1836
sg64
(lp1843
g100
asbasbasbag57
(g73
g59
NtRp1844
(dp1845
g62
(dp1846
sg71
g1011
sg64
(lp1847
g57
(g78
g59
NtRp1848
(dp1849
g62
(dp1850
g82
g83
ssg71
g1844
sg64
(lp1851
S'wsgi_url_scheme'
p1852
asbag57
(g78
g59
NtRp1853
(dp1854
g62
(dp1855
g89
g90
ssg71
g1844
sg64
(lp1856
S':'
asbag57
(g78
g59
NtRp1857
(dp1858
g62
(dp1859
sg71
g1844
sg64
(lp1860
g57
(g58
g59
NtRp1861
(dp1862
g62
(dp1863
g70
I4
ssg71
g1857
sg64
(lp1864
S'http'
p1865
asbasbasbag57
(g73
g59
NtRp1866
(dp1867
g62
(dp1868
sg71
g1011
sg64
(lp1869
g57
(g78
g59
NtRp1870
(dp1871
g62
(dp1872
g82
g83
ssg71
g1866
sg64
(lp1873
S'wsgi_version'
p1874
asbag57
(g78
g59
NtRp1875
(dp1876
g62
(dp1877
g89
g90
ssg71
g1866
sg64
(lp1878
S':'
asbag57
(g78
g59
NtRp1879
(dp1880
g62
(dp1881
sg71
g1866
sg64
(lp1882
g57
(g58
g59
NtRp1883
(dp1884
g62
(dp1885
g70
I4
ssg71
g1879
sg64
(lp1886
g57
(g66
g59
NtRp1887
(dp1888
g62
(dp1889
g70
I3
ssg71
Nsg64
(lp1890
g57
(g73
g59
NtRp1891
(dp1892
g62
(dp1893
sg71
g1887
sg64
(lp1894
g57
(g78
g59
NtRp1895
(dp1896
g62
(dp1897
sg71
g1891
sg64
(lp1898
g57
(g58
g59
NtRp1899
(dp1900
g62
(dp1901
g70
I3
ssg71
g1895
sg64
(lp1902
S'1'
asbasbasbag57
(g73
g59
NtRp1903
(dp1904
g62
(dp1905
sg71
g1887
sg64
(lp1906
g57
(g78
g59
NtRp1907
(dp1908
g62
(dp1909
sg71
g1903
sg64
(lp1910
g57
(g58
g59
NtRp1911
(dp1912
g62
(dp1913
g70
I3
ssg71
g1907
sg64
(lp1914
S'0'
asbasbasbasbasbasbasbasbasbasbasbag57
(g73
g59
NtRp1915
(dp1916
g62
(dp1917
sg71
g67
sg64
(lp1918
g57
(g78
g59
NtRp1919
(dp1920
g62
(dp1921
g82
g83
ssg71
g1915
sg64
(lp1922
S'extension'
p1923
asbag57
(g78
g59
NtRp1924
(dp1925
g62
(dp1926
g89
g90
ssg71
g1915
sg64
(lp1927
S':'
asbag57
(g78
g59
NtRp1928
(dp1929
g62
(dp1930
sg71
g1915
sg64
(lp1931
g57
(g58
g59
NtRp1932
(dp1933
g62
(dp1934
g70
I5
ssg71
g1928
sg64
(lp1935
S'html'
p1936
asbasbasbag57
(g73
g59
NtRp1937
(dp1938
g62
(dp1939
sg71
g67
sg64
(lp1940
g57
(g78
g59
NtRp1941
(dp1942
g62
(dp1943
g82
g83
ssg71
g1937
sg64
(lp1944
S'folder'
p1945
asbag57
(g78
g59
NtRp1946
(dp1947
g62
(dp1948
g89
g90
ssg71
g1937
sg64
(lp1949
S':'
asbag57
(g78
g59
NtRp1950
(dp1951
g62
(dp1952
sg71
g1937
sg64
(lp1953
g57
(g58
g59
NtRp1954
(dp1955
g62
(dp1956
g70
I5
ssg71
g1950
sg64
(lp1957
S'c:\\Users\\rochacbruno\\jul12\\cursojulho12\\web2py\\applications\\ecommerce\\'
p1958
asbasbasbag57
(g73
g59
NtRp1959
(dp1960
g62
(dp1961
sg71
g67
sg64
(lp1962
g57
(g78
g59
NtRp1963
(dp1964
g62
(dp1965
g82
g83
ssg71
g1959
sg64
(lp1966
S'function'
p1967
asbag57
(g78
g59
NtRp1968
(dp1969
g62
(dp1970
g89
g90
ssg71
g1959
sg64
(lp1971
S':'
asbag57
(g78
g59
NtRp1972
(dp1973
g62
(dp1974
sg71
g1959
sg64
(lp1975
g57
(g58
g59
NtRp1976
(dp1977
g62
(dp1978
g70
I5
ssg71
g1972
sg64
(lp1979
S'ccache'
p1980
asbasbasbag57
(g73
g59
NtRp1981
(dp1982
g62
(dp1983
sg71
g67
sg64
(lp1984
g57
(g78
g59
NtRp1985
(dp1986
g62
(dp1987
g82
g83
ssg71
g1981
sg64
(lp1988
S'get_vars'
p1989
asbag57
(g78
g59
NtRp1990
(dp1991
g62
(dp1992
g89
g90
ssg71
g1981
sg64
(lp1993
S':'
asbag57
(g78
g59
NtRp1994
(dp1995
g62
(dp1996
sg71
g1981
sg64
(lp1997
g57
(g58
g59
NtRp1998
(dp1999
g62
(dp2000
g70
I5
ssg71
g1994
sg64
(lp2001
g57
(g66
g59
NtRp2002
(dp2003
g62
(dp2004
g70
I4
ssg71
Nsg64
(lp2005
sbasbasbasbag57
(g73
g59
NtRp2006
(dp2007
g62
(dp2008
sg71
g67
sg64
(lp2009
g57
(g78
g59
NtRp2010
(dp2011
g62
(dp2012
g82
g83
ssg71
g2006
sg64
(lp2013
S'global_settings'
p2014
asbag57
(g78
g59
NtRp2015
(dp2016
g62
(dp2017
g89
g90
ssg71
g2006
sg64
(lp2018
S':'
asbag57
(g78
g59
NtRp2019
(dp2020
g62
(dp2021
sg71
g2006
sg64
(lp2022
g57
(g58
g59
NtRp2023
(dp2024
g62
(dp2025
g70
I5
ssg71
g2019
sg64
(lp2026
g57
(g66
g59
NtRp2027
(dp2028
g62
(dp2029
g70
I4
ssg71
Nsg64
(lp2030
g57
(g73
g59
NtRp2031
(dp2032
g62
(dp2033
sg71
g2027
sg64
(lp2034
g57
(g78
g59
NtRp2035
(dp2036
g62
(dp2037
g82
g83
ssg71
g2031
sg64
(lp2038
g1023
asbag57
(g78
g59
NtRp2039
(dp2040
g62
(dp2041
g89
g90
ssg71
g2031
sg64
(lp2042
S':'
asbag57
(g78
g59
NtRp2043
(dp2044
g62
(dp2045
sg71
g2031
sg64
(lp2046
g57
(g58
g59
NtRp2047
(dp2048
g62
(dp2049
g70
I4
ssg71
g2043
sg64
(lp2050
S"set(['c:\\\\Users\\\\rochacbruno\\\\jul12\\\\cursojulho12\\\\web2py\\\\applications\\\\ecommerce\\\\', 'c:\\\\Users\\\\rochacbruno\\\\jul12\\\\cursojulho12\\\\web2py\\\\applications\\\\init\\\\', 'c:\\\\Users\\\\rochacbruno\\\\jul12\\\\cursojulho12\\\\web2py\\\\applications\\\\admin\\\\'])"
p2051
asbasbasbag57
(g73
g59
NtRp2052
(dp2053
g62
(dp2054
sg71
g2027
sg64
(lp2055
g57
(g78
g59
NtRp2056
(dp2057
g62
(dp2058
g82
g83
ssg71
g2052
sg64
(lp2059
g1045
asbag57
(g78
g59
NtRp2060
(dp2061
g62
(dp2062
g89
g90
ssg71
g2052
sg64
(lp2063
S':'
asbag57
(g78
g59
NtRp2064
(dp2065
g62
(dp2066
sg71
g2052
sg64
(lp2067
g57
(g58
g59
NtRp2068
(dp2069
g62
(dp2070
g70
I4
ssg71
g2064
sg64
(lp2071
g1058
asbasbasbag57
(g73
g59
NtRp2072
(dp2073
g62
(dp2074
sg71
g2027
sg64
(lp2075
g57
(g78
g59
NtRp2076
(dp2077
g62
(dp2078
g82
g83
ssg71
g2072
sg64
(lp2079
g1067
asbag57
(g78
g59
NtRp2080
(dp2081
g62
(dp2082
g89
g90
ssg71
g2072
sg64
(lp2083
S':'
asbag57
(g78
g59
NtRp2084
(dp2085
g62
(dp2086
sg71
g2072
sg64
(lp2087
g57
(g58
g59
NtRp2088
(dp2089
g62
(dp2090
g70
I4
ssg71
g2084
sg64
(lp2091
g57
(g66
g59
NtRp2092
(dp2093
g62
(dp2094
g70
I3
ssg71
Nsg64
(lp2095
sbasbasbasbag57
(g73
g59
NtRp2096
(dp2097
g62
(dp2098
sg71
g2027
sg64
(lp2099
g57
(g78
g59
NtRp2100
(dp2101
g62
(dp2102
g82
g83
ssg71
g2096
sg64
(lp2103
g1092
asbag57
(g78
g59
NtRp2104
(dp2105
g62
(dp2106
g89
g90
ssg71
g2096
sg64
(lp2107
S':'
asbag57
(g78
g59
NtRp2108
(dp2109
g62
(dp2110
sg71
g2096
sg64
(lp2111
g57
(g58
g59
NtRp2112
(dp2113
g62
(dp2114
g70
I4
ssg71
g2108
sg64
(lp2115
S"<Values at 0x25f78c8: {'verbose': False, 'ip': '127.0.0.1', 'with_scheduler': False, 'ips': ['192.168.1.100'], 'shutdown_timeout': 5, 'taskbar': False, 'port': 8000, 'maxthreads': None, 'softcron': False, 'server_name': 'rochacbruno-HP', 'bpython': False, 'nogui': False, 'nocron': True, 'extcron': False, 'run_system_tests': False, 'test': None, 'folder': 'c:\\\\Users\\\\rochacbruno\\\\jul12\\\\cursojulho12\\\\web2py', 'config': '', 'import_models': False, 'winservice': '', 'shell': None, 'run': '', 'log_filename': 'httpserver.log', 'debuglevel': 30, 'args': [''], 'socket_timeout': 5, 'ssl_ca_certificate': None, 'scheduler': None, 'profiler_filename': None, 'ssl_private_key': '', 'password': '1234', 'request_queue_size': 5, 'ssl_certificate': '', 'cronjob': False, 'numthreads': None, 'quiet': False, 'interfaces': None, 'minthreads': None, 'timeout': 10, 'plain': False, 'nobanner': False, 'pid_filename': 'httpserver.pid'}>"
p2116
asbasbasbag57
(g73
g59
NtRp2117
(dp2118
g62
(dp2119
sg71
g2027
sg64
(lp2120
g57
(g78
g59
NtRp2121
(dp2122
g62
(dp2123
g82
g83
ssg71
g2117
sg64
(lp2124
g1114
asbag57
(g78
g59
NtRp2125
(dp2126
g62
(dp2127
g89
g90
ssg71
g2117
sg64
(lp2128
S':'
asbag57
(g78
g59
NtRp2129
(dp2130
g62
(dp2131
sg71
g2117
sg64
(lp2132
g57
(g58
g59
NtRp2133
(dp2134
g62
(dp2135
g70
I4
ssg71
g2129
sg64
(lp2136
S'set([])'
p2137
asbasbasbag57
(g73
g59
NtRp2138
(dp2139
g62
(dp2140
sg71
g2027
sg64
(lp2141
g57
(g78
g59
NtRp2142
(dp2143
g62
(dp2144
g82
g83
ssg71
g2138
sg64
(lp2145
g1136
asbag57
(g78
g59
NtRp2146
(dp2147
g62
(dp2148
g89
g90
ssg71
g2138
sg64
(lp2149
S':'
asbag57
(g78
g59
NtRp2150
(dp2151
g62
(dp2152
sg71
g2138
sg64
(lp2153
g57
(g58
g59
NtRp2154
(dp2155
g62
(dp2156
g70
I4
ssg71
g2150
sg64
(lp2157
g100
asbasbasbag57
(g73
g59
NtRp2158
(dp2159
g62
(dp2160
sg71
g2027
sg64
(lp2161
g57
(g78
g59
NtRp2162
(dp2163
g62
(dp2164
g82
g83
ssg71
g2158
sg64
(lp2165
g1157
asbag57
(g78
g59
NtRp2166
(dp2167
g62
(dp2168
g89
g90
ssg71
g2158
sg64
(lp2169
S':'
asbag57
(g78
g59
NtRp2170
(dp2171
g62
(dp2172
sg71
g2158
sg64
(lp2173
g57
(g58
g59
NtRp2174
(dp2175
g62
(dp2176
g70
I4
ssg71
g2170
sg64
(lp2177
g1170
asbasbasbag57
(g73
g59
NtRp2178
(dp2179
g62
(dp2180
sg71
g2027
sg64
(lp2181
g57
(g78
g59
NtRp2182
(dp2183
g62
(dp2184
g82
g83
ssg71
g2178
sg64
(lp2185
g1355
asbag57
(g78
g59
NtRp2186
(dp2187
g62
(dp2188
g89
g90
ssg71
g2178
sg64
(lp2189
S':'
asbag57
(g78
g59
NtRp2190
(dp2191
g62
(dp2192
sg71
g2178
sg64
(lp2193
g57
(g58
g59
NtRp2194
(dp2195
g62
(dp2196
g70
I4
ssg71
g2190
sg64
(lp2197
g100
asbasbasbag57
(g73
g59
NtRp2198
(dp2199
g62
(dp2200
sg71
g2027
sg64
(lp2201
g57
(g78
g59
NtRp2202
(dp2203
g62
(dp2204
g82
g83
ssg71
g2198
sg64
(lp2205
g1376
asbag57
(g78
g59
NtRp2206
(dp2207
g62
(dp2208
g89
g90
ssg71
g2198
sg64
(lp2209
S':'
asbag57
(g78
g59
NtRp2210
(dp2211
g62
(dp2212
sg71
g2198
sg64
(lp2213
g57
(g58
g59
NtRp2214
(dp2215
g62
(dp2216
g70
I4
ssg71
g2210
sg64
(lp2217
g100
asbasbasbag57
(g73
g59
NtRp2218
(dp2219
g62
(dp2220
sg71
g2027
sg64
(lp2221
g57
(g78
g59
NtRp2222
(dp2223
g62
(dp2224
g82
g83
ssg71
g2218
sg64
(lp2225
g1635
asbag57
(g78
g59
NtRp2226
(dp2227
g62
(dp2228
g89
g90
ssg71
g2218
sg64
(lp2229
S':'
asbag57
(g78
g59
NtRp2230
(dp2231
g62
(dp2232
sg71
g2218
sg64
(lp2233
g57
(g58
g59
NtRp2234
(dp2235
g62
(dp2236
g70
I4
ssg71
g2230
sg64
(lp2237
g57
(g66
g59
NtRp2238
(dp2239
g62
(dp2240
g70
I3
ssg71
Nsg64
(lp2241
g57
(g73
g59
NtRp2242
(dp2243
g62
(dp2244
sg71
g2238
sg64
(lp2245
g57
(g78
g59
NtRp2246
(dp2247
g62
(dp2248
sg71
g2242
sg64
(lp2249
g57
(g58
g59
NtRp2250
(dp2251
g62
(dp2252
g70
I3
ssg71
g2246
sg64
(lp2253
S'2'
asbasbasbag57
(g73
g59
NtRp2254
(dp2255
g62
(dp2256
sg71
g2238
sg64
(lp2257
g57
(g78
g59
NtRp2258
(dp2259
g62
(dp2260
sg71
g2254
sg64
(lp2261
g57
(g58
g59
NtRp2262
(dp2263
g62
(dp2264
g70
I3
ssg71
g2258
sg64
(lp2265
S'0'
asbasbasbag57
(g73
g59
NtRp2266
(dp2267
g62
(dp2268
sg71
g2238
sg64
(lp2269
g57
(g78
g59
NtRp2270
(dp2271
g62
(dp2272
sg71
g2266
sg64
(lp2273
g57
(g58
g59
NtRp2274
(dp2275
g62
(dp2276
g70
I3
ssg71
g2270
sg64
(lp2277
S'0'
asbasbasbag57
(g73
g59
NtRp2278
(dp2279
g62
(dp2280
sg71
g2238
sg64
(lp2281
g57
(g78
g59
NtRp2282
(dp2283
g62
(dp2284
sg71
g2278
sg64
(lp2285
g57
(g58
g59
NtRp2286
(dp2287
g62
(dp2288
g70
I3
ssg71
g2282
sg64
(lp2289
S'datetime.datetime(2012, 8, 10, 13, 1, 31)'
p2290
asbasbasbag57
(g73
g59
NtRp2291
(dp2292
g62
(dp2293
sg71
g2238
sg64
(lp2294
g57
(g78
g59
NtRp2295
(dp2296
g62
(dp2297
sg71
g2291
sg64
(lp2298
g57
(g58
g59
NtRp2299
(dp2300
g62
(dp2301
g70
I3
ssg71
g2295
sg64
(lp2302
g1713
asbasbasbasbasbasbasbasbasbasbasbag57
(g73
g59
NtRp2303
(dp2304
g62
(dp2305
sg71
g67
sg64
(lp2306
g57
(g78
g59
NtRp2307
(dp2308
g62
(dp2309
g82
g83
ssg71
g2303
sg64
(lp2310
S'is_https'
p2311
asbag57
(g78
g59
NtRp2312
(dp2313
g62
(dp2314
g89
g90
ssg71
g2303
sg64
(lp2315
S':'
asbag57
(g78
g59
NtRp2316
(dp2317
g62
(dp2318
sg71
g2303
sg64
(lp2319
g57
(g58
g59
NtRp2320
(dp2321
g62
(dp2322
g70
I5
ssg71
g2316
sg64
(lp2323
g100
asbasbasbag57
(g73
g59
NtRp2324
(dp2325
g62
(dp2326
sg71
g67
sg64
(lp2327
g57
(g78
g59
NtRp2328
(dp2329
g62
(dp2330
g82
g83
ssg71
g2324
sg64
(lp2331
S'is_local'
p2332
asbag57
(g78
g59
NtRp2333
(dp2334
g62
(dp2335
g89
g90
ssg71
g2324
sg64
(lp2336
S':'
asbag57
(g78
g59
NtRp2337
(dp2338
g62
(dp2339
sg71
g2324
sg64
(lp2340
g57
(g58
g59
NtRp2341
(dp2342
g62
(dp2343
g70
I5
ssg71
g2337
sg64
(lp2344
g1822
asbasbasbag57
(g73
g59
NtRp2345
(dp2346
g62
(dp2347
sg71
g67
sg64
(lp2348
g57
(g78
g59
NtRp2349
(dp2350
g62
(dp2351
g82
g83
ssg71
g2345
sg64
(lp2352
S'is_restful'
p2353
asbag57
(g78
g59
NtRp2354
(dp2355
g62
(dp2356
g89
g90
ssg71
g2345
sg64
(lp2357
S':'
asbag57
(g78
g59
NtRp2358
(dp2359
g62
(dp2360
sg71
g2345
sg64
(lp2361
g57
(g58
g59
NtRp2362
(dp2363
g62
(dp2364
g70
I5
ssg71
g2358
sg64
(lp2365
g100
asbasbasbag57
(g73
g59
NtRp2366
(dp2367
g62
(dp2368
sg71
g67
sg64
(lp2369
g57
(g78
g59
NtRp2370
(dp2371
g62
(dp2372
g82
g83
ssg71
g2366
sg64
(lp2373
S'now'
p2374
asbag57
(g78
g59
NtRp2375
(dp2376
g62
(dp2377
g89
g90
ssg71
g2366
sg64
(lp2378
S':'
asbag57
(g78
g59
NtRp2379
(dp2380
g62
(dp2381
sg71
g2366
sg64
(lp2382
g57
(g58
g59
NtRp2383
(dp2384
g62
(dp2385
g70
I5
ssg71
g2379
sg64
(lp2386
S'datetime.datetime(2012, 8, 19, 17, 2, 15, 170000)'
p2387
asbasbasbag57
(g73
g59
NtRp2388
(dp2389
g62
(dp2390
sg71
g67
sg64
(lp2391
g57
(g78
g59
NtRp2392
(dp2393
g62
(dp2394
g82
g83
ssg71
g2388
sg64
(lp2395
S'post_vars'
p2396
asbag57
(g78
g59
NtRp2397
(dp2398
g62
(dp2399
g89
g90
ssg71
g2388
sg64
(lp2400
S':'
asbag57
(g78
g59
NtRp2401
(dp2402
g62
(dp2403
sg71
g2388
sg64
(lp2404
g57
(g58
g59
NtRp2405
(dp2406
g62
(dp2407
g70
I5
ssg71
g2401
sg64
(lp2408
g57
(g66
g59
NtRp2409
(dp2410
g62
(dp2411
g70
I4
ssg71
Nsg64
(lp2412
sbasbasbasbag57
(g73
g59
NtRp2413
(dp2414
g62
(dp2415
sg71
g67
sg64
(lp2416
g57
(g78
g59
NtRp2417
(dp2418
g62
(dp2419
g82
g83
ssg71
g2413
sg64
(lp2420
S'url'
p2421
asbag57
(g78
g59
NtRp2422
(dp2423
g62
(dp2424
g89
g90
ssg71
g2413
sg64
(lp2425
S':'
asbag57
(g78
g59
NtRp2426
(dp2427
g62
(dp2428
sg71
g2413
sg64
(lp2429
g57
(g58
g59
NtRp2430
(dp2431
g62
(dp2432
g70
I5
ssg71
g2426
sg64
(lp2433
S'/ecommerce/appadmin/ccache'
p2434
asbasbasbag57
(g73
g59
NtRp2435
(dp2436
g62
(dp2437
sg71
g67
sg64
(lp2438
g57
(g78
g59
NtRp2439
(dp2440
g62
(dp2441
g82
g83
ssg71
g2435
sg64
(lp2442
S'utcnow'
p2443
asbag57
(g78
g59
NtRp2444
(dp2445
g62
(dp2446
g89
g90
ssg71
g2435
sg64
(lp2447
S':'
asbag57
(g78
g59
NtRp2448
(dp2449
g62
(dp2450
sg71
g2435
sg64
(lp2451
g57
(g58
g59
NtRp2452
(dp2453
g62
(dp2454
g70
I5
ssg71
g2448
sg64
(lp2455
S'datetime.datetime(2012, 8, 19, 20, 2, 15, 170000)'
p2456
asbasbasbag57
(g73
g59
NtRp2457
(dp2458
g62
(dp2459
sg71
g67
sg64
(lp2460
g57
(g78
g59
NtRp2461
(dp2462
g62
(dp2463
g82
g83
ssg71
g2457
sg64
(lp2464
S'uuid'
p2465
asbag57
(g78
g59
NtRp2466
(dp2467
g62
(dp2468
g89
g90
ssg71
g2457
sg64
(lp2469
S':'
asbag57
(g78
g59
NtRp2470
(dp2471
g62
(dp2472
sg71
g2457
sg64
(lp2473
g57
(g58
g59
NtRp2474
(dp2475
g62
(dp2476
g70
I5
ssg71
g2470
sg64
(lp2477
S'ecommerce/127.0.0.1.2012-08-19.17-02-15.b567347f-16c8-4332-aacb-6955cd8c7da4'
p2478
asbasbasbag57
(g73
g59
NtRp2479
(dp2480
g62
(dp2481
sg71
g67
sg64
(lp2482
g57
(g78
g59
NtRp2483
(dp2484
g62
(dp2485
g82
g83
ssg71
g2479
sg64
(lp2486
S'vars'
p2487
asbag57
(g78
g59
NtRp2488
(dp2489
g62
(dp2490
g89
g90
ssg71
g2479
sg64
(lp2491
S':'
asbag57
(g78
g59
NtRp2492
(dp2493
g62
(dp2494
sg71
g2479
sg64
(lp2495
g57
(g58
g59
NtRp2496
(dp2497
g62
(dp2498
g70
I5
ssg71
g2492
sg64
(lp2499
g57
(g66
g59
NtRp2500
(dp2501
g62
(dp2502
g70
I4
ssg71
Nsg64
(lp2503
sbasbasbasbag57
(g73
g59
NtRp2504
(dp2505
g62
(dp2506
sg71
g67
sg64
(lp2507
g57
(g78
g59
NtRp2508
(dp2509
g62
(dp2510
g82
g83
ssg71
g2504
sg64
(lp2511
S'wsgi'
p2512
asbag57
(g78
g59
NtRp2513
(dp2514
g62
(dp2515
g89
g90
ssg71
g2504
sg64
(lp2516
S':'
asbag57
(g78
g59
NtRp2517
(dp2518
g62
(dp2519
sg71
g2504
sg64
(lp2520
g57
(g58
g59
NtRp2521
(dp2522
g62
(dp2523
g70
I5
ssg71
g2517
sg64
(lp2524
g57
(g66
g59
NtRp2525
(dp2526
g62
(dp2527
g70
I4
ssg71
Nsg64
(lp2528
g57
(g73
g59
NtRp2529
(dp2530
g62
(dp2531
sg71
g2525
sg64
(lp2532
g57
(g78
g59
NtRp2533
(dp2534
g62
(dp2535
g82
g83
ssg71
g2529
sg64
(lp2536
S'environ'
p2537
asbag57
(g78
g59
NtRp2538
(dp2539
g62
(dp2540
g89
g90
ssg71
g2529
sg64
(lp2541
S':'
asbag57
(g78
g59
NtRp2542
(dp2543
g62
(dp2544
sg71
g2529
sg64
(lp2545
g57
(g58
g59
NtRp2546
(dp2547
g62
(dp2548
g70
I4
ssg71
g2542
sg64
(lp2549
g57
(g66
g59
NtRp2550
(dp2551
g62
(dp2552
g70
I3
ssg71
Nsg64
(lp2553
g57
(g73
g59
NtRp2554
(dp2555
g62
(dp2556
sg71
g2550
sg64
(lp2557
g57
(g78
g59
NtRp2558
(dp2559
g62
(dp2560
g82
g83
ssg71
g2554
sg64
(lp2561
S'HTTP_ACCEPT'
p2562
asbag57
(g78
g59
NtRp2563
(dp2564
g62
(dp2565
g89
g90
ssg71
g2554
sg64
(lp2566
S':'
asbag57
(g78
g59
NtRp2567
(dp2568
g62
(dp2569
sg71
g2554
sg64
(lp2570
g57
(g58
g59
NtRp2571
(dp2572
g62
(dp2573
g70
I3
ssg71
g2567
sg64
(lp2574
g1192
asbasbasbag57
(g73
g59
NtRp2575
(dp2576
g62
(dp2577
sg71
g2550
sg64
(lp2578
g57
(g78
g59
NtRp2579
(dp2580
g62
(dp2581
g82
g83
ssg71
g2575
sg64
(lp2582
S'HTTP_ACCEPT_ENCODING'
p2583
asbag57
(g78
g59
NtRp2584
(dp2585
g62
(dp2586
g89
g90
ssg71
g2575
sg64
(lp2587
S':'
asbag57
(g78
g59
NtRp2588
(dp2589
g62
(dp2590
sg71
g2575
sg64
(lp2591
g57
(g58
g59
NtRp2592
(dp2593
g62
(dp2594
g70
I3
ssg71
g2588
sg64
(lp2595
g1214
asbasbasbag57
(g73
g59
NtRp2596
(dp2597
g62
(dp2598
sg71
g2550
sg64
(lp2599
g57
(g78
g59
NtRp2600
(dp2601
g62
(dp2602
g82
g83
ssg71
g2596
sg64
(lp2603
S'HTTP_ACCEPT_LANGUAGE'
p2604
asbag57
(g78
g59
NtRp2605
(dp2606
g62
(dp2607
g89
g90
ssg71
g2596
sg64
(lp2608
S':'
asbag57
(g78
g59
NtRp2609
(dp2610
g62
(dp2611
sg71
g2596
sg64
(lp2612
g57
(g58
g59
NtRp2613
(dp2614
g62
(dp2615
g70
I3
ssg71
g2609
sg64
(lp2616
g1236
asbasbasbag57
(g73
g59
NtRp2617
(dp2618
g62
(dp2619
sg71
g2550
sg64
(lp2620
g57
(g78
g59
NtRp2621
(dp2622
g62
(dp2623
g82
g83
ssg71
g2617
sg64
(lp2624
S'HTTP_CACHE_CONTROL'
p2625
asbag57
(g78
g59
NtRp2626
(dp2627
g62
(dp2628
g89
g90
ssg71
g2617
sg64
(lp2629
S':'
asbag57
(g78
g59
NtRp2630
(dp2631
g62
(dp2632
sg71
g2617
sg64
(lp2633
g57
(g58
g59
NtRp2634
(dp2635
g62
(dp2636
g70
I3
ssg71
g2630
sg64
(lp2637
g1258
asbasbasbag57
(g73
g59
NtRp2638
(dp2639
g62
(dp2640
sg71
g2550
sg64
(lp2641
g57
(g78
g59
NtRp2642
(dp2643
g62
(dp2644
g82
g83
ssg71
g2638
sg64
(lp2645
S'HTTP_CONNECTION'
p2646
asbag57
(g78
g59
NtRp2647
(dp2648
g62
(dp2649
g89
g90
ssg71
g2638
sg64
(lp2650
S':'
asbag57
(g78
g59
NtRp2651
(dp2652
g62
(dp2653
sg71
g2638
sg64
(lp2654
g57
(g58
g59
NtRp2655
(dp2656
g62
(dp2657
g70
I3
ssg71
g2651
sg64
(lp2658
g1280
asbasbasbag57
(g73
g59
NtRp2659
(dp2660
g62
(dp2661
sg71
g2550
sg64
(lp2662
g57
(g78
g59
NtRp2663
(dp2664
g62
(dp2665
g82
g83
ssg71
g2659
sg64
(lp2666
S'HTTP_COOKIE'
p2667
asbag57
(g78
g59
NtRp2668
(dp2669
g62
(dp2670
g89
g90
ssg71
g2659
sg64
(lp2671
S':'
asbag57
(g78
g59
NtRp2672
(dp2673
g62
(dp2674
sg71
g2659
sg64
(lp2675
g57
(g58
g59
NtRp2676
(dp2677
g62
(dp2678
g70
I3
ssg71
g2672
sg64
(lp2679
g1302
asbasbasbag57
(g73
g59
NtRp2680
(dp2681
g62
(dp2682
sg71
g2550
sg64
(lp2683
g57
(g78
g59
NtRp2684
(dp2685
g62
(dp2686
g82
g83
ssg71
g2680
sg64
(lp2687
S'HTTP_HOST'
p2688
asbag57
(g78
g59
NtRp2689
(dp2690
g62
(dp2691
g89
g90
ssg71
g2680
sg64
(lp2692
S':'
asbag57
(g78
g59
NtRp2693
(dp2694
g62
(dp2695
sg71
g2680
sg64
(lp2696
g57
(g58
g59
NtRp2697
(dp2698
g62
(dp2699
g70
I3
ssg71
g2693
sg64
(lp2700
g1324
asbasbasbag57
(g73
g59
NtRp2701
(dp2702
g62
(dp2703
sg71
g2550
sg64
(lp2704
g57
(g78
g59
NtRp2705
(dp2706
g62
(dp2707
g82
g83
ssg71
g2701
sg64
(lp2708
S'HTTP_USER_AGENT'
p2709
asbag57
(g78
g59
NtRp2710
(dp2711
g62
(dp2712
g89
g90
ssg71
g2701
sg64
(lp2713
S':'
asbag57
(g78
g59
NtRp2714
(dp2715
g62
(dp2716
sg71
g2701
sg64
(lp2717
g57
(g58
g59
NtRp2718
(dp2719
g62
(dp2720
g70
I3
ssg71
g2714
sg64
(lp2721
g1346
asbasbasbag57
(g73
g59
NtRp2722
(dp2723
g62
(dp2724
sg71
g2550
sg64
(lp2725
g57
(g78
g59
NtRp2726
(dp2727
g62
(dp2728
g82
g83
ssg71
g2722
sg64
(lp2729
S'PATH_INFO'
p2730
asbag57
(g78
g59
NtRp2731
(dp2732
g62
(dp2733
g89
g90
ssg71
g2722
sg64
(lp2734
S':'
asbag57
(g78
g59
NtRp2735
(dp2736
g62
(dp2737
sg71
g2722
sg64
(lp2738
g57
(g58
g59
NtRp2739
(dp2740
g62
(dp2741
g70
I3
ssg71
g2735
sg64
(lp2742
g1410
asbasbasbag57
(g73
g59
NtRp2743
(dp2744
g62
(dp2745
sg71
g2550
sg64
(lp2746
g57
(g78
g59
NtRp2747
(dp2748
g62
(dp2749
g82
g83
ssg71
g2743
sg64
(lp2750
S'QUERY_STRING'
p2751
asbag57
(g78
g59
NtRp2752
(dp2753
g62
(dp2754
g89
g90
ssg71
g2743
sg64
(lp2755
S':'
asbag57
(g78
g59
NtRp2756
(dp2757
g62
(dp2758
sg71
g2743
sg64
(lp2759
g57
(g58
g59
NtRp2760
(dp2761
g62
(dp2762
g70
I3
ssg71
g2756
sg64
(lp2763
S''
asbasbasbag57
(g73
g59
NtRp2764
(dp2765
g62
(dp2766
sg71
g2550
sg64
(lp2767
g57
(g78
g59
NtRp2768
(dp2769
g62
(dp2770
g82
g83
ssg71
g2764
sg64
(lp2771
S'REMOTE_ADDR'
p2772
asbag57
(g78
g59
NtRp2773
(dp2774
g62
(dp2775
g89
g90
ssg71
g2764
sg64
(lp2776
S':'
asbag57
(g78
g59
NtRp2777
(dp2778
g62
(dp2779
sg71
g2764
sg64
(lp2780
g57
(g58
g59
NtRp2781
(dp2782
g62
(dp2783
g70
I3
ssg71
g2777
sg64
(lp2784
g190
asbasbasbag57
(g73
g59
NtRp2785
(dp2786
g62
(dp2787
sg71
g2550
sg64
(lp2788
g57
(g78
g59
NtRp2789
(dp2790
g62
(dp2791
g82
g83
ssg71
g2785
sg64
(lp2792
S'REMOTE_PORT'
p2793
asbag57
(g78
g59
NtRp2794
(dp2795
g62
(dp2796
g89
g90
ssg71
g2785
sg64
(lp2797
S':'
asbag57
(g78
g59
NtRp2798
(dp2799
g62
(dp2800
sg71
g2785
sg64
(lp2801
g57
(g58
g59
NtRp2802
(dp2803
g62
(dp2804
g70
I3
ssg71
g2798
sg64
(lp2805
g1474
asbasbasbag57
(g73
g59
NtRp2806
(dp2807
g62
(dp2808
sg71
g2550
sg64
(lp2809
g57
(g78
g59
NtRp2810
(dp2811
g62
(dp2812
g82
g83
ssg71
g2806
sg64
(lp2813
S'REQUEST_METHOD'
p2814
asbag57
(g78
g59
NtRp2815
(dp2816
g62
(dp2817
g89
g90
ssg71
g2806
sg64
(lp2818
S':'
asbag57
(g78
g59
NtRp2819
(dp2820
g62
(dp2821
sg71
g2806
sg64
(lp2822
g57
(g58
g59
NtRp2823
(dp2824
g62
(dp2825
g70
I3
ssg71
g2819
sg64
(lp2826
g1496
asbasbasbag57
(g73
g59
NtRp2827
(dp2828
g62
(dp2829
sg71
g2550
sg64
(lp2830
g57
(g78
g59
NtRp2831
(dp2832
g62
(dp2833
g82
g83
ssg71
g2827
sg64
(lp2834
S'SCRIPT_NAME'
p2835
asbag57
(g78
g59
NtRp2836
(dp2837
g62
(dp2838
g89
g90
ssg71
g2827
sg64
(lp2839
S':'
asbag57
(g78
g59
NtRp2840
(dp2841
g62
(dp2842
sg71
g2827
sg64
(lp2843
g57
(g58
g59
NtRp2844
(dp2845
g62
(dp2846
g70
I3
ssg71
g2840
sg64
(lp2847
S''
asbasbasbag57
(g73
g59
NtRp2848
(dp2849
g62
(dp2850
sg71
g2550
sg64
(lp2851
g57
(g78
g59
NtRp2852
(dp2853
g62
(dp2854
g82
g83
ssg71
g2848
sg64
(lp2855
S'SERVER_NAME'
p2856
asbag57
(g78
g59
NtRp2857
(dp2858
g62
(dp2859
g89
g90
ssg71
g2848
sg64
(lp2860
S':'
asbag57
(g78
g59
NtRp2861
(dp2862
g62
(dp2863
sg71
g2848
sg64
(lp2864
g57
(g58
g59
NtRp2865
(dp2866
g62
(dp2867
g70
I3
ssg71
g2861
sg64
(lp2868
g1539
asbasbasbag57
(g73
g59
NtRp2869
(dp2870
g62
(dp2871
sg71
g2550
sg64
(lp2872
g57
(g78
g59
NtRp2873
(dp2874
g62
(dp2875
g82
g83
ssg71
g2869
sg64
(lp2876
S'SERVER_PORT'
p2877
asbag57
(g78
g59
NtRp2878
(dp2879
g62
(dp2880
g89
g90
ssg71
g2869
sg64
(lp2881
S':'
asbag57
(g78
g59
NtRp2882
(dp2883
g62
(dp2884
sg71
g2869
sg64
(lp2885
g57
(g58
g59
NtRp2886
(dp2887
g62
(dp2888
g70
I3
ssg71
g2882
sg64
(lp2889
g1561
asbasbasbag57
(g73
g59
NtRp2890
(dp2891
g62
(dp2892
sg71
g2550
sg64
(lp2893
g57
(g78
g59
NtRp2894
(dp2895
g62
(dp2896
g82
g83
ssg71
g2890
sg64
(lp2897
S'SERVER_PROTOCOL'
p2898
asbag57
(g78
g59
NtRp2899
(dp2900
g62
(dp2901
g89
g90
ssg71
g2890
sg64
(lp2902
S':'
asbag57
(g78
g59
NtRp2903
(dp2904
g62
(dp2905
sg71
g2890
sg64
(lp2906
g57
(g58
g59
NtRp2907
(dp2908
g62
(dp2909
g70
I3
ssg71
g2903
sg64
(lp2910
g1583
asbasbasbag57
(g73
g59
NtRp2911
(dp2912
g62
(dp2913
sg71
g2550
sg64
(lp2914
g57
(g78
g59
NtRp2915
(dp2916
g62
(dp2917
g82
g83
ssg71
g2911
sg64
(lp2918
S'SERVER_SOFTWARE'
p2919
asbag57
(g78
g59
NtRp2920
(dp2921
g62
(dp2922
g89
g90
ssg71
g2911
sg64
(lp2923
S':'
asbag57
(g78
g59
NtRp2924
(dp2925
g62
(dp2926
sg71
g2911
sg64
(lp2927
g57
(g58
g59
NtRp2928
(dp2929
g62
(dp2930
g70
I3
ssg71
g2924
sg64
(lp2931
g1605
asbasbasbag57
(g73
g59
NtRp2932
(dp2933
g62
(dp2934
sg71
g2550
sg64
(lp2935
g57
(g78
g59
NtRp2936
(dp2937
g62
(dp2938
g82
g83
ssg71
g2932
sg64
(lp2939
S'wsgi.errors'
p2940
asbag57
(g78
g59
NtRp2941
(dp2942
g62
(dp2943
g89
g90
ssg71
g2932
sg64
(lp2944
S':'
asbag57
(g78
g59
NtRp2945
(dp2946
g62
(dp2947
sg71
g2932
sg64
(lp2948
g57
(g58
g59
NtRp2949
(dp2950
g62
(dp2951
g70
I3
ssg71
g2945
sg64
(lp2952
S"<open file '<stderr>', mode 'w' at 0x012B50D0>"
p2953
asbasbasbag57
(g73
g59
NtRp2954
(dp2955
g62
(dp2956
sg71
g2550
sg64
(lp2957
g57
(g78
g59
NtRp2958
(dp2959
g62
(dp2960
g82
g83
ssg71
g2954
sg64
(lp2961
S'wsgi.file_wrapper'
p2962
asbag57
(g78
g59
NtRp2963
(dp2964
g62
(dp2965
g89
g90
ssg71
g2954
sg64
(lp2966
S':'
asbag57
(g78
g59
NtRp2967
(dp2968
g62
(dp2969
sg71
g2954
sg64
(lp2970
g57
(g58
g59
NtRp2971
(dp2972
g62
(dp2973
g70
I3
ssg71
g2967
sg64
(lp2974
S'<class wsgiref.util.FileWrapper at 0x025383B0>'
p2975
asbasbasbag57
(g73
g59
NtRp2976
(dp2977
g62
(dp2978
sg71
g2550
sg64
(lp2979
g57
(g78
g59
NtRp2980
(dp2981
g62
(dp2982
g82
g83
ssg71
g2976
sg64
(lp2983
S'wsgi.input'
p2984
asbag57
(g78
g59
NtRp2985
(dp2986
g62
(dp2987
g89
g90
ssg71
g2976
sg64
(lp2988
S':'
asbag57
(g78
g59
NtRp2989
(dp2990
g62
(dp2991
sg71
g2976
sg64
(lp2992
g57
(g58
g59
NtRp2993
(dp2994
g62
(dp2995
g70
I3
ssg71
g2989
sg64
(lp2996
S'<cStringIO.StringO object at 0x029ECA00>'
p2997
asbasbasbag57
(g73
g59
NtRp2998
(dp2999
g62
(dp3000
sg71
g2550
sg64
(lp3001
g57
(g78
g59
NtRp3002
(dp3003
g62
(dp3004
g82
g83
ssg71
g2998
sg64
(lp3005
S'wsgi.multiprocess'
p3006
asbag57
(g78
g59
NtRp3007
(dp3008
g62
(dp3009
g89
g90
ssg71
g2998
sg64
(lp3010
S':'
asbag57
(g78
g59
NtRp3011
(dp3012
g62
(dp3013
sg71
g2998
sg64
(lp3014
g57
(g58
g59
NtRp3015
(dp3016
g62
(dp3017
g70
I3
ssg71
g3011
sg64
(lp3018
g100
asbasbasbag57
(g73
g59
NtRp3019
(dp3020
g62
(dp3021
sg71
g2550
sg64
(lp3022
g57
(g78
g59
NtRp3023
(dp3024
g62
(dp3025
g82
g83
ssg71
g3019
sg64
(lp3026
S'wsgi.multithread'
p3027
asbag57
(g78
g59
NtRp3028
(dp3029
g62
(dp3030
g89
g90
ssg71
g3019
sg64
(lp3031
S':'
asbag57
(g78
g59
NtRp3032
(dp3033
g62
(dp3034
sg71
g3019
sg64
(lp3035
g57
(g58
g59
NtRp3036
(dp3037
g62
(dp3038
g70
I3
ssg71
g3032
sg64
(lp3039
g1822
asbasbasbag57
(g73
g59
NtRp3040
(dp3041
g62
(dp3042
sg71
g2550
sg64
(lp3043
g57
(g78
g59
NtRp3044
(dp3045
g62
(dp3046
g82
g83
ssg71
g3040
sg64
(lp3047
S'wsgi.run_once'
p3048
asbag57
(g78
g59
NtRp3049
(dp3050
g62
(dp3051
g89
g90
ssg71
g3040
sg64
(lp3052
S':'
asbag57
(g78
g59
NtRp3053
(dp3054
g62
(dp3055
sg71
g3040
sg64
(lp3056
g57
(g58
g59
NtRp3057
(dp3058
g62
(dp3059
g70
I3
ssg71
g3053
sg64
(lp3060
g100
asbasbasbag57
(g73
g59
NtRp3061
(dp3062
g62
(dp3063
sg71
g2550
sg64
(lp3064
g57
(g78
g59
NtRp3065
(dp3066
g62
(dp3067
g82
g83
ssg71
g3061
sg64
(lp3068
S'wsgi.url_scheme'
p3069
asbag57
(g78
g59
NtRp3070
(dp3071
g62
(dp3072
g89
g90
ssg71
g3061
sg64
(lp3073
S':'
asbag57
(g78
g59
NtRp3074
(dp3075
g62
(dp3076
sg71
g3061
sg64
(lp3077
g57
(g58
g59
NtRp3078
(dp3079
g62
(dp3080
g70
I3
ssg71
g3074
sg64
(lp3081
g1865
asbasbasbag57
(g73
g59
NtRp3082
(dp3083
g62
(dp3084
sg71
g2550
sg64
(lp3085
g57
(g78
g59
NtRp3086
(dp3087
g62
(dp3088
g82
g83
ssg71
g3082
sg64
(lp3089
S'wsgi.version'
p3090
asbag57
(g78
g59
NtRp3091
(dp3092
g62
(dp3093
g89
g90
ssg71
g3082
sg64
(lp3094
S':'
asbag57
(g78
g59
NtRp3095
(dp3096
g62
(dp3097
sg71
g3082
sg64
(lp3098
g57
(g58
g59
NtRp3099
(dp3100
g62
(dp3101
g70
I3
ssg71
g3095
sg64
(lp3102
S'1'
asbasbasbasbasbasbasbasbasbasbasbasbasbsS'frames'
p3103
(lp3104
(dp3105
S'file'
p3106
S'c:\\Users\\rochacbruno\\jul12\\cursojulho12\\web2py\\gluon\\restricted.py'
p3107
sS'dump'
p3108
(dp3109
S'environment'
p3110
S"{'A': <class 'gluon.html.A'>, 'Auth': <class 'gluon.tools.Auth'>, 'B': <class 'gluon.html.B'>, 'BEAUTIFY': <class 'gluon.html.BEAUTIFY'>, 'BODY': <class 'gluon.html.BODY'>, 'BR': <class 'gluon.html.BR'>, 'BUTTON': <class 'gluon.html.BUTTON'>, 'CAT': <class 'gluon.html.CAT'>, 'CENTER': <class 'gluon.html.CENTER'>, 'CKEditor': <class 'applications.ecommerce.modules.plugin_ckeditor.CKEditor'>, ...}"
p3111
sS'ccode'
p3112
S'<code object <module> at 05251578, file "c:\\User...lications\\ecommerce\\views\\appadmin.html", line 1>'
p3113
ssS'lnum'
p3114
I205
sS'lines'
p3115
(dp3116
I200
S'    try:'
p3117
sI201
S'        if type(code) == types.CodeType:'
p3118
sI202
S'            ccode = code'
p3119
sI203
S'        else:'
p3120
sI204
S'            ccode = compile2(code,layer)'
p3121
sI205
S'        exec ccode in environment'
p3122
sI206
S'    except HTTP:'
p3123
sI207
S'        raise'
p3124
sI208
S'    except RestrictedError:'
p3125
sI209
S'        # do not encapsulate (obfuscate) the original RestrictedError'
p3126
ssS'call'
p3127
S'(code=\'response.write(\\\'<!DOCTYPE html>\\\\r\\\\n<html lang="e...r -->\\\\r\\\\n  </body>\\\\r\\\\n</html>\\\\r\\\\n\\\', escape=False)\', environment={\'A\': <class \'gluon.html.A\'>, \'Auth\': <class \'gluon.tools.Auth\'>, \'B\': <class \'gluon.html.B\'>, \'BEAUTIFY\': <class \'gluon.html.BEAUTIFY\'>, \'BODY\': <class \'gluon.html.BODY\'>, \'BR\': <class \'gluon.html.BR\'>, \'BUTTON\': <class \'gluon.html.BUTTON\'>, \'CAT\': <class \'gluon.html.CAT\'>, \'CENTER\': <class \'gluon.html.CENTER\'>, \'CKEditor\': <class \'applications.ecommerce.modules.plugin_ckeditor.CKEditor\'>, ...}, layer=r\'c:\\Users\\rochacbruno\\jul12\\cursojulho12\\web2py\\applications\\ecommerce\\views\\appadmin.html\')'
p3128
sS'func'
p3129
S'restricted'
p3130
sa(dp3131
g3106
S'c:\\Users\\rochacbruno\\jul12\\cursojulho12\\web2py\\applications\\ecommerce\\views\\appadmin.html'
p3132
sg3108
(dp3133
sg3114
I276
sg3115
(dp3134
I267
S'        pass'
p3135
sI268
S"    response.write('\\r\\n        \\r\\n    <h4>', escape=False)"
p3136
sI269
S'    response.write(T("RAM"))'
p3137
sI270
S"    response.write('</h4>\\r\\n    <p>', escape=False)"
p3138
sI271
S'    response.write(T.M("Number of entries: **%s**", ram[\'entries\']))'
p3139
sI272
S"    response.write('</p>\\r\\n    ', escape=False)"
p3140
sI273
S"    if ram['entries'] > 0:"
p3141
sI274
S"        response.write('\\r\\n    <p>', escape=False)"
p3142
sI275
S'        response.write(T.M("Hit Ratio: **%(ratio)s%%** (**%(hits)s** %{hit(hits)} and **%(misses)s** %%{miss(misses)})",'
p3143
sI276
S"        dict( ratio=ram['ratio'], hits=ram['hits'], misses=ram['misses'])))"
p3144
sI277
S"        response.write('\\r\\n    </p>\\r\\n    <p>\\r\\n      ', escape=False)"
p3145
sI278
S'        response.write(T("Size of cache:"))'
p3146
sI279
S"        response.write('\\r\\n      ', escape=False)"
p3147
sI280
S'        if object_stats:'
p3148
sI281
S"            response.write('\\r\\n        ', escape=False)"
p3149
sI282
S'            response.write(T.M("**%(items)s** items, **%(bytes)s** %%{byte(bytes)}", dict(items=ram[\'objects\'], bytes=ram[\'bytes\'])))'
p3150
sI283
S"            response.write('\\r\\n        ', escape=False)"
p3151
sI284
S"            if ram['bytes'] > 524287:"
p3152
sI285
S"                response.write('\\r\\n          ', escape=False)"
p3153
sI286
S'                response.write(T.M("(**%.0d MB**)", ram[\'bytes\'] / 10485576))'
p3154
ssg3127
S'()'
p3155
sg3129
S'<module>'
p3156
sa(dp3157
g3106
S'c:\\Users\\rochacbruno\\jul12\\cursojulho12\\web2py\\gluon\\globals.py'
p3158
sg3108
(dp3159
S'self.body.write'
p3160
S'<built-in method write of cStringIO.StringO object>'
p3161
sS'self.body'
p3162
S'<cStringIO.StringO object>'
p3163
sS'self'
p3164
S"<Storage {'body': <cStringIO.StringO object at 0...lambda> at 0x0510BAF0>, 'view': 'appadmin.html'}>"
p3165
sS'global xmlescape'
p3166
S'<function xmlescape>'
p3167
sS'data'
p3168
S"<lazyT 'Hit Ratio: **%(ratio)s%%** (**%(hits)s** %{hit(hits)} and **%(misses)s** %%{miss(misses)})'>"
p3169
ssg3114
I191
sg3115
(dp3170
I192
S''
sI193
S'    def render(self, *a, **b):'
p3171
sI194
S'        from compileapp import run_view_in'
p3172
sI195
S'        if len(a) > 2:'
p3173
sI186
S''
sI187
S'    def write(self, data, escape=True):'
p3174
sI188
S'        if not escape:'
p3175
sI189
S'            self.body.write(str(data))'
p3176
sI190
S'        else:'
p3177
sI191
S'            self.body.write(xmlescape(data))'
p3178
ssg3127
S"(self=<Storage {'body': <cStringIO.StringO object at 0...lambda> at 0x0510BAF0>, 'view': 'appadmin.html'}>, data=<lazyT 'Hit Ratio: **%(ratio)s%%** (**%(hits)s** %{hit(hits)} and **%(misses)s** %%{miss(misses)})'>, escape=True)"
p3179
sg3129
S'write'
p3180
sa(dp3181
g3106
S'c:\\Users\\rochacbruno\\jul12\\cursojulho12\\web2py\\gluon\\html.py'
p3182
sg3108
(dp3183
S'data'
p3184
S"<lazyT 'Hit Ratio: **%(ratio)s%%** (**%(hits)s** %{hit(hits)} and **%(misses)s** %%{miss(misses)})'>"
p3185
sS'data.xml'
p3186
S"<bound method lazyT.xml of <lazyT 'Hit Ratio: **...it(hits)} and **%(misses)s** %%{miss(misses)})'>>"
p3187
ssg3114
I114
sg3115
(dp3188
I109
S'    :param quote: optional (default False)'
p3189
sI110
S'    """'
p3190
sI111
S''
sI112
S'    # first try the xml function'
p3191
sI113
S"    if hasattr(data,'xml') and callable(data.xml):"
p3192
sI114
S'        return data.xml()'
p3193
sI115
S''
sI116
S'    # otherwise, make it a string'
p3194
sI117
S'    if not isinstance(data, (str, unicode)):'
p3195
sI118
S'        data = str(data)'
p3196
ssg3127
S"(data=<lazyT 'Hit Ratio: **%(ratio)s%%** (**%(hits)s** %{hit(hits)} and **%(misses)s** %%{miss(misses)})'>, quote=True)"
p3197
sg3129
S'xmlescape'
p3198
sa(dp3199
g3106
S'c:\\Users\\rochacbruno\\jul12\\cursojulho12\\web2py\\gluon\\languages.py'
p3200
sg3108
(dp3201
S'builtinstr'
p3202
S"<type 'str'>"
p3203
sS'self'
p3204
S"<lazyT 'Hit Ratio: **%(ratio)s%%** (**%(hits)s** %{hit(hits)} and **%(misses)s** %%{miss(misses)})'>"
p3205
sS'global escape'
p3206
S'<function escape>'
p3207
sS'self.M'
p3208
g1822
ssg3114
I453
sg3115
(dp3209
I448
S''
sI449
S'    def __len__(self):'
p3210
sI450
S'        return len(str(self))'
p3211
sI451
S''
sI452
S'    def xml(self):'
p3212
sI453
S'        return str(self) if self.M else escape(str(self))'
p3213
sI454
S''
sI455
S'    def encode(self, *a, **b):'
p3214
sI456
S'        return str(self).encode(*a, **b)'
p3215
sI457
S''
ssg3127
S"(self=<lazyT 'Hit Ratio: **%(ratio)s%%** (**%(hits)s** %{hit(hits)} and **%(misses)s** %%{miss(misses)})'>)"
p3216
sg3129
S'xml'
p3217
sa(dp3218
g3106
S'c:\\Users\\rochacbruno\\jul12\\cursojulho12\\web2py\\gluon\\languages.py'
p3219
sg3108
(dp3220
S'self.T.apply_filter'
p3221
S'<bound method translator.apply_filter of <gluon.languages.translator object>>'
p3222
sS'self.T.translate'
p3223
S'<bound method translator.translate of <gluon.languages.translator object>>'
p3224
sS'self.m'
p3225
S"'Hit Ratio: **%(ratio)s%%** (**%(hits)s** %{hit(hits)} and **%(misses)s** %%{miss(misses)})'"
p3226
sS'builtinstr'
p3227
S"<type 'str'>"
p3228
sS'self'
p3229
S"<lazyT 'Hit Ratio: **%(ratio)s%%** (**%(hits)s** %{hit(hits)} and **%(misses)s** %%{miss(misses)})'>"
p3230
sS'self.M'
p3231
g1822
sS'self.f'
p3232
S'None'
p3233
sS'self.t'
p3234
S'None'
p3235
sS'self.s'
p3236
S"{'hits': 57, 'misses': 14, 'ratio': 80}"
p3237
sS'self.T'
p3238
S'<gluon.languages.translator object>'
p3239
ssg3114
I413
sg3115
(dp3240
I416
S'    def __eq__(self, other):'
p3241
sI417
S'        return str(self) == str(other)'
p3242
sI408
S''
sI409
S'    def __repr__(self):'
p3243
sI410
S'        return "<lazyT %s>" % (repr(Utf8(self.m)), )'
p3244
sI411
S''
sI412
S'    def __str__(self):'
p3245
sI413
S'        return str(self.T.apply_filter(self.m, self.s, self.f, self.t) if self.M else'
p3246
sI414
S'                   self.T.translate(self.m, self.s))'
p3247
sI415
S''
ssg3127
S"(self=<lazyT 'Hit Ratio: **%(ratio)s%%** (**%(hits)s** %{hit(hits)} and **%(misses)s** %%{miss(misses)})'>)"
p3248
sg3129
g26
sa(dp3249
g3106
S'c:\\Users\\rochacbruno\\jul12\\cursojulho12\\web2py\\gluon\\languages.py'
p3250
sg3108
(dp3251
S'symbols'
p3252
S"{'hits': 57, 'misses': 14, 'ratio': 80}"
p3253
sS'message'
p3254
S"'Hit Ratio: <strong>%(ratio)s%%</strong> (<strong...and <strong>%(misses)s</strong> %%{miss(misses)})'"
p3255
sS'self.params_substitution'
p3256
S'<bound method translator.params_substitution of <gluon.languages.translator object>>'
p3257
sS'self'
p3258
S'<gluon.languages.translator object>'
p3259
ssg3114
I716
sg3115
(dp3260
I711
S'                if not isinstance(symbols, tuple):'
p3261
sI712
S'                    symbols = (symbols,)'
p3262
sI713
S'                symbols = tuple(value if isinstance(value, NUMBERS)'
p3263
sI714
S'                                    else xmlescape(value).translate(ttab_in)'
p3264
sI715
S'                                     for value in symbols)'
p3265
sI716
S'            message = self.params_substitution(message, symbols)'
p3266
sI717
S'        return XML(message.translate(ttab_out))'
p3267
sI718
S''
sI719
S'    def M(self, message, symbols={}, language=None, lazy=None, filter=None, ftag=None):'
p3268
sI720
S'        """ get cached translated markmin-message with inserted parametes'
p3269
ssg3127
S"(self=<gluon.languages.translator object>, message='Hit Ratio: <strong>%(ratio)s%%</strong> (<strong...and <strong>%(misses)s</strong> %%{miss(misses)})', symbols={'hits': 57, 'misses': 14, 'ratio': 80}, filter=None, ftag=None)"
p3270
sg3129
S'apply_filter'
p3271
sa(dp3272
g3106
S'c:\\Users\\rochacbruno\\jul12\\cursojulho12\\web2py\\gluon\\languages.py'
p3273
sg3108
(dp3274
S'symbols'
p3275
S"{'hits': 57, 'misses': 14, 'ratio': 80}"
p3276
sS'message'
p3277
S"'Hit Ratio: <strong>%(ratio)s%%</strong> (<strong...and <strong>%(misses)s</strong> %%{miss(misses)})'"
p3278
ssg3114
I861
sg3115
(dp3279
I864
S''
sI865
S'    def translate(self, message, symbols):'
p3280
sI856
S'            if part == s:'
p3281
sI857
S'                part = regex_plural_dict.sub(sub_dict, s)'
p3282
sI858
S'                if part == s:'
p3283
sI859
S'                    return m.group(0)'
p3284
sI860
S'            return part'
p3285
sI861
S'        message = message % symbols'
p3286
sI862
S'        message = regex_plural.sub(sub_plural, message )'
p3287
sI863
S'        return message'
p3288
ssg3127
S"(self=<gluon.languages.translator object>, message='Hit Ratio: <strong>%(ratio)s%%</strong> (<strong...and <strong>%(misses)s</strong> %%{miss(misses)})', symbols={'hits': 57, 'misses': 14, 'ratio': 80})"
p3289
sg3129
S'params_substitution'
p3290
sasS'pyver'
p3291
S'Python 2.7.2: c:\\Python27\\python.exe'
p3292
sS'session'
p3293
g57
(g58
g59
NtRp3294
(dp3295
g62
(dp3296
sg64
(lp3297
g57
(g66
g59
NtRp3298
(dp3299
g62
(dp3300
g70
I5
ssg71
Nsg64
(lp3301
sbasbsS'etype'
p3302
S"<type 'exceptions.TypeError'>"
p3303
sS'date'
p3304
S'Sun Aug 19 17:02:15 2012'
p3305
sS'response'
p3306
g57
(g58
g59
NtRp3307
(dp3308
g62
(dp3309
sg64
(lp3310
g57
(g66
g59
NtRp3311
(dp3312
g62
(dp3313
g70
I5
ssg71
Nsg64
(lp3314
g57
(g73
g59
NtRp3315
(dp3316
g62
(dp3317
sg71
g3311
sg64
(lp3318
g57
(g78
g59
NtRp3319
(dp3320
g62
(dp3321
g82
g83
ssg71
g3315
sg64
(lp3322
g155
asbag57
(g78
g59
NtRp3323
(dp3324
g62
(dp3325
g89
g90
ssg71
g3315
sg64
(lp3326
S':'
asbag57
(g78
g59
NtRp3327
(dp3328
g62
(dp3329
sg71
g3315
sg64
(lp3330
g57
(g58
g59
NtRp3331
(dp3332
g62
(dp3333
g70
I5
ssg71
g3327
sg64
(lp3334
S'<cStringIO.StringO object at 0x029ECE80>'
p3335
asbasbasbag57
(g73
g59
NtRp3336
(dp3337
g62
(dp3338
sg71
g3311
sg64
(lp3339
g57
(g78
g59
NtRp3340
(dp3341
g62
(dp3342
g82
g83
ssg71
g3336
sg64
(lp3343
g221
asbag57
(g78
g59
NtRp3344
(dp3345
g62
(dp3346
g89
g90
ssg71
g3336
sg64
(lp3347
S':'
asbag57
(g78
g59
NtRp3348
(dp3349
g62
(dp3350
sg71
g3336
sg64
(lp3351
g57
(g58
g59
NtRp3352
(dp3353
g62
(dp3354
g70
I5
ssg71
g3348
sg64
(lp3355
g57
(g66
g59
NtRp3356
(dp3357
g62
(dp3358
g70
I4
ssg71
Nsg64
(lp3359
g57
(g73
g59
NtRp3360
(dp3361
g62
(dp3362
sg71
g3356
sg64
(lp3363
g57
(g78
g59
NtRp3364
(dp3365
g62
(dp3366
g82
g83
ssg71
g3360
sg64
(lp3367
S'session_id_ecommerce'
p3368
asbag57
(g78
g59
NtRp3369
(dp3370
g62
(dp3371
g89
g90
ssg71
g3360
sg64
(lp3372
S':'
asbag57
(g78
g59
NtRp3373
(dp3374
g62
(dp3375
sg71
g3360
sg64
(lp3376
g57
(g58
g59
NtRp3377
(dp3378
g62
(dp3379
g70
I4
ssg71
g3373
sg64
(lp3380
S'127.0.0.1-e711bdf8-ec3b-44d0-bff0-4979548d3b6e'
p3381
ag57
(g66
g59
NtRp3382
(dp3383
g62
(dp3384
g70
I3
ssg71
Nsg64
(lp3385
g57
(g73
g59
NtRp3386
(dp3387
g62
(dp3388
sg71
g3382
sg64
(lp3389
g57
(g78
g59
NtRp3390
(dp3391
g62
(dp3392
g82
g83
ssg71
g3386
sg64
(lp3393
g272
asbag57
(g78
g59
NtRp3394
(dp3395
g62
(dp3396
g89
g90
ssg71
g3386
sg64
(lp3397
S':'
asbag57
(g78
g59
NtRp3398
(dp3399
g62
(dp3400
sg71
g3386
sg64
(lp3401
g57
(g58
g59
NtRp3402
(dp3403
g62
(dp3404
g70
I3
ssg71
g3398
sg64
(lp3405
S''
asbasbasbag57
(g73
g59
NtRp3406
(dp3407
g62
(dp3408
sg71
g3382
sg64
(lp3409
g57
(g78
g59
NtRp3410
(dp3411
g62
(dp3412
g82
g83
ssg71
g3406
sg64
(lp3413
g293
asbag57
(g78
g59
NtRp3414
(dp3415
g62
(dp3416
g89
g90
ssg71
g3406
sg64
(lp3417
S':'
asbag57
(g78
g59
NtRp3418
(dp3419
g62
(dp3420
sg71
g3406
sg64
(lp3421
g57
(g58
g59
NtRp3422
(dp3423
g62
(dp3424
g70
I3
ssg71
g3418
sg64
(lp3425
S''
asbasbasbag57
(g73
g59
NtRp3426
(dp3427
g62
(dp3428
sg71
g3382
sg64
(lp3429
g57
(g78
g59
NtRp3430
(dp3431
g62
(dp3432
g82
g83
ssg71
g3426
sg64
(lp3433
g314
asbag57
(g78
g59
NtRp3434
(dp3435
g62
(dp3436
g89
g90
ssg71
g3426
sg64
(lp3437
S':'
asbag57
(g78
g59
NtRp3438
(dp3439
g62
(dp3440
sg71
g3426
sg64
(lp3441
g57
(g58
g59
NtRp3442
(dp3443
g62
(dp3444
g70
I3
ssg71
g3438
sg64
(lp3445
S''
asbasbasbag57
(g73
g59
NtRp3446
(dp3447
g62
(dp3448
sg71
g3382
sg64
(lp3449
g57
(g78
g59
NtRp3450
(dp3451
g62
(dp3452
g82
g83
ssg71
g3446
sg64
(lp3453
g335
asbag57
(g78
g59
NtRp3454
(dp3455
g62
(dp3456
g89
g90
ssg71
g3446
sg64
(lp3457
S':'
asbag57
(g78
g59
NtRp3458
(dp3459
g62
(dp3460
sg71
g3446
sg64
(lp3461
g57
(g58
g59
NtRp3462
(dp3463
g62
(dp3464
g70
I3
ssg71
g3458
sg64
(lp3465
S''
asbasbasbag57
(g73
g59
NtRp3466
(dp3467
g62
(dp3468
sg71
g3382
sg64
(lp3469
g57
(g78
g59
NtRp3470
(dp3471
g62
(dp3472
g82
g83
ssg71
g3466
sg64
(lp3473
g356
asbag57
(g78
g59
NtRp3474
(dp3475
g62
(dp3476
g89
g90
ssg71
g3466
sg64
(lp3477
S':'
asbag57
(g78
g59
NtRp3478
(dp3479
g62
(dp3480
sg71
g3466
sg64
(lp3481
g57
(g58
g59
NtRp3482
(dp3483
g62
(dp3484
g70
I3
ssg71
g3478
sg64
(lp3485
S''
asbasbasbag57
(g73
g59
NtRp3486
(dp3487
g62
(dp3488
sg71
g3382
sg64
(lp3489
g57
(g78
g59
NtRp3490
(dp3491
g62
(dp3492
g82
g83
ssg71
g3486
sg64
(lp3493
g377
asbag57
(g78
g59
NtRp3494
(dp3495
g62
(dp3496
g89
g90
ssg71
g3486
sg64
(lp3497
S':'
asbag57
(g78
g59
NtRp3498
(dp3499
g62
(dp3500
sg71
g3486
sg64
(lp3501
g57
(g58
g59
NtRp3502
(dp3503
g62
(dp3504
g70
I3
ssg71
g3498
sg64
(lp3505
S'/'
asbasbasbag57
(g73
g59
NtRp3506
(dp3507
g62
(dp3508
sg71
g3382
sg64
(lp3509
g57
(g78
g59
NtRp3510
(dp3511
g62
(dp3512
g82
g83
ssg71
g3506
sg64
(lp3513
g398
asbag57
(g78
g59
NtRp3514
(dp3515
g62
(dp3516
g89
g90
ssg71
g3506
sg64
(lp3517
S':'
asbag57
(g78
g59
NtRp3518
(dp3519
g62
(dp3520
sg71
g3506
sg64
(lp3521
g57
(g58
g59
NtRp3522
(dp3523
g62
(dp3524
g70
I3
ssg71
g3518
sg64
(lp3525
S''
asbasbasbag57
(g73
g59
NtRp3526
(dp3527
g62
(dp3528
sg71
g3382
sg64
(lp3529
g57
(g78
g59
NtRp3530
(dp3531
g62
(dp3532
g82
g83
ssg71
g3526
sg64
(lp3533
g419
asbag57
(g78
g59
NtRp3534
(dp3535
g62
(dp3536
g89
g90
ssg71
g3526
sg64
(lp3537
S':'
asbag57
(g78
g59
NtRp3538
(dp3539
g62
(dp3540
sg71
g3526
sg64
(lp3541
g57
(g58
g59
NtRp3542
(dp3543
g62
(dp3544
g70
I3
ssg71
g3538
sg64
(lp3545
S''
asbasbasbasbasbasbasbasbasbasbasbag57
(g73
g59
NtRp3546
(dp3547
g62
(dp3548
sg71
g3311
sg64
(lp3549
g57
(g78
g59
NtRp3550
(dp3551
g62
(dp3552
g82
g83
ssg71
g3546
sg64
(lp3553
S'delimiters'
p3554
asbag57
(g78
g59
NtRp3555
(dp3556
g62
(dp3557
g89
g90
ssg71
g3546
sg64
(lp3558
S':'
asbag57
(g78
g59
NtRp3559
(dp3560
g62
(dp3561
sg71
g3546
sg64
(lp3562
g57
(g58
g59
NtRp3563
(dp3564
g62
(dp3565
g70
I5
ssg71
g3559
sg64
(lp3566
g57
(g66
g59
NtRp3567
(dp3568
g62
(dp3569
g70
I4
ssg71
Nsg64
(lp3570
g57
(g73
g59
NtRp3571
(dp3572
g62
(dp3573
sg71
g3567
sg64
(lp3574
g57
(g78
g59
NtRp3575
(dp3576
g62
(dp3577
sg71
g3571
sg64
(lp3578
g57
(g58
g59
NtRp3579
(dp3580
g62
(dp3581
g70
I4
ssg71
g3575
sg64
(lp3582
S'{{'
p3583
asbasbasbag57
(g73
g59
NtRp3584
(dp3585
g62
(dp3586
sg71
g3567
sg64
(lp3587
g57
(g78
g59
NtRp3588
(dp3589
g62
(dp3590
sg71
g3584
sg64
(lp3591
g57
(g58
g59
NtRp3592
(dp3593
g62
(dp3594
g70
I4
ssg71
g3588
sg64
(lp3595
S'}}'
p3596
asbasbasbasbasbasbasbag57
(g73
g59
NtRp3597
(dp3598
g62
(dp3599
sg71
g3311
sg64
(lp3600
g57
(g78
g59
NtRp3601
(dp3602
g62
(dp3603
g82
g83
ssg71
g3597
sg64
(lp3604
S'description'
p3605
asbag57
(g78
g59
NtRp3606
(dp3607
g62
(dp3608
g89
g90
ssg71
g3597
sg64
(lp3609
S':'
asbag57
(g78
g59
NtRp3610
(dp3611
g62
(dp3612
sg71
g3597
sg64
(lp3613
g57
(g58
g59
NtRp3614
(dp3615
g62
(dp3616
g70
I5
ssg71
g3610
sg64
(lp3617
S'Ecommerce'
p3618
asbasbasbag57
(g73
g59
NtRp3619
(dp3620
g62
(dp3621
sg71
g3311
sg64
(lp3622
g57
(g78
g59
NtRp3623
(dp3624
g62
(dp3625
g82
g83
ssg71
g3619
sg64
(lp3626
S'files'
p3627
asbag57
(g78
g59
NtRp3628
(dp3629
g62
(dp3630
g89
g90
ssg71
g3619
sg64
(lp3631
S':'
asbag57
(g78
g59
NtRp3632
(dp3633
g62
(dp3634
sg71
g3619
sg64
(lp3635
g57
(g58
g59
NtRp3636
(dp3637
g62
(dp3638
g70
I5
ssg71
g3632
sg64
(lp3639
g57
(g66
g59
NtRp3640
(dp3641
g62
(dp3642
g70
I4
ssg71
Nsg64
(lp3643
sbasbasbasbag57
(g73
g59
NtRp3644
(dp3645
g62
(dp3646
sg71
g3311
sg64
(lp3647
g57
(g78
g59
NtRp3648
(dp3649
g62
(dp3650
g82
g83
ssg71
g3644
sg64
(lp3651
S'flash'
p3652
asbag57
(g78
g59
NtRp3653
(dp3654
g62
(dp3655
g89
g90
ssg71
g3644
sg64
(lp3656
S':'
asbag57
(g78
g59
NtRp3657
(dp3658
g62
(dp3659
sg71
g3644
sg64
(lp3660
g57
(g58
g59
NtRp3661
(dp3662
g62
(dp3663
g70
I5
ssg71
g3657
sg64
(lp3664
S''
asbasbasbag57
(g73
g59
NtRp3665
(dp3666
g62
(dp3667
sg71
g3311
sg64
(lp3668
g57
(g78
g59
NtRp3669
(dp3670
g62
(dp3671
g82
g83
ssg71
g3665
sg64
(lp3672
S'generic_patterns'
p3673
asbag57
(g78
g59
NtRp3674
(dp3675
g62
(dp3676
g89
g90
ssg71
g3665
sg64
(lp3677
S':'
asbag57
(g78
g59
NtRp3678
(dp3679
g62
(dp3680
sg71
g3665
sg64
(lp3681
g57
(g58
g59
NtRp3682
(dp3683
g62
(dp3684
g70
I5
ssg71
g3678
sg64
(lp3685
g57
(g66
g59
NtRp3686
(dp3687
g62
(dp3688
g70
I4
ssg71
Nsg64
(lp3689
g57
(g73
g59
NtRp3690
(dp3691
g62
(dp3692
sg71
g3686
sg64
(lp3693
g57
(g78
g59
NtRp3694
(dp3695
g62
(dp3696
sg71
g3690
sg64
(lp3697
g57
(g58
g59
NtRp3698
(dp3699
g62
(dp3700
g70
I4
ssg71
g3694
sg64
(lp3701
S'*'
asbasbasbasbasbasbasbag57
(g73
g59
NtRp3702
(dp3703
g62
(dp3704
sg71
g3311
sg64
(lp3705
g57
(g78
g59
NtRp3706
(dp3707
g62
(dp3708
g82
g83
ssg71
g3702
sg64
(lp3709
S'headers'
p3710
asbag57
(g78
g59
NtRp3711
(dp3712
g62
(dp3713
g89
g90
ssg71
g3702
sg64
(lp3714
S':'
asbag57
(g78
g59
NtRp3715
(dp3716
g62
(dp3717
sg71
g3702
sg64
(lp3718
g57
(g58
g59
NtRp3719
(dp3720
g62
(dp3721
g70
I5
ssg71
g3715
sg64
(lp3722
g57
(g66
g59
NtRp3723
(dp3724
g62
(dp3725
g70
I4
ssg71
Nsg64
(lp3726
g57
(g73
g59
NtRp3727
(dp3728
g62
(dp3729
sg71
g3723
sg64
(lp3730
g57
(g78
g59
NtRp3731
(dp3732
g62
(dp3733
g82
g83
ssg71
g3727
sg64
(lp3734
S'Cache-Control'
p3735
asbag57
(g78
g59
NtRp3736
(dp3737
g62
(dp3738
g89
g90
ssg71
g3727
sg64
(lp3739
S':'
asbag57
(g78
g59
NtRp3740
(dp3741
g62
(dp3742
sg71
g3727
sg64
(lp3743
g57
(g58
g59
NtRp3744
(dp3745
g62
(dp3746
g70
I4
ssg71
g3740
sg64
(lp3747
S'no-store, no-cache, must-revalidate, post-check=0, pre-check=0'
p3748
asbasbasbag57
(g73
g59
NtRp3749
(dp3750
g62
(dp3751
sg71
g3723
sg64
(lp3752
g57
(g78
g59
NtRp3753
(dp3754
g62
(dp3755
g82
g83
ssg71
g3749
sg64
(lp3756
S'Content-Type'
p3757
asbag57
(g78
g59
NtRp3758
(dp3759
g62
(dp3760
g89
g90
ssg71
g3749
sg64
(lp3761
S':'
asbag57
(g78
g59
NtRp3762
(dp3763
g62
(dp3764
sg71
g3749
sg64
(lp3765
g57
(g58
g59
NtRp3766
(dp3767
g62
(dp3768
g70
I4
ssg71
g3762
sg64
(lp3769
S'text/html; charset=utf-8'
p3770
asbasbasbag57
(g73
g59
NtRp3771
(dp3772
g62
(dp3773
sg71
g3723
sg64
(lp3774
g57
(g78
g59
NtRp3775
(dp3776
g62
(dp3777
g82
g83
ssg71
g3771
sg64
(lp3778
S'Expires'
p3779
asbag57
(g78
g59
NtRp3780
(dp3781
g62
(dp3782
g89
g90
ssg71
g3771
sg64
(lp3783
S':'
asbag57
(g78
g59
NtRp3784
(dp3785
g62
(dp3786
sg71
g3771
sg64
(lp3787
g57
(g58
g59
NtRp3788
(dp3789
g62
(dp3790
g70
I4
ssg71
g3784
sg64
(lp3791
S'Sun, 19 Aug 2012 20:02:15 GMT'
p3792
asbasbasbag57
(g73
g59
NtRp3793
(dp3794
g62
(dp3795
sg71
g3723
sg64
(lp3796
g57
(g78
g59
NtRp3797
(dp3798
g62
(dp3799
g82
g83
ssg71
g3793
sg64
(lp3800
S'Pragma'
p3801
asbag57
(g78
g59
NtRp3802
(dp3803
g62
(dp3804
g89
g90
ssg71
g3793
sg64
(lp3805
S':'
asbag57
(g78
g59
NtRp3806
(dp3807
g62
(dp3808
sg71
g3793
sg64
(lp3809
g57
(g58
g59
NtRp3810
(dp3811
g62
(dp3812
g70
I4
ssg71
g3806
sg64
(lp3813
S'no-cache'
p3814
asbasbasbag57
(g73
g59
NtRp3815
(dp3816
g62
(dp3817
sg71
g3723
sg64
(lp3818
g57
(g78
g59
NtRp3819
(dp3820
g62
(dp3821
g82
g83
ssg71
g3815
sg64
(lp3822
S'X-Powered-By'
p3823
asbag57
(g78
g59
NtRp3824
(dp3825
g62
(dp3826
g89
g90
ssg71
g3815
sg64
(lp3827
S':'
asbag57
(g78
g59
NtRp3828
(dp3829
g62
(dp3830
sg71
g3815
sg64
(lp3831
g57
(g58
g59
NtRp3832
(dp3833
g62
(dp3834
g70
I4
ssg71
g3828
sg64
(lp3835
S'web2py'
p3836
asbasbasbasbasbasbasbag57
(g73
g59
NtRp3837
(dp3838
g62
(dp3839
sg71
g3311
sg64
(lp3840
g57
(g78
g59
NtRp3841
(dp3842
g62
(dp3843
g82
g83
ssg71
g3837
sg64
(lp3844
S'menu'
p3845
asbag57
(g78
g59
NtRp3846
(dp3847
g62
(dp3848
g89
g90
ssg71
g3837
sg64
(lp3849
S':'
asbag57
(g78
g59
NtRp3850
(dp3851
g62
(dp3852
sg71
g3837
sg64
(lp3853
g57
(g58
g59
NtRp3854
(dp3855
g62
(dp3856
g70
I5
ssg71
g3850
sg64
(lp3857
g57
(g66
g59
NtRp3858
(dp3859
g62
(dp3860
g70
I4
ssg71
Nsg64
(lp3861
g57
(g73
g59
NtRp3862
(dp3863
g62
(dp3864
sg71
g3858
sg64
(lp3865
g57
(g78
g59
NtRp3866
(dp3867
g62
(dp3868
sg71
g3862
sg64
(lp3869
g57
(g58
g59
NtRp3870
(dp3871
g62
(dp3872
g70
I4
ssg71
g3866
sg64
(lp3873
g57
(g66
g59
NtRp3874
(dp3875
g62
(dp3876
g70
I3
ssg71
Nsg64
(lp3877
g57
(g73
g59
NtRp3878
(dp3879
g62
(dp3880
sg71
g3874
sg64
(lp3881
g57
(g78
g59
NtRp3882
(dp3883
g62
(dp3884
sg71
g3878
sg64
(lp3885
g57
(g58
g59
NtRp3886
(dp3887
g62
(dp3888
g70
I3
ssg71
g3882
sg64
(lp3889
cgluon.languages
lazyT_unpickle
p3890
(S't\x06\x00\x00\x00design'
tRp3891
asbasbasbag57
(g73
g59
NtRp3892
(dp3893
g62
(dp3894
sg71
g3874
sg64
(lp3895
g57
(g78
g59
NtRp3896
(dp3897
g62
(dp3898
sg71
g3892
sg64
(lp3899
g57
(g58
g59
NtRp3900
(dp3901
g62
(dp3902
g70
I3
ssg71
g3896
sg64
(lp3903
g100
asbasbasbag57
(g73
g59
NtRp3904
(dp3905
g62
(dp3906
sg71
g3874
sg64
(lp3907
g57
(g78
g59
NtRp3908
(dp3909
g62
(dp3910
sg71
g3904
sg64
(lp3911
g57
(g58
g59
NtRp3912
(dp3913
g62
(dp3914
g70
I3
ssg71
g3908
sg64
(lp3915
S'/admin/default/design/ecommerce'
p3916
asbasbasbasbasbasbasbag57
(g73
g59
NtRp3917
(dp3918
g62
(dp3919
sg71
g3858
sg64
(lp3920
g57
(g78
g59
NtRp3921
(dp3922
g62
(dp3923
sg71
g3917
sg64
(lp3924
g57
(g58
g59
NtRp3925
(dp3926
g62
(dp3927
g70
I4
ssg71
g3921
sg64
(lp3928
g57
(g66
g59
NtRp3929
(dp3930
g62
(dp3931
g70
I3
ssg71
Nsg64
(lp3932
g57
(g73
g59
NtRp3933
(dp3934
g62
(dp3935
sg71
g3929
sg64
(lp3936
g57
(g78
g59
NtRp3937
(dp3938
g62
(dp3939
sg71
g3933
sg64
(lp3940
g57
(g58
g59
NtRp3941
(dp3942
g62
(dp3943
g70
I3
ssg71
g3937
sg64
(lp3944
g3890
(S't\x02\x00\x00\x00db'
tRp3945
asbasbasbag57
(g73
g59
NtRp3946
(dp3947
g62
(dp3948
sg71
g3929
sg64
(lp3949
g57
(g78
g59
NtRp3950
(dp3951
g62
(dp3952
sg71
g3946
sg64
(lp3953
g57
(g58
g59
NtRp3954
(dp3955
g62
(dp3956
g70
I3
ssg71
g3950
sg64
(lp3957
g100
asbasbasbag57
(g73
g59
NtRp3958
(dp3959
g62
(dp3960
sg71
g3929
sg64
(lp3961
g57
(g78
g59
NtRp3962
(dp3963
g62
(dp3964
sg71
g3958
sg64
(lp3965
g57
(g58
g59
NtRp3966
(dp3967
g62
(dp3968
g70
I3
ssg71
g3962
sg64
(lp3969
S'/ecommerce/appadmin/index'
p3970
asbasbasbasbasbasbasbag57
(g73
g59
NtRp3971
(dp3972
g62
(dp3973
sg71
g3858
sg64
(lp3974
g57
(g78
g59
NtRp3975
(dp3976
g62
(dp3977
sg71
g3971
sg64
(lp3978
g57
(g58
g59
NtRp3979
(dp3980
g62
(dp3981
g70
I4
ssg71
g3975
sg64
(lp3982
g57
(g66
g59
NtRp3983
(dp3984
g62
(dp3985
g70
I3
ssg71
Nsg64
(lp3986
g57
(g73
g59
NtRp3987
(dp3988
g62
(dp3989
sg71
g3983
sg64
(lp3990
g57
(g78
g59
NtRp3991
(dp3992
g62
(dp3993
sg71
g3987
sg64
(lp3994
g57
(g58
g59
NtRp3995
(dp3996
g62
(dp3997
g70
I3
ssg71
g3991
sg64
(lp3998
g3890
(S't\x05\x00\x00\x00state'
tRp3999
asbasbasbag57
(g73
g59
NtRp4000
(dp4001
g62
(dp4002
sg71
g3983
sg64
(lp4003
g57
(g78
g59
NtRp4004
(dp4005
g62
(dp4006
sg71
g4000
sg64
(lp4007
g57
(g58
g59
NtRp4008
(dp4009
g62
(dp4010
g70
I3
ssg71
g4004
sg64
(lp4011
g100
asbasbasbag57
(g73
g59
NtRp4012
(dp4013
g62
(dp4014
sg71
g3983
sg64
(lp4015
g57
(g78
g59
NtRp4016
(dp4017
g62
(dp4018
sg71
g4012
sg64
(lp4019
g57
(g58
g59
NtRp4020
(dp4021
g62
(dp4022
g70
I3
ssg71
g4016
sg64
(lp4023
S'/ecommerce/appadmin/state'
p4024
asbasbasbasbasbasbasbag57
(g73
g59
NtRp4025
(dp4026
g62
(dp4027
sg71
g3858
sg64
(lp4028
g57
(g78
g59
NtRp4029
(dp4030
g62
(dp4031
sg71
g4025
sg64
(lp4032
g57
(g58
g59
NtRp4033
(dp4034
g62
(dp4035
g70
I4
ssg71
g4029
sg64
(lp4036
g57
(g66
g59
NtRp4037
(dp4038
g62
(dp4039
g70
I3
ssg71
Nsg64
(lp4040
g57
(g73
g59
NtRp4041
(dp4042
g62
(dp4043
sg71
g4037
sg64
(lp4044
g57
(g78
g59
NtRp4045
(dp4046
g62
(dp4047
sg71
g4041
sg64
(lp4048
g57
(g58
g59
NtRp4049
(dp4050
g62
(dp4051
g70
I3
ssg71
g4045
sg64
(lp4052
g3890
(S't\x05\x00\x00\x00cache'
tRp4053
asbasbasbag57
(g73
g59
NtRp4054
(dp4055
g62
(dp4056
sg71
g4037
sg64
(lp4057
g57
(g78
g59
NtRp4058
(dp4059
g62
(dp4060
sg71
g4054
sg64
(lp4061
g57
(g58
g59
NtRp4062
(dp4063
g62
(dp4064
g70
I3
ssg71
g4058
sg64
(lp4065
g100
asbasbasbag57
(g73
g59
NtRp4066
(dp4067
g62
(dp4068
sg71
g4037
sg64
(lp4069
g57
(g78
g59
NtRp4070
(dp4071
g62
(dp4072
sg71
g4066
sg64
(lp4073
g57
(g58
g59
NtRp4074
(dp4075
g62
(dp4076
g70
I3
ssg71
g4070
sg64
(lp4077
S'/ecommerce/appadmin/ccache'
p4078
asbasbasbasbasbasbasbasbasbasbasbag57
(g73
g59
NtRp4079
(dp4080
g62
(dp4081
sg71
g3311
sg64
(lp4082
g57
(g78
g59
NtRp4083
(dp4084
g62
(dp4085
g82
g83
ssg71
g4079
sg64
(lp4086
S'meta'
p4087
asbag57
(g78
g59
NtRp4088
(dp4089
g62
(dp4090
g89
g90
ssg71
g4079
sg64
(lp4091
S':'
asbag57
(g78
g59
NtRp4092
(dp4093
g62
(dp4094
sg71
g4079
sg64
(lp4095
g57
(g58
g59
NtRp4096
(dp4097
g62
(dp4098
g70
I5
ssg71
g4092
sg64
(lp4099
g57
(g66
g59
NtRp4100
(dp4101
g62
(dp4102
g70
I4
ssg71
Nsg64
(lp4103
sbasbasbasbag57
(g73
g59
NtRp4104
(dp4105
g62
(dp4106
sg71
g3311
sg64
(lp4107
g57
(g78
g59
NtRp4108
(dp4109
g62
(dp4110
g82
g83
ssg71
g4104
sg64
(lp4111
S'postprocessing'
p4112
asbag57
(g78
g59
NtRp4113
(dp4114
g62
(dp4115
g89
g90
ssg71
g4104
sg64
(lp4116
S':'
asbag57
(g78
g59
NtRp4117
(dp4118
g62
(dp4119
sg71
g4104
sg64
(lp4120
g57
(g58
g59
NtRp4121
(dp4122
g62
(dp4123
g70
I5
ssg71
g4117
sg64
(lp4124
g57
(g66
g59
NtRp4125
(dp4126
g62
(dp4127
g70
I4
ssg71
Nsg64
(lp4128
sbasbasbasbag57
(g73
g59
NtRp4129
(dp4130
g62
(dp4131
sg71
g3311
sg64
(lp4132
g57
(g78
g59
NtRp4133
(dp4134
g62
(dp4135
g82
g83
ssg71
g4129
sg64
(lp4136
S'session_filename'
p4137
asbag57
(g78
g59
NtRp4138
(dp4139
g62
(dp4140
g89
g90
ssg71
g4129
sg64
(lp4141
S':'
asbag57
(g78
g59
NtRp4142
(dp4143
g62
(dp4144
sg71
g4129
sg64
(lp4145
g57
(g58
g59
NtRp4146
(dp4147
g62
(dp4148
g70
I5
ssg71
g4142
sg64
(lp4149
S'c:\\Users\\rochacbruno\\jul12\\cursojulho12\\web2py\\applications\\ecommerce\\sessions\\127.0.0.1-e711bdf8-ec3b-44d0-bff0-4979548d3b6e'
p4150
asbasbasbag57
(g73
g59
NtRp4151
(dp4152
g62
(dp4153
sg71
g3311
sg64
(lp4154
g57
(g78
g59
NtRp4155
(dp4156
g62
(dp4157
g82
g83
ssg71
g4151
sg64
(lp4158
S'session_id'
p4159
asbag57
(g78
g59
NtRp4160
(dp4161
g62
(dp4162
g89
g90
ssg71
g4151
sg64
(lp4163
S':'
asbag57
(g78
g59
NtRp4164
(dp4165
g62
(dp4166
sg71
g4151
sg64
(lp4167
g57
(g58
g59
NtRp4168
(dp4169
g62
(dp4170
g70
I5
ssg71
g4164
sg64
(lp4171
g3381
asbasbasbag57
(g73
g59
NtRp4172
(dp4173
g62
(dp4174
sg71
g3311
sg64
(lp4175
g57
(g78
g59
NtRp4176
(dp4177
g62
(dp4178
g82
g83
ssg71
g4172
sg64
(lp4179
S'session_id_name'
p4180
asbag57
(g78
g59
NtRp4181
(dp4182
g62
(dp4183
g89
g90
ssg71
g4172
sg64
(lp4184
S':'
asbag57
(g78
g59
NtRp4185
(dp4186
g62
(dp4187
sg71
g4172
sg64
(lp4188
g57
(g58
g59
NtRp4189
(dp4190
g62
(dp4191
g70
I5
ssg71
g4185
sg64
(lp4192
g3368
asbasbasbag57
(g73
g59
NtRp4193
(dp4194
g62
(dp4195
sg71
g3311
sg64
(lp4196
g57
(g78
g59
NtRp4197
(dp4198
g62
(dp4199
g82
g83
ssg71
g4193
sg64
(lp4200
S'session_new'
p4201
asbag57
(g78
g59
NtRp4202
(dp4203
g62
(dp4204
g89
g90
ssg71
g4193
sg64
(lp4205
S':'
asbag57
(g78
g59
NtRp4206
(dp4207
g62
(dp4208
sg71
g4193
sg64
(lp4209
g57
(g58
g59
NtRp4210
(dp4211
g62
(dp4212
g70
I5
ssg71
g4206
sg64
(lp4213
g1822
asbasbasbag57
(g73
g59
NtRp4214
(dp4215
g62
(dp4216
sg71
g3311
sg64
(lp4217
g57
(g78
g59
NtRp4218
(dp4219
g62
(dp4220
g82
g83
ssg71
g4214
sg64
(lp4221
S'status'
p4222
asbag57
(g78
g59
NtRp4223
(dp4224
g62
(dp4225
g89
g90
ssg71
g4214
sg64
(lp4226
S':'
asbag57
(g78
g59
NtRp4227
(dp4228
g62
(dp4229
sg71
g4214
sg64
(lp4230
g57
(g58
g59
NtRp4231
(dp4232
g62
(dp4233
g70
I5
ssg71
g4227
sg64
(lp4234
S'200'
p4235
asbasbasbag57
(g73
g59
NtRp4236
(dp4237
g62
(dp4238
sg71
g3311
sg64
(lp4239
g57
(g78
g59
NtRp4240
(dp4241
g62
(dp4242
g82
g83
ssg71
g4236
sg64
(lp4243
S'title'
p4244
asbag57
(g78
g59
NtRp4245
(dp4246
g62
(dp4247
g89
g90
ssg71
g4236
sg64
(lp4248
S':'
asbag57
(g78
g59
NtRp4249
(dp4250
g62
(dp4251
sg71
g4236
sg64
(lp4252
g57
(g58
g59
NtRp4253
(dp4254
g62
(dp4255
g70
I5
ssg71
g4249
sg64
(lp4256
S'Ecommerce do Bruno | CursodePython.com.br'
p4257
asbasbasbag57
(g73
g59
NtRp4258
(dp4259
g62
(dp4260
sg71
g3311
sg64
(lp4261
g57
(g78
g59
NtRp4262
(dp4263
g62
(dp4264
g82
g83
ssg71
g4258
sg64
(lp4265
g2465
asbag57
(g78
g59
NtRp4266
(dp4267
g62
(dp4268
g89
g90
ssg71
g4258
sg64
(lp4269
S':'
asbag57
(g78
g59
NtRp4270
(dp4271
g62
(dp4272
sg71
g4258
sg64
(lp4273
g57
(g58
g59
NtRp4274
(dp4275
g62
(dp4276
g70
I5
ssg71
g4270
sg64
(lp4277
g2478
asbasbasbag57
(g73
g59
NtRp4278
(dp4279
g62
(dp4280
sg71
g3311
sg64
(lp4281
g57
(g78
g59
NtRp4282
(dp4283
g62
(dp4284
g82
g83
ssg71
g4278
sg64
(lp4285
S'view'
p4286
asbag57
(g78
g59
NtRp4287
(dp4288
g62
(dp4289
g89
g90
ssg71
g4278
sg64
(lp4290
S':'
asbag57
(g78
g59
NtRp4291
(dp4292
g62
(dp4293
sg71
g4278
sg64
(lp4294
g57
(g58
g59
NtRp4295
(dp4296
g62
(dp4297
g70
I5
ssg71
g4291
sg64
(lp4298
S'appadmin.html'
p4299
asbasbasbasbasbsS'locals'
p4300
(dp4301
S'symbols'
p4302
S"{'hits': 57, 'misses': 14, 'ratio': 80}"
p4303
sS'message'
p4304
S"'Hit Ratio: <strong>%(ratio)s%%</strong> (<strong...and <strong>%(misses)s</strong> %%{miss(misses)})'"
p4305
sS'sub_plural'
p4306
S'<function sub_plural>'
p4307
sS'self'
p4308
S'<gluon.languages.translator object>'
p4309
sssS'traceback'
p4310
S'Traceback (most recent call last):\n  File "c:\\Users\\rochacbruno\\jul12\\cursojulho12\\web2py\\gluon\\restricted.py", line 205, in restricted\n    exec ccode in environment\n  File "c:\\Users\\rochacbruno\\jul12\\cursojulho12\\web2py\\applications\\ecommerce\\views\\appadmin.html", line 276, in <module>\n  File "c:\\Users\\rochacbruno\\jul12\\cursojulho12\\web2py\\gluon\\globals.py", line 191, in write\n    self.body.write(xmlescape(data))\n  File "c:\\Users\\rochacbruno\\jul12\\cursojulho12\\web2py\\gluon\\html.py", line 114, in xmlescape\n    return data.xml()\n  File "c:\\Users\\rochacbruno\\jul12\\cursojulho12\\web2py\\gluon\\languages.py", line 453, in xml\n    return str(self) if self.M else escape(str(self))\n  File "c:\\Users\\rochacbruno\\jul12\\cursojulho12\\web2py\\gluon\\languages.py", line 413, in __str__\n    return str(self.T.apply_filter(self.m, self.s, self.f, self.t) if self.M else\n  File "c:\\Users\\rochacbruno\\jul12\\cursojulho12\\web2py\\gluon\\languages.py", line 716, in apply_filter\n    message = self.params_substitution(message, symbols)\n  File "c:\\Users\\rochacbruno\\jul12\\cursojulho12\\web2py\\gluon\\languages.py", line 861, in params_substitution\n    message = message % symbols\nTypeError: not enough arguments for format string\n'
p4311
s.