(dp1
S'output'
p2
S"<class 'sqlite3.IntegrityError'> product.qtd may not be NULL"
p3
sS'layer'
p4
S'c:\\Users\\rochacbruno\\jul12\\cursojulho12\\web2py\\applications\\ecommerce\\controllers/product.py'
p5
sS'code'
p6
S'# coding: utf-8\n\ndef show():\n    # pegar produto no banco de dados\n    # buscar pelo slug\n    # acessar api do twitter\n    pass\n\n\ndef search():\n    # receber parametros e efetuar busca\n    pass\n\n# @auth.requires_login()\ndef list():\n    # exibir todos os produtos\n    # apenas para admin\n\n    # DEFINITION OF FIELDS AND VIRTUAL FIELDS\n    db.product.tax_price = Field.Virtual(lambda row: row.product.unit_price * origins.get(row.product.origin, 1))\n    db.product.edit = Field.Virtual(lambda row: A("Edit", _href=URL(\'edit\', args=row.product.id)))\n    query = db.product.id > 2\n    rows = db(query).select()\n    headers = ["Name", "Unit Price", "Tax", "Edit"]\n    fields = [\'name\', \'unit_price\', \'tax_price\', "edit"]\n\n    #  HARD WAY\n    table = TABLE()\n\n    thead = THEAD(TR())\n    for header in headers:\n        thead[0].append(TD(B(header)))\n    table.append(thead)\n\n    for row in rows:\n        tr = TR()\n        for field in fields:\n            tr.append(row[field])\n        table.append(tr)\n    table["_class"] = "table table-striped table-bordered table-condensed"\n\n    # table.append(TR(TD(*[A(p, _href=URL(), _class="btn") for p in xrange(pages)], _colspan=4)))\n\n    # # EASY WAY\n    # table = TABLE(THEAD(TR(*[B(header) for header in headers])),\n    #           TBODY(*[TR(*[TD(row[field]) for field in fields]) for row in rows]))\n    # table["_class"] = "table table-striped table-bordered table-condensed"\n\n    # # MAGIC WAY\n    # db.product.category.represent = lambda value, row: value.name\n    # tax_price = lambda row: row.unit_price * origins.get(row.origin, 1)\n    # links = [dict(header=\'Tax\', body=tax_price)]\n    # table = SQLFORM.grid(query,\n    #                      user_signature=False,\n    #                      links=links\n    #                      )\n\n    return dict(table=table)\n\n\ndef edit():\n    # pegar produto pelo id ou slug\n    # criar formulario de edicao\n    # apenas para admin\n    pass\n    \n    # pid = request.args(0)\n    # form = SQLFORM(db.product, pid, formstyle="divs")\n    # button = form.elements(\'input[type=submit]\')[0]\n    # button["_value"] = "banana"\n    # if form.process().accepted:\n    #     redirect(URL(\'list\'))\n    # return form\n\n\n@auth.requires_login()\n@auth.requires_membership("admin")\ndef new():\n    if request.vars:\n        name = request.vars.name\n        description = request.vars.description\n        db.product.insert(name=name, description=description)\n        db.commit()   \n    # form para add novo produto\n    # apenas para admin\n    form = "NOVO PRODUTO"\n    return dict(form=form)\n\n\n\n\n# def grid(query,\n#          fields=None,\n#          field_id=None,\n#          left=None,\n#          headers={},\n#          orderby=None,\n#          groupby=None,\n#          searchable=True,\n#          sortable=True,\n#          paginate=20,\n#          deletable=True,\n#          editable=True,\n#          details=True,\n#          selectable=None,\n#          create=True,\n#          csv=True,\n#          links=None,\n#          links_in_grid=True,\n#          upload = \'<default>\',\n#          args=[],\n#          user_signature = True,\n#          maxtextlengths={},\n#          maxtextlength=20,\n#          onvalidation=None,\n#          oncreate=None,\n#          onupdate=None,\n#          ondelete=None,\n#          sorter_icons=(XML(\'&#x2191;\'),XML(\'&#x2193;\')),\n#          ui = \'web2py\',\n#          showbuttontext=True,\n#          _class="web2py_grid",\n#          formname=\'web2py_grid\',\n#          search_widget=\'default\',\n#          ignore_rw = False,\n#          formstyle = \'table3cols\',\n#          exportclasses = None,\n#          formargs={},\n#          createargs={},\n#          editargs={},\n#          viewargs={},\n#         ):\nresponse._vars=response._caller(new)\n'
p7
sS'snapshot'
p8
(dp9
S'exception'
p10
(dp11
S'__module__'
p12
S"'sqlite3'"
p13
sS'__getslice__'
p14
S"<method-wrapper '__getslice__' of IntegrityError object>"
p15
sS'__str__'
p16
S"<method-wrapper '__str__' of IntegrityError object>"
p17
sS'__reduce__'
p18
S'<built-in method __reduce__ of IntegrityError object>'
p19
sS'__dict__'
p20
S'{}'
p21
sS'__sizeof__'
p22
S'<built-in method __sizeof__ of IntegrityError object>'
p23
sS'__weakref__'
p24
S'None'
p25
sS'__init__'
p26
S"<method-wrapper '__init__' of IntegrityError object>"
p27
sS'__setattr__'
p28
S"<method-wrapper '__setattr__' of IntegrityError object>"
p29
sS'__reduce_ex__'
p30
S'<built-in method __reduce_ex__ of IntegrityError object>'
p31
sS'__new__'
p32
S'<built-in method __new__ of type object>'
p33
sS'__format__'
p34
S'<built-in method __format__ of IntegrityError object>'
p35
sS'__class__'
p36
S"<class 'sqlite3.IntegrityError'>"
p37
sS'__doc__'
p38
S'None'
p39
sS'__getitem__'
p40
S"<method-wrapper '__getitem__' of IntegrityError object>"
p41
sS'__setstate__'
p42
S'<built-in method __setstate__ of IntegrityError object>'
p43
sS'__getattribute__'
p44
S"<method-wrapper '__getattribute__' of IntegrityError object>"
p45
sS'args'
p46
S"('product.qtd may not be NULL',)"
p47
sS'__subclasshook__'
p48
S'<built-in method __subclasshook__ of type object>'
p49
sS'__unicode__'
p50
S'<built-in method __unicode__ of IntegrityError object>'
p51
sS'__delattr__'
p52
S"<method-wrapper '__delattr__' of IntegrityError object>"
p53
sS'__repr__'
p54
S"<method-wrapper '__repr__' of IntegrityError object>"
p55
sS'__hash__'
p56
S"<method-wrapper '__hash__' of IntegrityError object>"
p57
ssS'evalue'
p58
S'product.qtd may not be NULL'
p59
sS'request'
p60
ccopy_reg
_reconstructor
p61
(cgluon.html
BEAUTIFY
p62
c__builtin__
object
p63
NtRp64
(dp65
S'attributes'
p66
(dp67
sS'components'
p68
(lp69
g61
(cgluon.html
TABLE
p70
g63
NtRp71
(dp72
g66
(dp73
S'level'
p74
I5
ssS'parent'
p75
Nsg68
(lp76
g61
(cgluon.html
TR
p77
g63
NtRp78
(dp79
g66
(dp80
sg75
g71
sg68
(lp81
g61
(cgluon.html
TD
p82
g63
NtRp83
(dp84
g66
(dp85
S'_style'
p86
S'font-weight:bold;vertical-align:top'
p87
ssg75
g78
sg68
(lp88
S'ajax'
p89
asbag61
(g82
g63
NtRp90
(dp91
g66
(dp92
S'_valign'
p93
S'top'
p94
ssg75
g78
sg68
(lp95
S':'
asbag61
(g82
g63
NtRp96
(dp97
g66
(dp98
sg75
g78
sg68
(lp99
g61
(g62
g63
NtRp100
(dp101
g66
(dp102
g74
I5
ssg75
g96
sg68
(lp103
S'False'
p104
asbasbasbag61
(g77
g63
NtRp105
(dp106
g66
(dp107
sg75
g71
sg68
(lp108
g61
(g82
g63
NtRp109
(dp110
g66
(dp111
g86
g87
ssg75
g105
sg68
(lp112
S'application'
p113
asbag61
(g82
g63
NtRp114
(dp115
g66
(dp116
g93
g94
ssg75
g105
sg68
(lp117
S':'
asbag61
(g82
g63
NtRp118
(dp119
g66
(dp120
sg75
g105
sg68
(lp121
g61
(g62
g63
NtRp122
(dp123
g66
(dp124
g74
I5
ssg75
g118
sg68
(lp125
S'ecommerce'
p126
asbasbasbag61
(g77
g63
NtRp127
(dp128
g66
(dp129
sg75
g71
sg68
(lp130
g61
(g82
g63
NtRp131
(dp132
g66
(dp133
g86
g87
ssg75
g127
sg68
(lp134
g46
asbag61
(g82
g63
NtRp135
(dp136
g66
(dp137
g93
g94
ssg75
g127
sg68
(lp138
S':'
asbag61
(g82
g63
NtRp139
(dp140
g66
(dp141
sg75
g127
sg68
(lp142
g61
(g62
g63
NtRp143
(dp144
g66
(dp145
g74
I5
ssg75
g139
sg68
(lp146
g61
(g70
g63
NtRp147
(dp148
g66
(dp149
g74
I4
ssg75
Nsg68
(lp150
sbasbasbasbag61
(g77
g63
NtRp151
(dp152
g66
(dp153
sg75
g71
sg68
(lp154
g61
(g82
g63
NtRp155
(dp156
g66
(dp157
g86
g87
ssg75
g151
sg68
(lp158
S'body'
p159
asbag61
(g82
g63
NtRp160
(dp161
g66
(dp162
g93
g94
ssg75
g151
sg68
(lp163
S':'
asbag61
(g82
g63
NtRp164
(dp165
g66
(dp166
sg75
g151
sg68
(lp167
g61
(g62
g63
NtRp168
(dp169
g66
(dp170
g74
I5
ssg75
g164
sg68
(lp171
S"<open file '<fdopen>', mode 'w+b' at 0x05A57758>"
p172
asbasbasbag61
(g77
g63
NtRp173
(dp174
g66
(dp175
sg75
g71
sg68
(lp176
g61
(g82
g63
NtRp177
(dp178
g66
(dp179
g86
g87
ssg75
g173
sg68
(lp180
S'client'
p181
asbag61
(g82
g63
NtRp182
(dp183
g66
(dp184
g93
g94
ssg75
g173
sg68
(lp185
S':'
asbag61
(g82
g63
NtRp186
(dp187
g66
(dp188
sg75
g173
sg68
(lp189
g61
(g62
g63
NtRp190
(dp191
g66
(dp192
g74
I5
ssg75
g186
sg68
(lp193
S'127.0.0.1'
p194
asbasbasbag61
(g77
g63
NtRp195
(dp196
g66
(dp197
sg75
g71
sg68
(lp198
g61
(g82
g63
NtRp199
(dp200
g66
(dp201
g86
g87
ssg75
g195
sg68
(lp202
S'controller'
p203
asbag61
(g82
g63
NtRp204
(dp205
g66
(dp206
g93
g94
ssg75
g195
sg68
(lp207
S':'
asbag61
(g82
g63
NtRp208
(dp209
g66
(dp210
sg75
g195
sg68
(lp211
g61
(g62
g63
NtRp212
(dp213
g66
(dp214
g74
I5
ssg75
g208
sg68
(lp215
S'product'
p216
asbasbasbag61
(g77
g63
NtRp217
(dp218
g66
(dp219
sg75
g71
sg68
(lp220
g61
(g82
g63
NtRp221
(dp222
g66
(dp223
g86
g87
ssg75
g217
sg68
(lp224
S'cookies'
p225
asbag61
(g82
g63
NtRp226
(dp227
g66
(dp228
g93
g94
ssg75
g217
sg68
(lp229
S':'
asbag61
(g82
g63
NtRp230
(dp231
g66
(dp232
sg75
g217
sg68
(lp233
g61
(g62
g63
NtRp234
(dp235
g66
(dp236
g74
I5
ssg75
g230
sg68
(lp237
g61
(g70
g63
NtRp238
(dp239
g66
(dp240
g74
I4
ssg75
Nsg68
(lp241
g61
(g77
g63
NtRp242
(dp243
g66
(dp244
sg75
g238
sg68
(lp245
g61
(g82
g63
NtRp246
(dp247
g66
(dp248
g86
g87
ssg75
g242
sg68
(lp249
S'session_id_admin'
p250
asbag61
(g82
g63
NtRp251
(dp252
g66
(dp253
g93
g94
ssg75
g242
sg68
(lp254
S':'
asbag61
(g82
g63
NtRp255
(dp256
g66
(dp257
sg75
g242
sg68
(lp258
g61
(g62
g63
NtRp259
(dp260
g66
(dp261
g74
I4
ssg75
g255
sg68
(lp262
S'127.0.0.1-4873ed00-b716-4b13-a1bb-7fdaa43562f3'
p263
ag61
(g70
g63
NtRp264
(dp265
g66
(dp266
g74
I3
ssg75
Nsg68
(lp267
g61
(g77
g63
NtRp268
(dp269
g66
(dp270
sg75
g264
sg68
(lp271
g61
(g82
g63
NtRp272
(dp273
g66
(dp274
g86
g87
ssg75
g268
sg68
(lp275
S'comment'
p276
asbag61
(g82
g63
NtRp277
(dp278
g66
(dp279
g93
g94
ssg75
g268
sg68
(lp280
S':'
asbag61
(g82
g63
NtRp281
(dp282
g66
(dp283
sg75
g268
sg68
(lp284
g61
(g62
g63
NtRp285
(dp286
g66
(dp287
g74
I3
ssg75
g281
sg68
(lp288
S''
asbasbasbag61
(g77
g63
NtRp289
(dp290
g66
(dp291
sg75
g264
sg68
(lp292
g61
(g82
g63
NtRp293
(dp294
g66
(dp295
g86
g87
ssg75
g289
sg68
(lp296
S'domain'
p297
asbag61
(g82
g63
NtRp298
(dp299
g66
(dp300
g93
g94
ssg75
g289
sg68
(lp301
S':'
asbag61
(g82
g63
NtRp302
(dp303
g66
(dp304
sg75
g289
sg68
(lp305
g61
(g62
g63
NtRp306
(dp307
g66
(dp308
g74
I3
ssg75
g302
sg68
(lp309
S''
asbasbasbag61
(g77
g63
NtRp310
(dp311
g66
(dp312
sg75
g264
sg68
(lp313
g61
(g82
g63
NtRp314
(dp315
g66
(dp316
g86
g87
ssg75
g310
sg68
(lp317
S'expires'
p318
asbag61
(g82
g63
NtRp319
(dp320
g66
(dp321
g93
g94
ssg75
g310
sg68
(lp322
S':'
asbag61
(g82
g63
NtRp323
(dp324
g66
(dp325
sg75
g310
sg68
(lp326
g61
(g62
g63
NtRp327
(dp328
g66
(dp329
g74
I3
ssg75
g323
sg68
(lp330
S''
asbasbasbag61
(g77
g63
NtRp331
(dp332
g66
(dp333
sg75
g264
sg68
(lp334
g61
(g82
g63
NtRp335
(dp336
g66
(dp337
g86
g87
ssg75
g331
sg68
(lp338
S'httponly'
p339
asbag61
(g82
g63
NtRp340
(dp341
g66
(dp342
g93
g94
ssg75
g331
sg68
(lp343
S':'
asbag61
(g82
g63
NtRp344
(dp345
g66
(dp346
sg75
g331
sg68
(lp347
g61
(g62
g63
NtRp348
(dp349
g66
(dp350
g74
I3
ssg75
g344
sg68
(lp351
S''
asbasbasbag61
(g77
g63
NtRp352
(dp353
g66
(dp354
sg75
g264
sg68
(lp355
g61
(g82
g63
NtRp356
(dp357
g66
(dp358
g86
g87
ssg75
g352
sg68
(lp359
S'max-age'
p360
asbag61
(g82
g63
NtRp361
(dp362
g66
(dp363
g93
g94
ssg75
g352
sg68
(lp364
S':'
asbag61
(g82
g63
NtRp365
(dp366
g66
(dp367
sg75
g352
sg68
(lp368
g61
(g62
g63
NtRp369
(dp370
g66
(dp371
g74
I3
ssg75
g365
sg68
(lp372
S''
asbasbasbag61
(g77
g63
NtRp373
(dp374
g66
(dp375
sg75
g264
sg68
(lp376
g61
(g82
g63
NtRp377
(dp378
g66
(dp379
g86
g87
ssg75
g373
sg68
(lp380
S'path'
p381
asbag61
(g82
g63
NtRp382
(dp383
g66
(dp384
g93
g94
ssg75
g373
sg68
(lp385
S':'
asbag61
(g82
g63
NtRp386
(dp387
g66
(dp388
sg75
g373
sg68
(lp389
g61
(g62
g63
NtRp390
(dp391
g66
(dp392
g74
I3
ssg75
g386
sg68
(lp393
S''
asbasbasbag61
(g77
g63
NtRp394
(dp395
g66
(dp396
sg75
g264
sg68
(lp397
g61
(g82
g63
NtRp398
(dp399
g66
(dp400
g86
g87
ssg75
g394
sg68
(lp401
S'secure'
p402
asbag61
(g82
g63
NtRp403
(dp404
g66
(dp405
g93
g94
ssg75
g394
sg68
(lp406
S':'
asbag61
(g82
g63
NtRp407
(dp408
g66
(dp409
sg75
g394
sg68
(lp410
g61
(g62
g63
NtRp411
(dp412
g66
(dp413
g74
I3
ssg75
g407
sg68
(lp414
S''
asbasbasbag61
(g77
g63
NtRp415
(dp416
g66
(dp417
sg75
g264
sg68
(lp418
g61
(g82
g63
NtRp419
(dp420
g66
(dp421
g86
g87
ssg75
g415
sg68
(lp422
S'version'
p423
asbag61
(g82
g63
NtRp424
(dp425
g66
(dp426
g93
g94
ssg75
g415
sg68
(lp427
S':'
asbag61
(g82
g63
NtRp428
(dp429
g66
(dp430
sg75
g415
sg68
(lp431
g61
(g62
g63
NtRp432
(dp433
g66
(dp434
g74
I3
ssg75
g428
sg68
(lp435
S''
asbasbasbasbasbasbasbag61
(g77
g63
NtRp436
(dp437
g66
(dp438
sg75
g238
sg68
(lp439
g61
(g82
g63
NtRp440
(dp441
g66
(dp442
g86
g87
ssg75
g436
sg68
(lp443
S'session_id_ecommerce'
p444
asbag61
(g82
g63
NtRp445
(dp446
g66
(dp447
g93
g94
ssg75
g436
sg68
(lp448
S':'
asbag61
(g82
g63
NtRp449
(dp450
g66
(dp451
sg75
g436
sg68
(lp452
g61
(g62
g63
NtRp453
(dp454
g66
(dp455
g74
I4
ssg75
g449
sg68
(lp456
S'127.0.0.1-0fe94d39-4aae-427f-bfbc-597a65cd32c1'
p457
ag61
(g70
g63
NtRp458
(dp459
g66
(dp460
g74
I3
ssg75
Nsg68
(lp461
g61
(g77
g63
NtRp462
(dp463
g66
(dp464
sg75
g458
sg68
(lp465
g61
(g82
g63
NtRp466
(dp467
g66
(dp468
g86
g87
ssg75
g462
sg68
(lp469
g276
asbag61
(g82
g63
NtRp470
(dp471
g66
(dp472
g93
g94
ssg75
g462
sg68
(lp473
S':'
asbag61
(g82
g63
NtRp474
(dp475
g66
(dp476
sg75
g462
sg68
(lp477
g61
(g62
g63
NtRp478
(dp479
g66
(dp480
g74
I3
ssg75
g474
sg68
(lp481
S''
asbasbasbag61
(g77
g63
NtRp482
(dp483
g66
(dp484
sg75
g458
sg68
(lp485
g61
(g82
g63
NtRp486
(dp487
g66
(dp488
g86
g87
ssg75
g482
sg68
(lp489
g297
asbag61
(g82
g63
NtRp490
(dp491
g66
(dp492
g93
g94
ssg75
g482
sg68
(lp493
S':'
asbag61
(g82
g63
NtRp494
(dp495
g66
(dp496
sg75
g482
sg68
(lp497
g61
(g62
g63
NtRp498
(dp499
g66
(dp500
g74
I3
ssg75
g494
sg68
(lp501
S''
asbasbasbag61
(g77
g63
NtRp502
(dp503
g66
(dp504
sg75
g458
sg68
(lp505
g61
(g82
g63
NtRp506
(dp507
g66
(dp508
g86
g87
ssg75
g502
sg68
(lp509
g318
asbag61
(g82
g63
NtRp510
(dp511
g66
(dp512
g93
g94
ssg75
g502
sg68
(lp513
S':'
asbag61
(g82
g63
NtRp514
(dp515
g66
(dp516
sg75
g502
sg68
(lp517
g61
(g62
g63
NtRp518
(dp519
g66
(dp520
g74
I3
ssg75
g514
sg68
(lp521
S''
asbasbasbag61
(g77
g63
NtRp522
(dp523
g66
(dp524
sg75
g458
sg68
(lp525
g61
(g82
g63
NtRp526
(dp527
g66
(dp528
g86
g87
ssg75
g522
sg68
(lp529
g339
asbag61
(g82
g63
NtRp530
(dp531
g66
(dp532
g93
g94
ssg75
g522
sg68
(lp533
S':'
asbag61
(g82
g63
NtRp534
(dp535
g66
(dp536
sg75
g522
sg68
(lp537
g61
(g62
g63
NtRp538
(dp539
g66
(dp540
g74
I3
ssg75
g534
sg68
(lp541
S''
asbasbasbag61
(g77
g63
NtRp542
(dp543
g66
(dp544
sg75
g458
sg68
(lp545
g61
(g82
g63
NtRp546
(dp547
g66
(dp548
g86
g87
ssg75
g542
sg68
(lp549
g360
asbag61
(g82
g63
NtRp550
(dp551
g66
(dp552
g93
g94
ssg75
g542
sg68
(lp553
S':'
asbag61
(g82
g63
NtRp554
(dp555
g66
(dp556
sg75
g542
sg68
(lp557
g61
(g62
g63
NtRp558
(dp559
g66
(dp560
g74
I3
ssg75
g554
sg68
(lp561
S''
asbasbasbag61
(g77
g63
NtRp562
(dp563
g66
(dp564
sg75
g458
sg68
(lp565
g61
(g82
g63
NtRp566
(dp567
g66
(dp568
g86
g87
ssg75
g562
sg68
(lp569
g381
asbag61
(g82
g63
NtRp570
(dp571
g66
(dp572
g93
g94
ssg75
g562
sg68
(lp573
S':'
asbag61
(g82
g63
NtRp574
(dp575
g66
(dp576
sg75
g562
sg68
(lp577
g61
(g62
g63
NtRp578
(dp579
g66
(dp580
g74
I3
ssg75
g574
sg68
(lp581
S''
asbasbasbag61
(g77
g63
NtRp582
(dp583
g66
(dp584
sg75
g458
sg68
(lp585
g61
(g82
g63
NtRp586
(dp587
g66
(dp588
g86
g87
ssg75
g582
sg68
(lp589
g402
asbag61
(g82
g63
NtRp590
(dp591
g66
(dp592
g93
g94
ssg75
g582
sg68
(lp593
S':'
asbag61
(g82
g63
NtRp594
(dp595
g66
(dp596
sg75
g582
sg68
(lp597
g61
(g62
g63
NtRp598
(dp599
g66
(dp600
g74
I3
ssg75
g594
sg68
(lp601
S''
asbasbasbag61
(g77
g63
NtRp602
(dp603
g66
(dp604
sg75
g458
sg68
(lp605
g61
(g82
g63
NtRp606
(dp607
g66
(dp608
g86
g87
ssg75
g602
sg68
(lp609
g423
asbag61
(g82
g63
NtRp610
(dp611
g66
(dp612
g93
g94
ssg75
g602
sg68
(lp613
S':'
asbag61
(g82
g63
NtRp614
(dp615
g66
(dp616
sg75
g602
sg68
(lp617
g61
(g62
g63
NtRp618
(dp619
g66
(dp620
g74
I3
ssg75
g614
sg68
(lp621
S''
asbasbasbasbasbasbasbag61
(g77
g63
NtRp622
(dp623
g66
(dp624
sg75
g238
sg68
(lp625
g61
(g82
g63
NtRp626
(dp627
g66
(dp628
g86
g87
ssg75
g622
sg68
(lp629
S'session_id_init'
p630
asbag61
(g82
g63
NtRp631
(dp632
g66
(dp633
g93
g94
ssg75
g622
sg68
(lp634
S':'
asbag61
(g82
g63
NtRp635
(dp636
g66
(dp637
sg75
g622
sg68
(lp638
g61
(g62
g63
NtRp639
(dp640
g66
(dp641
g74
I4
ssg75
g635
sg68
(lp642
S'127.0.0.1-5d866f8a-e112-44ab-84a9-267caae08c70'
p643
ag61
(g70
g63
NtRp644
(dp645
g66
(dp646
g74
I3
ssg75
Nsg68
(lp647
g61
(g77
g63
NtRp648
(dp649
g66
(dp650
sg75
g644
sg68
(lp651
g61
(g82
g63
NtRp652
(dp653
g66
(dp654
g86
g87
ssg75
g648
sg68
(lp655
g276
asbag61
(g82
g63
NtRp656
(dp657
g66
(dp658
g93
g94
ssg75
g648
sg68
(lp659
S':'
asbag61
(g82
g63
NtRp660
(dp661
g66
(dp662
sg75
g648
sg68
(lp663
g61
(g62
g63
NtRp664
(dp665
g66
(dp666
g74
I3
ssg75
g660
sg68
(lp667
S''
asbasbasbag61
(g77
g63
NtRp668
(dp669
g66
(dp670
sg75
g644
sg68
(lp671
g61
(g82
g63
NtRp672
(dp673
g66
(dp674
g86
g87
ssg75
g668
sg68
(lp675
g297
asbag61
(g82
g63
NtRp676
(dp677
g66
(dp678
g93
g94
ssg75
g668
sg68
(lp679
S':'
asbag61
(g82
g63
NtRp680
(dp681
g66
(dp682
sg75
g668
sg68
(lp683
g61
(g62
g63
NtRp684
(dp685
g66
(dp686
g74
I3
ssg75
g680
sg68
(lp687
S''
asbasbasbag61
(g77
g63
NtRp688
(dp689
g66
(dp690
sg75
g644
sg68
(lp691
g61
(g82
g63
NtRp692
(dp693
g66
(dp694
g86
g87
ssg75
g688
sg68
(lp695
g318
asbag61
(g82
g63
NtRp696
(dp697
g66
(dp698
g93
g94
ssg75
g688
sg68
(lp699
S':'
asbag61
(g82
g63
NtRp700
(dp701
g66
(dp702
sg75
g688
sg68
(lp703
g61
(g62
g63
NtRp704
(dp705
g66
(dp706
g74
I3
ssg75
g700
sg68
(lp707
S''
asbasbasbag61
(g77
g63
NtRp708
(dp709
g66
(dp710
sg75
g644
sg68
(lp711
g61
(g82
g63
NtRp712
(dp713
g66
(dp714
g86
g87
ssg75
g708
sg68
(lp715
g339
asbag61
(g82
g63
NtRp716
(dp717
g66
(dp718
g93
g94
ssg75
g708
sg68
(lp719
S':'
asbag61
(g82
g63
NtRp720
(dp721
g66
(dp722
sg75
g708
sg68
(lp723
g61
(g62
g63
NtRp724
(dp725
g66
(dp726
g74
I3
ssg75
g720
sg68
(lp727
S''
asbasbasbag61
(g77
g63
NtRp728
(dp729
g66
(dp730
sg75
g644
sg68
(lp731
g61
(g82
g63
NtRp732
(dp733
g66
(dp734
g86
g87
ssg75
g728
sg68
(lp735
g360
asbag61
(g82
g63
NtRp736
(dp737
g66
(dp738
g93
g94
ssg75
g728
sg68
(lp739
S':'
asbag61
(g82
g63
NtRp740
(dp741
g66
(dp742
sg75
g728
sg68
(lp743
g61
(g62
g63
NtRp744
(dp745
g66
(dp746
g74
I3
ssg75
g740
sg68
(lp747
S''
asbasbasbag61
(g77
g63
NtRp748
(dp749
g66
(dp750
sg75
g644
sg68
(lp751
g61
(g82
g63
NtRp752
(dp753
g66
(dp754
g86
g87
ssg75
g748
sg68
(lp755
g381
asbag61
(g82
g63
NtRp756
(dp757
g66
(dp758
g93
g94
ssg75
g748
sg68
(lp759
S':'
asbag61
(g82
g63
NtRp760
(dp761
g66
(dp762
sg75
g748
sg68
(lp763
g61
(g62
g63
NtRp764
(dp765
g66
(dp766
g74
I3
ssg75
g760
sg68
(lp767
S''
asbasbasbag61
(g77
g63
NtRp768
(dp769
g66
(dp770
sg75
g644
sg68
(lp771
g61
(g82
g63
NtRp772
(dp773
g66
(dp774
g86
g87
ssg75
g768
sg68
(lp775
g402
asbag61
(g82
g63
NtRp776
(dp777
g66
(dp778
g93
g94
ssg75
g768
sg68
(lp779
S':'
asbag61
(g82
g63
NtRp780
(dp781
g66
(dp782
sg75
g768
sg68
(lp783
g61
(g62
g63
NtRp784
(dp785
g66
(dp786
g74
I3
ssg75
g780
sg68
(lp787
S''
asbasbasbag61
(g77
g63
NtRp788
(dp789
g66
(dp790
sg75
g644
sg68
(lp791
g61
(g82
g63
NtRp792
(dp793
g66
(dp794
g86
g87
ssg75
g788
sg68
(lp795
g423
asbag61
(g82
g63
NtRp796
(dp797
g66
(dp798
g93
g94
ssg75
g788
sg68
(lp799
S':'
asbag61
(g82
g63
NtRp800
(dp801
g66
(dp802
sg75
g788
sg68
(lp803
g61
(g62
g63
NtRp804
(dp805
g66
(dp806
g74
I3
ssg75
g800
sg68
(lp807
S''
asbasbasbasbasbasbasbag61
(g77
g63
NtRp808
(dp809
g66
(dp810
sg75
g238
sg68
(lp811
g61
(g82
g63
NtRp812
(dp813
g66
(dp814
g86
g87
ssg75
g808
sg68
(lp815
S'session_id_welcome'
p816
asbag61
(g82
g63
NtRp817
(dp818
g66
(dp819
g93
g94
ssg75
g808
sg68
(lp820
S':'
asbag61
(g82
g63
NtRp821
(dp822
g66
(dp823
sg75
g808
sg68
(lp824
g61
(g62
g63
NtRp825
(dp826
g66
(dp827
g74
I4
ssg75
g821
sg68
(lp828
S'127.0.0.1-413fbb53-8fc7-4016-8695-7ff91d564649'
p829
ag61
(g70
g63
NtRp830
(dp831
g66
(dp832
g74
I3
ssg75
Nsg68
(lp833
g61
(g77
g63
NtRp834
(dp835
g66
(dp836
sg75
g830
sg68
(lp837
g61
(g82
g63
NtRp838
(dp839
g66
(dp840
g86
g87
ssg75
g834
sg68
(lp841
g276
asbag61
(g82
g63
NtRp842
(dp843
g66
(dp844
g93
g94
ssg75
g834
sg68
(lp845
S':'
asbag61
(g82
g63
NtRp846
(dp847
g66
(dp848
sg75
g834
sg68
(lp849
g61
(g62
g63
NtRp850
(dp851
g66
(dp852
g74
I3
ssg75
g846
sg68
(lp853
S''
asbasbasbag61
(g77
g63
NtRp854
(dp855
g66
(dp856
sg75
g830
sg68
(lp857
g61
(g82
g63
NtRp858
(dp859
g66
(dp860
g86
g87
ssg75
g854
sg68
(lp861
g297
asbag61
(g82
g63
NtRp862
(dp863
g66
(dp864
g93
g94
ssg75
g854
sg68
(lp865
S':'
asbag61
(g82
g63
NtRp866
(dp867
g66
(dp868
sg75
g854
sg68
(lp869
g61
(g62
g63
NtRp870
(dp871
g66
(dp872
g74
I3
ssg75
g866
sg68
(lp873
S''
asbasbasbag61
(g77
g63
NtRp874
(dp875
g66
(dp876
sg75
g830
sg68
(lp877
g61
(g82
g63
NtRp878
(dp879
g66
(dp880
g86
g87
ssg75
g874
sg68
(lp881
g318
asbag61
(g82
g63
NtRp882
(dp883
g66
(dp884
g93
g94
ssg75
g874
sg68
(lp885
S':'
asbag61
(g82
g63
NtRp886
(dp887
g66
(dp888
sg75
g874
sg68
(lp889
g61
(g62
g63
NtRp890
(dp891
g66
(dp892
g74
I3
ssg75
g886
sg68
(lp893
S''
asbasbasbag61
(g77
g63
NtRp894
(dp895
g66
(dp896
sg75
g830
sg68
(lp897
g61
(g82
g63
NtRp898
(dp899
g66
(dp900
g86
g87
ssg75
g894
sg68
(lp901
g339
asbag61
(g82
g63
NtRp902
(dp903
g66
(dp904
g93
g94
ssg75
g894
sg68
(lp905
S':'
asbag61
(g82
g63
NtRp906
(dp907
g66
(dp908
sg75
g894
sg68
(lp909
g61
(g62
g63
NtRp910
(dp911
g66
(dp912
g74
I3
ssg75
g906
sg68
(lp913
S''
asbasbasbag61
(g77
g63
NtRp914
(dp915
g66
(dp916
sg75
g830
sg68
(lp917
g61
(g82
g63
NtRp918
(dp919
g66
(dp920
g86
g87
ssg75
g914
sg68
(lp921
g360
asbag61
(g82
g63
NtRp922
(dp923
g66
(dp924
g93
g94
ssg75
g914
sg68
(lp925
S':'
asbag61
(g82
g63
NtRp926
(dp927
g66
(dp928
sg75
g914
sg68
(lp929
g61
(g62
g63
NtRp930
(dp931
g66
(dp932
g74
I3
ssg75
g926
sg68
(lp933
S''
asbasbasbag61
(g77
g63
NtRp934
(dp935
g66
(dp936
sg75
g830
sg68
(lp937
g61
(g82
g63
NtRp938
(dp939
g66
(dp940
g86
g87
ssg75
g934
sg68
(lp941
g381
asbag61
(g82
g63
NtRp942
(dp943
g66
(dp944
g93
g94
ssg75
g934
sg68
(lp945
S':'
asbag61
(g82
g63
NtRp946
(dp947
g66
(dp948
sg75
g934
sg68
(lp949
g61
(g62
g63
NtRp950
(dp951
g66
(dp952
g74
I3
ssg75
g946
sg68
(lp953
S''
asbasbasbag61
(g77
g63
NtRp954
(dp955
g66
(dp956
sg75
g830
sg68
(lp957
g61
(g82
g63
NtRp958
(dp959
g66
(dp960
g86
g87
ssg75
g954
sg68
(lp961
g402
asbag61
(g82
g63
NtRp962
(dp963
g66
(dp964
g93
g94
ssg75
g954
sg68
(lp965
S':'
asbag61
(g82
g63
NtRp966
(dp967
g66
(dp968
sg75
g954
sg68
(lp969
g61
(g62
g63
NtRp970
(dp971
g66
(dp972
g74
I3
ssg75
g966
sg68
(lp973
S''
asbasbasbag61
(g77
g63
NtRp974
(dp975
g66
(dp976
sg75
g830
sg68
(lp977
g61
(g82
g63
NtRp978
(dp979
g66
(dp980
g86
g87
ssg75
g974
sg68
(lp981
g423
asbag61
(g82
g63
NtRp982
(dp983
g66
(dp984
g93
g94
ssg75
g974
sg68
(lp985
S':'
asbag61
(g82
g63
NtRp986
(dp987
g66
(dp988
sg75
g974
sg68
(lp989
g61
(g62
g63
NtRp990
(dp991
g66
(dp992
g74
I3
ssg75
g986
sg68
(lp993
S''
asbasbasbasbasbasbasbasbasbasbasbag61
(g77
g63
NtRp994
(dp995
g66
(dp996
sg75
g71
sg68
(lp997
g61
(g82
g63
NtRp998
(dp999
g66
(dp1000
g86
g87
ssg75
g994
sg68
(lp1001
S'env'
p1002
asbag61
(g82
g63
NtRp1003
(dp1004
g66
(dp1005
g93
g94
ssg75
g994
sg68
(lp1006
S':'
asbag61
(g82
g63
NtRp1007
(dp1008
g66
(dp1009
sg75
g994
sg68
(lp1010
g61
(g62
g63
NtRp1011
(dp1012
g66
(dp1013
g74
I5
ssg75
g1007
sg68
(lp1014
g61
(g70
g63
NtRp1015
(dp1016
g66
(dp1017
g74
I4
ssg75
Nsg68
(lp1018
g61
(g77
g63
NtRp1019
(dp1020
g66
(dp1021
sg75
g1015
sg68
(lp1022
g61
(g82
g63
NtRp1023
(dp1024
g66
(dp1025
g86
g87
ssg75
g1019
sg68
(lp1026
S'app_folders'
p1027
asbag61
(g82
g63
NtRp1028
(dp1029
g66
(dp1030
g93
g94
ssg75
g1019
sg68
(lp1031
S':'
asbag61
(g82
g63
NtRp1032
(dp1033
g66
(dp1034
sg75
g1019
sg68
(lp1035
g61
(g62
g63
NtRp1036
(dp1037
g66
(dp1038
g74
I4
ssg75
g1032
sg68
(lp1039
S"set(['c:\\\\Users\\\\rochacbruno\\\\jul12\\\\cursojulho12\\\\web2py\\\\applications\\\\ecommerce\\\\', 'c:\\\\Users\\\\rochacbruno\\\\jul12\\\\cursojulho12\\\\web2py\\\\applications\\\\admin\\\\'])"
p1040
asbasbasbag61
(g77
g63
NtRp1041
(dp1042
g66
(dp1043
sg75
g1015
sg68
(lp1044
g61
(g82
g63
NtRp1045
(dp1046
g66
(dp1047
g86
g87
ssg75
g1041
sg68
(lp1048
S'applications_parent'
p1049
asbag61
(g82
g63
NtRp1050
(dp1051
g66
(dp1052
g93
g94
ssg75
g1041
sg68
(lp1053
S':'
asbag61
(g82
g63
NtRp1054
(dp1055
g66
(dp1056
sg75
g1041
sg68
(lp1057
g61
(g62
g63
NtRp1058
(dp1059
g66
(dp1060
g74
I4
ssg75
g1054
sg68
(lp1061
S'c:\\Users\\rochacbruno\\jul12\\cursojulho12\\web2py'
p1062
asbasbasbag61
(g77
g63
NtRp1063
(dp1064
g66
(dp1065
sg75
g1015
sg68
(lp1066
g61
(g82
g63
NtRp1067
(dp1068
g66
(dp1069
g86
g87
ssg75
g1063
sg68
(lp1070
S'cmd_args'
p1071
asbag61
(g82
g63
NtRp1072
(dp1073
g66
(dp1074
g93
g94
ssg75
g1063
sg68
(lp1075
S':'
asbag61
(g82
g63
NtRp1076
(dp1077
g66
(dp1078
sg75
g1063
sg68
(lp1079
g61
(g62
g63
NtRp1080
(dp1081
g66
(dp1082
g74
I4
ssg75
g1076
sg68
(lp1083
g61
(g70
g63
NtRp1084
(dp1085
g66
(dp1086
g74
I3
ssg75
Nsg68
(lp1087
sbasbasbasbag61
(g77
g63
NtRp1088
(dp1089
g66
(dp1090
sg75
g1015
sg68
(lp1091
g61
(g82
g63
NtRp1092
(dp1093
g66
(dp1094
g86
g87
ssg75
g1088
sg68
(lp1095
S'cmd_options'
p1096
asbag61
(g82
g63
NtRp1097
(dp1098
g66
(dp1099
g93
g94
ssg75
g1088
sg68
(lp1100
S':'
asbag61
(g82
g63
NtRp1101
(dp1102
g66
(dp1103
sg75
g1088
sg68
(lp1104
g61
(g62
g63
NtRp1105
(dp1106
g66
(dp1107
g74
I4
ssg75
g1101
sg68
(lp1108
S"<Values at 0x2af8be8: {'verbose': False, 'ip': '127.0.0.1', 'with_scheduler': False, 'ips': ['192.168.1.100'], 'shutdown_timeout': 5, 'taskbar': False, 'port': 8000, 'maxthreads': None, 'softcron': False, 'server_name': 'rochacbruno-HP', 'bpython': False, 'nogui': False, 'nocron': True, 'extcron': False, 'run_system_tests': False, 'test': None, 'folder': 'c:\\\\Users\\\\rochacbruno\\\\jul12\\\\cursojulho12\\\\web2py', 'config': '', 'import_models': False, 'winservice': '', 'shell': None, 'run': '', 'log_filename': 'httpserver.log', 'debuglevel': 30, 'args': [''], 'socket_timeout': 5, 'ssl_ca_certificate': None, 'scheduler': None, 'profiler_filename': None, 'ssl_private_key': '', 'password': '1234', 'request_queue_size': 5, 'ssl_certificate': '', 'cronjob': False, 'numthreads': None, 'quiet': False, 'interfaces': None, 'minthreads': None, 'timeout': 10, 'plain': False, 'nobanner': False, 'pid_filename': 'httpserver.pid'}>"
p1109
asbasbasbag61
(g77
g63
NtRp1110
(dp1111
g66
(dp1112
sg75
g1015
sg68
(lp1113
g61
(g82
g63
NtRp1114
(dp1115
g66
(dp1116
g86
g87
ssg75
g1110
sg68
(lp1117
S'content_length'
p1118
asbag61
(g82
g63
NtRp1119
(dp1120
g66
(dp1121
g93
g94
ssg75
g1110
sg68
(lp1122
S':'
asbag61
(g82
g63
NtRp1123
(dp1124
g66
(dp1125
sg75
g1110
sg68
(lp1126
g61
(g62
g63
NtRp1127
(dp1128
g66
(dp1129
g74
I4
ssg75
g1123
sg68
(lp1130
S'40'
p1131
asbasbasbag61
(g77
g63
NtRp1132
(dp1133
g66
(dp1134
sg75
g1015
sg68
(lp1135
g61
(g82
g63
NtRp1136
(dp1137
g66
(dp1138
g86
g87
ssg75
g1132
sg68
(lp1139
S'content_type'
p1140
asbag61
(g82
g63
NtRp1141
(dp1142
g66
(dp1143
g93
g94
ssg75
g1132
sg68
(lp1144
S':'
asbag61
(g82
g63
NtRp1145
(dp1146
g66
(dp1147
sg75
g1132
sg68
(lp1148
g61
(g62
g63
NtRp1149
(dp1150
g66
(dp1151
g74
I4
ssg75
g1145
sg68
(lp1152
S'application/x-www-form-urlencoded'
p1153
asbasbasbag61
(g77
g63
NtRp1154
(dp1155
g66
(dp1156
sg75
g1015
sg68
(lp1157
g61
(g82
g63
NtRp1158
(dp1159
g66
(dp1160
g86
g87
ssg75
g1154
sg68
(lp1161
S'db_sessions'
p1162
asbag61
(g82
g63
NtRp1163
(dp1164
g66
(dp1165
g93
g94
ssg75
g1154
sg68
(lp1166
S':'
asbag61
(g82
g63
NtRp1167
(dp1168
g66
(dp1169
sg75
g1154
sg68
(lp1170
g61
(g62
g63
NtRp1171
(dp1172
g66
(dp1173
g74
I4
ssg75
g1167
sg68
(lp1174
S'set([])'
p1175
asbasbasbag61
(g77
g63
NtRp1176
(dp1177
g66
(dp1178
sg75
g1015
sg68
(lp1179
g61
(g82
g63
NtRp1180
(dp1181
g66
(dp1182
g86
g87
ssg75
g1176
sg68
(lp1183
S'debugging'
p1184
asbag61
(g82
g63
NtRp1185
(dp1186
g66
(dp1187
g93
g94
ssg75
g1176
sg68
(lp1188
S':'
asbag61
(g82
g63
NtRp1189
(dp1190
g66
(dp1191
sg75
g1176
sg68
(lp1192
g61
(g62
g63
NtRp1193
(dp1194
g66
(dp1195
g74
I4
ssg75
g1189
sg68
(lp1196
g104
asbasbasbag61
(g77
g63
NtRp1197
(dp1198
g66
(dp1199
sg75
g1015
sg68
(lp1200
g61
(g82
g63
NtRp1201
(dp1202
g66
(dp1203
g86
g87
ssg75
g1197
sg68
(lp1204
S'gluon_parent'
p1205
asbag61
(g82
g63
NtRp1206
(dp1207
g66
(dp1208
g93
g94
ssg75
g1197
sg68
(lp1209
S':'
asbag61
(g82
g63
NtRp1210
(dp1211
g66
(dp1212
sg75
g1197
sg68
(lp1213
g61
(g62
g63
NtRp1214
(dp1215
g66
(dp1216
g74
I4
ssg75
g1210
sg68
(lp1217
S'c:\\Users\\rochacbruno\\jul12\\cursojulho12\\web2py'
p1218
asbasbasbag61
(g77
g63
NtRp1219
(dp1220
g66
(dp1221
sg75
g1015
sg68
(lp1222
g61
(g82
g63
NtRp1223
(dp1224
g66
(dp1225
g86
g87
ssg75
g1219
sg68
(lp1226
S'http_accept'
p1227
asbag61
(g82
g63
NtRp1228
(dp1229
g66
(dp1230
g93
g94
ssg75
g1219
sg68
(lp1231
S':'
asbag61
(g82
g63
NtRp1232
(dp1233
g66
(dp1234
sg75
g1219
sg68
(lp1235
g61
(g62
g63
NtRp1236
(dp1237
g66
(dp1238
g74
I4
ssg75
g1232
sg68
(lp1239
S'text/html,application/xhtml+xml,application/xml;q=0.9,*/*;q=0.8'
p1240
asbasbasbag61
(g77
g63
NtRp1241
(dp1242
g66
(dp1243
sg75
g1015
sg68
(lp1244
g61
(g82
g63
NtRp1245
(dp1246
g66
(dp1247
g86
g87
ssg75
g1241
sg68
(lp1248
S'http_accept_encoding'
p1249
asbag61
(g82
g63
NtRp1250
(dp1251
g66
(dp1252
g93
g94
ssg75
g1241
sg68
(lp1253
S':'
asbag61
(g82
g63
NtRp1254
(dp1255
g66
(dp1256
sg75
g1241
sg68
(lp1257
g61
(g62
g63
NtRp1258
(dp1259
g66
(dp1260
g74
I4
ssg75
g1254
sg68
(lp1261
S'gzip, deflate'
p1262
asbasbasbag61
(g77
g63
NtRp1263
(dp1264
g66
(dp1265
sg75
g1015
sg68
(lp1266
g61
(g82
g63
NtRp1267
(dp1268
g66
(dp1269
g86
g87
ssg75
g1263
sg68
(lp1270
S'http_accept_language'
p1271
asbag61
(g82
g63
NtRp1272
(dp1273
g66
(dp1274
g93
g94
ssg75
g1263
sg68
(lp1275
S':'
asbag61
(g82
g63
NtRp1276
(dp1277
g66
(dp1278
sg75
g1263
sg68
(lp1279
g61
(g62
g63
NtRp1280
(dp1281
g66
(dp1282
g74
I4
ssg75
g1276
sg68
(lp1283
S'en,pt-br;q=0.8,pt;q=0.5,en-us;q=0.3'
p1284
asbasbasbag61
(g77
g63
NtRp1285
(dp1286
g66
(dp1287
sg75
g1015
sg68
(lp1288
g61
(g82
g63
NtRp1289
(dp1290
g66
(dp1291
g86
g87
ssg75
g1285
sg68
(lp1292
S'http_connection'
p1293
asbag61
(g82
g63
NtRp1294
(dp1295
g66
(dp1296
g93
g94
ssg75
g1285
sg68
(lp1297
S':'
asbag61
(g82
g63
NtRp1298
(dp1299
g66
(dp1300
sg75
g1285
sg68
(lp1301
g61
(g62
g63
NtRp1302
(dp1303
g66
(dp1304
g74
I4
ssg75
g1298
sg68
(lp1305
S'keep-alive'
p1306
asbasbasbag61
(g77
g63
NtRp1307
(dp1308
g66
(dp1309
sg75
g1015
sg68
(lp1310
g61
(g82
g63
NtRp1311
(dp1312
g66
(dp1313
g86
g87
ssg75
g1307
sg68
(lp1314
S'http_content_length'
p1315
asbag61
(g82
g63
NtRp1316
(dp1317
g66
(dp1318
g93
g94
ssg75
g1307
sg68
(lp1319
S':'
asbag61
(g82
g63
NtRp1320
(dp1321
g66
(dp1322
sg75
g1307
sg68
(lp1323
g61
(g62
g63
NtRp1324
(dp1325
g66
(dp1326
g74
I4
ssg75
g1320
sg68
(lp1327
g1131
asbasbasbag61
(g77
g63
NtRp1328
(dp1329
g66
(dp1330
sg75
g1015
sg68
(lp1331
g61
(g82
g63
NtRp1332
(dp1333
g66
(dp1334
g86
g87
ssg75
g1328
sg68
(lp1335
S'http_content_type'
p1336
asbag61
(g82
g63
NtRp1337
(dp1338
g66
(dp1339
g93
g94
ssg75
g1328
sg68
(lp1340
S':'
asbag61
(g82
g63
NtRp1341
(dp1342
g66
(dp1343
sg75
g1328
sg68
(lp1344
g61
(g62
g63
NtRp1345
(dp1346
g66
(dp1347
g74
I4
ssg75
g1341
sg68
(lp1348
g1153
asbasbasbag61
(g77
g63
NtRp1349
(dp1350
g66
(dp1351
sg75
g1015
sg68
(lp1352
g61
(g82
g63
NtRp1353
(dp1354
g66
(dp1355
g86
g87
ssg75
g1349
sg68
(lp1356
S'http_cookie'
p1357
asbag61
(g82
g63
NtRp1358
(dp1359
g66
(dp1360
g93
g94
ssg75
g1349
sg68
(lp1361
S':'
asbag61
(g82
g63
NtRp1362
(dp1363
g66
(dp1364
sg75
g1349
sg68
(lp1365
g61
(g62
g63
NtRp1366
(dp1367
g66
(dp1368
g74
I4
ssg75
g1362
sg68
(lp1369
S'session_id_admin=127.0.0.1-4873ed00-b716-4b13-a1bb-7fdaa43562f3; session_id_ecommerce=127.0.0.1-0fe94d39-4aae-427f-bfbc-597a65cd32c1; session_id_welcome=127.0.0.1-413fbb53-8fc7-4016-8695-7ff91d564649; session_id_init=127.0.0.1-5d866f8a-e112-44ab-84a9-267caae08c70'
p1370
asbasbasbag61
(g77
g63
NtRp1371
(dp1372
g66
(dp1373
sg75
g1015
sg68
(lp1374
g61
(g82
g63
NtRp1375
(dp1376
g66
(dp1377
g86
g87
ssg75
g1371
sg68
(lp1378
S'http_host'
p1379
asbag61
(g82
g63
NtRp1380
(dp1381
g66
(dp1382
g93
g94
ssg75
g1371
sg68
(lp1383
S':'
asbag61
(g82
g63
NtRp1384
(dp1385
g66
(dp1386
sg75
g1371
sg68
(lp1387
g61
(g62
g63
NtRp1388
(dp1389
g66
(dp1390
g74
I4
ssg75
g1384
sg68
(lp1391
S'localhost:8000'
p1392
asbasbasbag61
(g77
g63
NtRp1393
(dp1394
g66
(dp1395
sg75
g1015
sg68
(lp1396
g61
(g82
g63
NtRp1397
(dp1398
g66
(dp1399
g86
g87
ssg75
g1393
sg68
(lp1400
S'http_referer'
p1401
asbag61
(g82
g63
NtRp1402
(dp1403
g66
(dp1404
g93
g94
ssg75
g1393
sg68
(lp1405
S':'
asbag61
(g82
g63
NtRp1406
(dp1407
g66
(dp1408
sg75
g1393
sg68
(lp1409
g61
(g62
g63
NtRp1410
(dp1411
g66
(dp1412
g74
I4
ssg75
g1406
sg68
(lp1413
S'http://localhost:8000/product/new'
p1414
asbasbasbag61
(g77
g63
NtRp1415
(dp1416
g66
(dp1417
sg75
g1015
sg68
(lp1418
g61
(g82
g63
NtRp1419
(dp1420
g66
(dp1421
g86
g87
ssg75
g1415
sg68
(lp1422
S'http_user_agent'
p1423
asbag61
(g82
g63
NtRp1424
(dp1425
g66
(dp1426
g93
g94
ssg75
g1415
sg68
(lp1427
S':'
asbag61
(g82
g63
NtRp1428
(dp1429
g66
(dp1430
sg75
g1415
sg68
(lp1431
g61
(g62
g63
NtRp1432
(dp1433
g66
(dp1434
g74
I4
ssg75
g1428
sg68
(lp1435
S'Mozilla/5.0 (Windows NT 6.1; rv:14.0) Gecko/20100101 Firefox/14.0.1'
p1436
asbasbasbag61
(g77
g63
NtRp1437
(dp1438
g66
(dp1439
sg75
g1015
sg68
(lp1440
g61
(g82
g63
NtRp1441
(dp1442
g66
(dp1443
g86
g87
ssg75
g1437
sg68
(lp1444
S'is_jython'
p1445
asbag61
(g82
g63
NtRp1446
(dp1447
g66
(dp1448
g93
g94
ssg75
g1437
sg68
(lp1449
S':'
asbag61
(g82
g63
NtRp1450
(dp1451
g66
(dp1452
sg75
g1437
sg68
(lp1453
g61
(g62
g63
NtRp1454
(dp1455
g66
(dp1456
g74
I4
ssg75
g1450
sg68
(lp1457
g104
asbasbasbag61
(g77
g63
NtRp1458
(dp1459
g66
(dp1460
sg75
g1015
sg68
(lp1461
g61
(g82
g63
NtRp1462
(dp1463
g66
(dp1464
g86
g87
ssg75
g1458
sg68
(lp1465
S'is_pypy'
p1466
asbag61
(g82
g63
NtRp1467
(dp1468
g66
(dp1469
g93
g94
ssg75
g1458
sg68
(lp1470
S':'
asbag61
(g82
g63
NtRp1471
(dp1472
g66
(dp1473
sg75
g1458
sg68
(lp1474
g61
(g62
g63
NtRp1475
(dp1476
g66
(dp1477
g74
I4
ssg75
g1471
sg68
(lp1478
g104
asbasbasbag61
(g77
g63
NtRp1479
(dp1480
g66
(dp1481
sg75
g1015
sg68
(lp1482
g61
(g82
g63
NtRp1483
(dp1484
g66
(dp1485
g86
g87
ssg75
g1479
sg68
(lp1486
S'path_info'
p1487
asbag61
(g82
g63
NtRp1488
(dp1489
g66
(dp1490
g93
g94
ssg75
g1479
sg68
(lp1491
S':'
asbag61
(g82
g63
NtRp1492
(dp1493
g66
(dp1494
sg75
g1479
sg68
(lp1495
g61
(g62
g63
NtRp1496
(dp1497
g66
(dp1498
g74
I4
ssg75
g1492
sg68
(lp1499
S'/product/new'
p1500
asbasbasbag61
(g77
g63
NtRp1501
(dp1502
g66
(dp1503
sg75
g1015
sg68
(lp1504
g61
(g82
g63
NtRp1505
(dp1506
g66
(dp1507
g86
g87
ssg75
g1501
sg68
(lp1508
S'query_string'
p1509
asbag61
(g82
g63
NtRp1510
(dp1511
g66
(dp1512
g93
g94
ssg75
g1501
sg68
(lp1513
S':'
asbag61
(g82
g63
NtRp1514
(dp1515
g66
(dp1516
sg75
g1501
sg68
(lp1517
g61
(g62
g63
NtRp1518
(dp1519
g66
(dp1520
g74
I4
ssg75
g1514
sg68
(lp1521
S''
asbasbasbag61
(g77
g63
NtRp1522
(dp1523
g66
(dp1524
sg75
g1015
sg68
(lp1525
g61
(g82
g63
NtRp1526
(dp1527
g66
(dp1528
g86
g87
ssg75
g1522
sg68
(lp1529
S'remote_addr'
p1530
asbag61
(g82
g63
NtRp1531
(dp1532
g66
(dp1533
g93
g94
ssg75
g1522
sg68
(lp1534
S':'
asbag61
(g82
g63
NtRp1535
(dp1536
g66
(dp1537
sg75
g1522
sg68
(lp1538
g61
(g62
g63
NtRp1539
(dp1540
g66
(dp1541
g74
I4
ssg75
g1535
sg68
(lp1542
g194
asbasbasbag61
(g77
g63
NtRp1543
(dp1544
g66
(dp1545
sg75
g1015
sg68
(lp1546
g61
(g82
g63
NtRp1547
(dp1548
g66
(dp1549
g86
g87
ssg75
g1543
sg68
(lp1550
S'remote_port'
p1551
asbag61
(g82
g63
NtRp1552
(dp1553
g66
(dp1554
g93
g94
ssg75
g1543
sg68
(lp1555
S':'
asbag61
(g82
g63
NtRp1556
(dp1557
g66
(dp1558
sg75
g1543
sg68
(lp1559
g61
(g62
g63
NtRp1560
(dp1561
g66
(dp1562
g74
I4
ssg75
g1556
sg68
(lp1563
S'50286'
p1564
asbasbasbag61
(g77
g63
NtRp1565
(dp1566
g66
(dp1567
sg75
g1015
sg68
(lp1568
g61
(g82
g63
NtRp1569
(dp1570
g66
(dp1571
g86
g87
ssg75
g1565
sg68
(lp1572
S'request_method'
p1573
asbag61
(g82
g63
NtRp1574
(dp1575
g66
(dp1576
g93
g94
ssg75
g1565
sg68
(lp1577
S':'
asbag61
(g82
g63
NtRp1578
(dp1579
g66
(dp1580
sg75
g1565
sg68
(lp1581
g61
(g62
g63
NtRp1582
(dp1583
g66
(dp1584
g74
I4
ssg75
g1578
sg68
(lp1585
S'POST'
p1586
asbasbasbag61
(g77
g63
NtRp1587
(dp1588
g66
(dp1589
sg75
g1015
sg68
(lp1590
g61
(g82
g63
NtRp1591
(dp1592
g66
(dp1593
g86
g87
ssg75
g1587
sg68
(lp1594
S'request_uri'
p1595
asbag61
(g82
g63
NtRp1596
(dp1597
g66
(dp1598
g93
g94
ssg75
g1587
sg68
(lp1599
S':'
asbag61
(g82
g63
NtRp1600
(dp1601
g66
(dp1602
sg75
g1587
sg68
(lp1603
g61
(g62
g63
NtRp1604
(dp1605
g66
(dp1606
g74
I4
ssg75
g1600
sg68
(lp1607
S'/ecommerce/product/new'
p1608
asbasbasbag61
(g77
g63
NtRp1609
(dp1610
g66
(dp1611
sg75
g1015
sg68
(lp1612
g61
(g82
g63
NtRp1613
(dp1614
g66
(dp1615
g86
g87
ssg75
g1609
sg68
(lp1616
S'script_name'
p1617
asbag61
(g82
g63
NtRp1618
(dp1619
g66
(dp1620
g93
g94
ssg75
g1609
sg68
(lp1621
S':'
asbag61
(g82
g63
NtRp1622
(dp1623
g66
(dp1624
sg75
g1609
sg68
(lp1625
g61
(g62
g63
NtRp1626
(dp1627
g66
(dp1628
g74
I4
ssg75
g1622
sg68
(lp1629
S''
asbasbasbag61
(g77
g63
NtRp1630
(dp1631
g66
(dp1632
sg75
g1015
sg68
(lp1633
g61
(g82
g63
NtRp1634
(dp1635
g66
(dp1636
g86
g87
ssg75
g1630
sg68
(lp1637
S'server_name'
p1638
asbag61
(g82
g63
NtRp1639
(dp1640
g66
(dp1641
g93
g94
ssg75
g1630
sg68
(lp1642
S':'
asbag61
(g82
g63
NtRp1643
(dp1644
g66
(dp1645
sg75
g1630
sg68
(lp1646
g61
(g62
g63
NtRp1647
(dp1648
g66
(dp1649
g74
I4
ssg75
g1643
sg68
(lp1650
S'rochacbruno-HP'
p1651
asbasbasbag61
(g77
g63
NtRp1652
(dp1653
g66
(dp1654
sg75
g1015
sg68
(lp1655
g61
(g82
g63
NtRp1656
(dp1657
g66
(dp1658
g86
g87
ssg75
g1652
sg68
(lp1659
S'server_port'
p1660
asbag61
(g82
g63
NtRp1661
(dp1662
g66
(dp1663
g93
g94
ssg75
g1652
sg68
(lp1664
S':'
asbag61
(g82
g63
NtRp1665
(dp1666
g66
(dp1667
sg75
g1652
sg68
(lp1668
g61
(g62
g63
NtRp1669
(dp1670
g66
(dp1671
g74
I4
ssg75
g1665
sg68
(lp1672
S'8000'
p1673
asbasbasbag61
(g77
g63
NtRp1674
(dp1675
g66
(dp1676
sg75
g1015
sg68
(lp1677
g61
(g82
g63
NtRp1678
(dp1679
g66
(dp1680
g86
g87
ssg75
g1674
sg68
(lp1681
S'server_protocol'
p1682
asbag61
(g82
g63
NtRp1683
(dp1684
g66
(dp1685
g93
g94
ssg75
g1674
sg68
(lp1686
S':'
asbag61
(g82
g63
NtRp1687
(dp1688
g66
(dp1689
sg75
g1674
sg68
(lp1690
g61
(g62
g63
NtRp1691
(dp1692
g66
(dp1693
g74
I4
ssg75
g1687
sg68
(lp1694
S'HTTP/1.1'
p1695
asbasbasbag61
(g77
g63
NtRp1696
(dp1697
g66
(dp1698
sg75
g1015
sg68
(lp1699
g61
(g82
g63
NtRp1700
(dp1701
g66
(dp1702
g86
g87
ssg75
g1696
sg68
(lp1703
S'server_software'
p1704
asbag61
(g82
g63
NtRp1705
(dp1706
g66
(dp1707
g93
g94
ssg75
g1696
sg68
(lp1708
S':'
asbag61
(g82
g63
NtRp1709
(dp1710
g66
(dp1711
sg75
g1696
sg68
(lp1712
g61
(g62
g63
NtRp1713
(dp1714
g66
(dp1715
g74
I4
ssg75
g1709
sg68
(lp1716
S'Rocket 1.2.4'
p1717
asbasbasbag61
(g77
g63
NtRp1718
(dp1719
g66
(dp1720
sg75
g1015
sg68
(lp1721
g61
(g82
g63
NtRp1722
(dp1723
g66
(dp1724
g86
g87
ssg75
g1718
sg68
(lp1725
S'web2py_original_uri'
p1726
asbag61
(g82
g63
NtRp1727
(dp1728
g66
(dp1729
g93
g94
ssg75
g1718
sg68
(lp1730
S':'
asbag61
(g82
g63
NtRp1731
(dp1732
g66
(dp1733
sg75
g1718
sg68
(lp1734
g61
(g62
g63
NtRp1735
(dp1736
g66
(dp1737
g74
I4
ssg75
g1731
sg68
(lp1738
g1500
asbasbasbag61
(g77
g63
NtRp1739
(dp1740
g66
(dp1741
sg75
g1015
sg68
(lp1742
g61
(g82
g63
NtRp1743
(dp1744
g66
(dp1745
g86
g87
ssg75
g1739
sg68
(lp1746
S'web2py_path'
p1747
asbag61
(g82
g63
NtRp1748
(dp1749
g66
(dp1750
g93
g94
ssg75
g1739
sg68
(lp1751
S':'
asbag61
(g82
g63
NtRp1752
(dp1753
g66
(dp1754
sg75
g1739
sg68
(lp1755
g61
(g62
g63
NtRp1756
(dp1757
g66
(dp1758
g74
I4
ssg75
g1752
sg68
(lp1759
g1062
asbasbasbag61
(g77
g63
NtRp1760
(dp1761
g66
(dp1762
sg75
g1015
sg68
(lp1763
g61
(g82
g63
NtRp1764
(dp1765
g66
(dp1766
g86
g87
ssg75
g1760
sg68
(lp1767
S'web2py_version'
p1768
asbag61
(g82
g63
NtRp1769
(dp1770
g66
(dp1771
g93
g94
ssg75
g1760
sg68
(lp1772
S':'
asbag61
(g82
g63
NtRp1773
(dp1774
g66
(dp1775
sg75
g1760
sg68
(lp1776
g61
(g62
g63
NtRp1777
(dp1778
g66
(dp1779
g74
I4
ssg75
g1773
sg68
(lp1780
g61
(g70
g63
NtRp1781
(dp1782
g66
(dp1783
g74
I3
ssg75
Nsg68
(lp1784
g61
(g77
g63
NtRp1785
(dp1786
g66
(dp1787
sg75
g1781
sg68
(lp1788
g61
(g82
g63
NtRp1789
(dp1790
g66
(dp1791
sg75
g1785
sg68
(lp1792
g61
(g62
g63
NtRp1793
(dp1794
g66
(dp1795
g74
I3
ssg75
g1789
sg68
(lp1796
S'2'
asbasbasbag61
(g77
g63
NtRp1797
(dp1798
g66
(dp1799
sg75
g1781
sg68
(lp1800
g61
(g82
g63
NtRp1801
(dp1802
g66
(dp1803
sg75
g1797
sg68
(lp1804
g61
(g62
g63
NtRp1805
(dp1806
g66
(dp1807
g74
I3
ssg75
g1801
sg68
(lp1808
S'0'
asbasbasbag61
(g77
g63
NtRp1809
(dp1810
g66
(dp1811
sg75
g1781
sg68
(lp1812
g61
(g82
g63
NtRp1813
(dp1814
g66
(dp1815
sg75
g1809
sg68
(lp1816
g61
(g62
g63
NtRp1817
(dp1818
g66
(dp1819
g74
I3
ssg75
g1813
sg68
(lp1820
S'0'
asbasbasbag61
(g77
g63
NtRp1821
(dp1822
g66
(dp1823
sg75
g1781
sg68
(lp1824
g61
(g82
g63
NtRp1825
(dp1826
g66
(dp1827
sg75
g1821
sg68
(lp1828
g61
(g62
g63
NtRp1829
(dp1830
g66
(dp1831
g74
I3
ssg75
g1825
sg68
(lp1832
S'datetime.datetime(2012, 8, 10, 13, 1, 31)'
p1833
asbasbasbag61
(g77
g63
NtRp1834
(dp1835
g66
(dp1836
sg75
g1781
sg68
(lp1837
g61
(g82
g63
NtRp1838
(dp1839
g66
(dp1840
sg75
g1834
sg68
(lp1841
g61
(g62
g63
NtRp1842
(dp1843
g66
(dp1844
g74
I3
ssg75
g1838
sg68
(lp1845
S'dev'
p1846
asbasbasbasbasbasbasbag61
(g77
g63
NtRp1847
(dp1848
g66
(dp1849
sg75
g1015
sg68
(lp1850
g61
(g82
g63
NtRp1851
(dp1852
g66
(dp1853
g86
g87
ssg75
g1847
sg68
(lp1854
S'wsgi_errors'
p1855
asbag61
(g82
g63
NtRp1856
(dp1857
g66
(dp1858
g93
g94
ssg75
g1847
sg68
(lp1859
S':'
asbag61
(g82
g63
NtRp1860
(dp1861
g66
(dp1862
sg75
g1847
sg68
(lp1863
g61
(g62
g63
NtRp1864
(dp1865
g66
(dp1866
g74
I4
ssg75
g1860
sg68
(lp1867
S"<open file '<stderr>', mode 'w' at 0x012750D0>"
p1868
asbasbasbag61
(g77
g63
NtRp1869
(dp1870
g66
(dp1871
sg75
g1015
sg68
(lp1872
g61
(g82
g63
NtRp1873
(dp1874
g66
(dp1875
g86
g87
ssg75
g1869
sg68
(lp1876
S'wsgi_file_wrapper'
p1877
asbag61
(g82
g63
NtRp1878
(dp1879
g66
(dp1880
g93
g94
ssg75
g1869
sg68
(lp1881
S':'
asbag61
(g82
g63
NtRp1882
(dp1883
g66
(dp1884
sg75
g1869
sg68
(lp1885
g61
(g62
g63
NtRp1886
(dp1887
g66
(dp1888
g74
I4
ssg75
g1882
sg68
(lp1889
S'<class wsgiref.util.FileWrapper at 0x02A383B0>'
p1890
asbasbasbag61
(g77
g63
NtRp1891
(dp1892
g66
(dp1893
sg75
g1015
sg68
(lp1894
g61
(g82
g63
NtRp1895
(dp1896
g66
(dp1897
g86
g87
ssg75
g1891
sg68
(lp1898
S'wsgi_input'
p1899
asbag61
(g82
g63
NtRp1900
(dp1901
g66
(dp1902
g93
g94
ssg75
g1891
sg68
(lp1903
S':'
asbag61
(g82
g63
NtRp1904
(dp1905
g66
(dp1906
sg75
g1891
sg68
(lp1907
g61
(g62
g63
NtRp1908
(dp1909
g66
(dp1910
g74
I4
ssg75
g1904
sg68
(lp1911
S'<socket._fileobject object at 0x05D7EA70>'
p1912
asbasbasbag61
(g77
g63
NtRp1913
(dp1914
g66
(dp1915
sg75
g1015
sg68
(lp1916
g61
(g82
g63
NtRp1917
(dp1918
g66
(dp1919
g86
g87
ssg75
g1913
sg68
(lp1920
S'wsgi_multiprocess'
p1921
asbag61
(g82
g63
NtRp1922
(dp1923
g66
(dp1924
g93
g94
ssg75
g1913
sg68
(lp1925
S':'
asbag61
(g82
g63
NtRp1926
(dp1927
g66
(dp1928
sg75
g1913
sg68
(lp1929
g61
(g62
g63
NtRp1930
(dp1931
g66
(dp1932
g74
I4
ssg75
g1926
sg68
(lp1933
g104
asbasbasbag61
(g77
g63
NtRp1934
(dp1935
g66
(dp1936
sg75
g1015
sg68
(lp1937
g61
(g82
g63
NtRp1938
(dp1939
g66
(dp1940
g86
g87
ssg75
g1934
sg68
(lp1941
S'wsgi_multithread'
p1942
asbag61
(g82
g63
NtRp1943
(dp1944
g66
(dp1945
g93
g94
ssg75
g1934
sg68
(lp1946
S':'
asbag61
(g82
g63
NtRp1947
(dp1948
g66
(dp1949
sg75
g1934
sg68
(lp1950
g61
(g62
g63
NtRp1951
(dp1952
g66
(dp1953
g74
I4
ssg75
g1947
sg68
(lp1954
S'True'
p1955
asbasbasbag61
(g77
g63
NtRp1956
(dp1957
g66
(dp1958
sg75
g1015
sg68
(lp1959
g61
(g82
g63
NtRp1960
(dp1961
g66
(dp1962
g86
g87
ssg75
g1956
sg68
(lp1963
S'wsgi_run_once'
p1964
asbag61
(g82
g63
NtRp1965
(dp1966
g66
(dp1967
g93
g94
ssg75
g1956
sg68
(lp1968
S':'
asbag61
(g82
g63
NtRp1969
(dp1970
g66
(dp1971
sg75
g1956
sg68
(lp1972
g61
(g62
g63
NtRp1973
(dp1974
g66
(dp1975
g74
I4
ssg75
g1969
sg68
(lp1976
g104
asbasbasbag61
(g77
g63
NtRp1977
(dp1978
g66
(dp1979
sg75
g1015
sg68
(lp1980
g61
(g82
g63
NtRp1981
(dp1982
g66
(dp1983
g86
g87
ssg75
g1977
sg68
(lp1984
S'wsgi_url_scheme'
p1985
asbag61
(g82
g63
NtRp1986
(dp1987
g66
(dp1988
g93
g94
ssg75
g1977
sg68
(lp1989
S':'
asbag61
(g82
g63
NtRp1990
(dp1991
g66
(dp1992
sg75
g1977
sg68
(lp1993
g61
(g62
g63
NtRp1994
(dp1995
g66
(dp1996
g74
I4
ssg75
g1990
sg68
(lp1997
S'http'
p1998
asbasbasbag61
(g77
g63
NtRp1999
(dp2000
g66
(dp2001
sg75
g1015
sg68
(lp2002
g61
(g82
g63
NtRp2003
(dp2004
g66
(dp2005
g86
g87
ssg75
g1999
sg68
(lp2006
S'wsgi_version'
p2007
asbag61
(g82
g63
NtRp2008
(dp2009
g66
(dp2010
g93
g94
ssg75
g1999
sg68
(lp2011
S':'
asbag61
(g82
g63
NtRp2012
(dp2013
g66
(dp2014
sg75
g1999
sg68
(lp2015
g61
(g62
g63
NtRp2016
(dp2017
g66
(dp2018
g74
I4
ssg75
g2012
sg68
(lp2019
g61
(g70
g63
NtRp2020
(dp2021
g66
(dp2022
g74
I3
ssg75
Nsg68
(lp2023
g61
(g77
g63
NtRp2024
(dp2025
g66
(dp2026
sg75
g2020
sg68
(lp2027
g61
(g82
g63
NtRp2028
(dp2029
g66
(dp2030
sg75
g2024
sg68
(lp2031
g61
(g62
g63
NtRp2032
(dp2033
g66
(dp2034
g74
I3
ssg75
g2028
sg68
(lp2035
S'1'
asbasbasbag61
(g77
g63
NtRp2036
(dp2037
g66
(dp2038
sg75
g2020
sg68
(lp2039
g61
(g82
g63
NtRp2040
(dp2041
g66
(dp2042
sg75
g2036
sg68
(lp2043
g61
(g62
g63
NtRp2044
(dp2045
g66
(dp2046
g74
I3
ssg75
g2040
sg68
(lp2047
S'0'
asbasbasbasbasbasbasbasbasbasbasbag61
(g77
g63
NtRp2048
(dp2049
g66
(dp2050
sg75
g71
sg68
(lp2051
g61
(g82
g63
NtRp2052
(dp2053
g66
(dp2054
g86
g87
ssg75
g2048
sg68
(lp2055
S'extension'
p2056
asbag61
(g82
g63
NtRp2057
(dp2058
g66
(dp2059
g93
g94
ssg75
g2048
sg68
(lp2060
S':'
asbag61
(g82
g63
NtRp2061
(dp2062
g66
(dp2063
sg75
g2048
sg68
(lp2064
g61
(g62
g63
NtRp2065
(dp2066
g66
(dp2067
g74
I5
ssg75
g2061
sg68
(lp2068
S'html'
p2069
asbasbasbag61
(g77
g63
NtRp2070
(dp2071
g66
(dp2072
sg75
g71
sg68
(lp2073
g61
(g82
g63
NtRp2074
(dp2075
g66
(dp2076
g86
g87
ssg75
g2070
sg68
(lp2077
S'folder'
p2078
asbag61
(g82
g63
NtRp2079
(dp2080
g66
(dp2081
g93
g94
ssg75
g2070
sg68
(lp2082
S':'
asbag61
(g82
g63
NtRp2083
(dp2084
g66
(dp2085
sg75
g2070
sg68
(lp2086
g61
(g62
g63
NtRp2087
(dp2088
g66
(dp2089
g74
I5
ssg75
g2083
sg68
(lp2090
S'c:\\Users\\rochacbruno\\jul12\\cursojulho12\\web2py\\applications\\ecommerce\\'
p2091
asbasbasbag61
(g77
g63
NtRp2092
(dp2093
g66
(dp2094
sg75
g71
sg68
(lp2095
g61
(g82
g63
NtRp2096
(dp2097
g66
(dp2098
g86
g87
ssg75
g2092
sg68
(lp2099
S'function'
p2100
asbag61
(g82
g63
NtRp2101
(dp2102
g66
(dp2103
g93
g94
ssg75
g2092
sg68
(lp2104
S':'
asbag61
(g82
g63
NtRp2105
(dp2106
g66
(dp2107
sg75
g2092
sg68
(lp2108
g61
(g62
g63
NtRp2109
(dp2110
g66
(dp2111
g74
I5
ssg75
g2105
sg68
(lp2112
S'new'
p2113
asbasbasbag61
(g77
g63
NtRp2114
(dp2115
g66
(dp2116
sg75
g71
sg68
(lp2117
g61
(g82
g63
NtRp2118
(dp2119
g66
(dp2120
g86
g87
ssg75
g2114
sg68
(lp2121
S'get_vars'
p2122
asbag61
(g82
g63
NtRp2123
(dp2124
g66
(dp2125
g93
g94
ssg75
g2114
sg68
(lp2126
S':'
asbag61
(g82
g63
NtRp2127
(dp2128
g66
(dp2129
sg75
g2114
sg68
(lp2130
g61
(g62
g63
NtRp2131
(dp2132
g66
(dp2133
g74
I5
ssg75
g2127
sg68
(lp2134
g61
(g70
g63
NtRp2135
(dp2136
g66
(dp2137
g74
I4
ssg75
Nsg68
(lp2138
sbasbasbasbag61
(g77
g63
NtRp2139
(dp2140
g66
(dp2141
sg75
g71
sg68
(lp2142
g61
(g82
g63
NtRp2143
(dp2144
g66
(dp2145
g86
g87
ssg75
g2139
sg68
(lp2146
S'global_settings'
p2147
asbag61
(g82
g63
NtRp2148
(dp2149
g66
(dp2150
g93
g94
ssg75
g2139
sg68
(lp2151
S':'
asbag61
(g82
g63
NtRp2152
(dp2153
g66
(dp2154
sg75
g2139
sg68
(lp2155
g61
(g62
g63
NtRp2156
(dp2157
g66
(dp2158
g74
I5
ssg75
g2152
sg68
(lp2159
g61
(g70
g63
NtRp2160
(dp2161
g66
(dp2162
g74
I4
ssg75
Nsg68
(lp2163
g61
(g77
g63
NtRp2164
(dp2165
g66
(dp2166
sg75
g2160
sg68
(lp2167
g61
(g82
g63
NtRp2168
(dp2169
g66
(dp2170
g86
g87
ssg75
g2164
sg68
(lp2171
g1027
asbag61
(g82
g63
NtRp2172
(dp2173
g66
(dp2174
g93
g94
ssg75
g2164
sg68
(lp2175
S':'
asbag61
(g82
g63
NtRp2176
(dp2177
g66
(dp2178
sg75
g2164
sg68
(lp2179
g61
(g62
g63
NtRp2180
(dp2181
g66
(dp2182
g74
I4
ssg75
g2176
sg68
(lp2183
S"set(['c:\\\\Users\\\\rochacbruno\\\\jul12\\\\cursojulho12\\\\web2py\\\\applications\\\\ecommerce\\\\', 'c:\\\\Users\\\\rochacbruno\\\\jul12\\\\cursojulho12\\\\web2py\\\\applications\\\\admin\\\\'])"
p2184
asbasbasbag61
(g77
g63
NtRp2185
(dp2186
g66
(dp2187
sg75
g2160
sg68
(lp2188
g61
(g82
g63
NtRp2189
(dp2190
g66
(dp2191
g86
g87
ssg75
g2185
sg68
(lp2192
g1049
asbag61
(g82
g63
NtRp2193
(dp2194
g66
(dp2195
g93
g94
ssg75
g2185
sg68
(lp2196
S':'
asbag61
(g82
g63
NtRp2197
(dp2198
g66
(dp2199
sg75
g2185
sg68
(lp2200
g61
(g62
g63
NtRp2201
(dp2202
g66
(dp2203
g74
I4
ssg75
g2197
sg68
(lp2204
g1062
asbasbasbag61
(g77
g63
NtRp2205
(dp2206
g66
(dp2207
sg75
g2160
sg68
(lp2208
g61
(g82
g63
NtRp2209
(dp2210
g66
(dp2211
g86
g87
ssg75
g2205
sg68
(lp2212
g1071
asbag61
(g82
g63
NtRp2213
(dp2214
g66
(dp2215
g93
g94
ssg75
g2205
sg68
(lp2216
S':'
asbag61
(g82
g63
NtRp2217
(dp2218
g66
(dp2219
sg75
g2205
sg68
(lp2220
g61
(g62
g63
NtRp2221
(dp2222
g66
(dp2223
g74
I4
ssg75
g2217
sg68
(lp2224
g61
(g70
g63
NtRp2225
(dp2226
g66
(dp2227
g74
I3
ssg75
Nsg68
(lp2228
sbasbasbasbag61
(g77
g63
NtRp2229
(dp2230
g66
(dp2231
sg75
g2160
sg68
(lp2232
g61
(g82
g63
NtRp2233
(dp2234
g66
(dp2235
g86
g87
ssg75
g2229
sg68
(lp2236
g1096
asbag61
(g82
g63
NtRp2237
(dp2238
g66
(dp2239
g93
g94
ssg75
g2229
sg68
(lp2240
S':'
asbag61
(g82
g63
NtRp2241
(dp2242
g66
(dp2243
sg75
g2229
sg68
(lp2244
g61
(g62
g63
NtRp2245
(dp2246
g66
(dp2247
g74
I4
ssg75
g2241
sg68
(lp2248
S"<Values at 0x2af8be8: {'verbose': False, 'ip': '127.0.0.1', 'with_scheduler': False, 'ips': ['192.168.1.100'], 'shutdown_timeout': 5, 'taskbar': False, 'port': 8000, 'maxthreads': None, 'softcron': False, 'server_name': 'rochacbruno-HP', 'bpython': False, 'nogui': False, 'nocron': True, 'extcron': False, 'run_system_tests': False, 'test': None, 'folder': 'c:\\\\Users\\\\rochacbruno\\\\jul12\\\\cursojulho12\\\\web2py', 'config': '', 'import_models': False, 'winservice': '', 'shell': None, 'run': '', 'log_filename': 'httpserver.log', 'debuglevel': 30, 'args': [''], 'socket_timeout': 5, 'ssl_ca_certificate': None, 'scheduler': None, 'profiler_filename': None, 'ssl_private_key': '', 'password': '1234', 'request_queue_size': 5, 'ssl_certificate': '', 'cronjob': False, 'numthreads': None, 'quiet': False, 'interfaces': None, 'minthreads': None, 'timeout': 10, 'plain': False, 'nobanner': False, 'pid_filename': 'httpserver.pid'}>"
p2249
asbasbasbag61
(g77
g63
NtRp2250
(dp2251
g66
(dp2252
sg75
g2160
sg68
(lp2253
g61
(g82
g63
NtRp2254
(dp2255
g66
(dp2256
g86
g87
ssg75
g2250
sg68
(lp2257
g1162
asbag61
(g82
g63
NtRp2258
(dp2259
g66
(dp2260
g93
g94
ssg75
g2250
sg68
(lp2261
S':'
asbag61
(g82
g63
NtRp2262
(dp2263
g66
(dp2264
sg75
g2250
sg68
(lp2265
g61
(g62
g63
NtRp2266
(dp2267
g66
(dp2268
g74
I4
ssg75
g2262
sg68
(lp2269
S'set([])'
p2270
asbasbasbag61
(g77
g63
NtRp2271
(dp2272
g66
(dp2273
sg75
g2160
sg68
(lp2274
g61
(g82
g63
NtRp2275
(dp2276
g66
(dp2277
g86
g87
ssg75
g2271
sg68
(lp2278
g1184
asbag61
(g82
g63
NtRp2279
(dp2280
g66
(dp2281
g93
g94
ssg75
g2271
sg68
(lp2282
S':'
asbag61
(g82
g63
NtRp2283
(dp2284
g66
(dp2285
sg75
g2271
sg68
(lp2286
g61
(g62
g63
NtRp2287
(dp2288
g66
(dp2289
g74
I4
ssg75
g2283
sg68
(lp2290
g104
asbasbasbag61
(g77
g63
NtRp2291
(dp2292
g66
(dp2293
sg75
g2160
sg68
(lp2294
g61
(g82
g63
NtRp2295
(dp2296
g66
(dp2297
g86
g87
ssg75
g2291
sg68
(lp2298
g1205
asbag61
(g82
g63
NtRp2299
(dp2300
g66
(dp2301
g93
g94
ssg75
g2291
sg68
(lp2302
S':'
asbag61
(g82
g63
NtRp2303
(dp2304
g66
(dp2305
sg75
g2291
sg68
(lp2306
g61
(g62
g63
NtRp2307
(dp2308
g66
(dp2309
g74
I4
ssg75
g2303
sg68
(lp2310
g1218
asbasbasbag61
(g77
g63
NtRp2311
(dp2312
g66
(dp2313
sg75
g2160
sg68
(lp2314
g61
(g82
g63
NtRp2315
(dp2316
g66
(dp2317
g86
g87
ssg75
g2311
sg68
(lp2318
g1445
asbag61
(g82
g63
NtRp2319
(dp2320
g66
(dp2321
g93
g94
ssg75
g2311
sg68
(lp2322
S':'
asbag61
(g82
g63
NtRp2323
(dp2324
g66
(dp2325
sg75
g2311
sg68
(lp2326
g61
(g62
g63
NtRp2327
(dp2328
g66
(dp2329
g74
I4
ssg75
g2323
sg68
(lp2330
g104
asbasbasbag61
(g77
g63
NtRp2331
(dp2332
g66
(dp2333
sg75
g2160
sg68
(lp2334
g61
(g82
g63
NtRp2335
(dp2336
g66
(dp2337
g86
g87
ssg75
g2331
sg68
(lp2338
g1466
asbag61
(g82
g63
NtRp2339
(dp2340
g66
(dp2341
g93
g94
ssg75
g2331
sg68
(lp2342
S':'
asbag61
(g82
g63
NtRp2343
(dp2344
g66
(dp2345
sg75
g2331
sg68
(lp2346
g61
(g62
g63
NtRp2347
(dp2348
g66
(dp2349
g74
I4
ssg75
g2343
sg68
(lp2350
g104
asbasbasbag61
(g77
g63
NtRp2351
(dp2352
g66
(dp2353
sg75
g2160
sg68
(lp2354
g61
(g82
g63
NtRp2355
(dp2356
g66
(dp2357
g86
g87
ssg75
g2351
sg68
(lp2358
g1768
asbag61
(g82
g63
NtRp2359
(dp2360
g66
(dp2361
g93
g94
ssg75
g2351
sg68
(lp2362
S':'
asbag61
(g82
g63
NtRp2363
(dp2364
g66
(dp2365
sg75
g2351
sg68
(lp2366
g61
(g62
g63
NtRp2367
(dp2368
g66
(dp2369
g74
I4
ssg75
g2363
sg68
(lp2370
g61
(g70
g63
NtRp2371
(dp2372
g66
(dp2373
g74
I3
ssg75
Nsg68
(lp2374
g61
(g77
g63
NtRp2375
(dp2376
g66
(dp2377
sg75
g2371
sg68
(lp2378
g61
(g82
g63
NtRp2379
(dp2380
g66
(dp2381
sg75
g2375
sg68
(lp2382
g61
(g62
g63
NtRp2383
(dp2384
g66
(dp2385
g74
I3
ssg75
g2379
sg68
(lp2386
S'2'
asbasbasbag61
(g77
g63
NtRp2387
(dp2388
g66
(dp2389
sg75
g2371
sg68
(lp2390
g61
(g82
g63
NtRp2391
(dp2392
g66
(dp2393
sg75
g2387
sg68
(lp2394
g61
(g62
g63
NtRp2395
(dp2396
g66
(dp2397
g74
I3
ssg75
g2391
sg68
(lp2398
S'0'
asbasbasbag61
(g77
g63
NtRp2399
(dp2400
g66
(dp2401
sg75
g2371
sg68
(lp2402
g61
(g82
g63
NtRp2403
(dp2404
g66
(dp2405
sg75
g2399
sg68
(lp2406
g61
(g62
g63
NtRp2407
(dp2408
g66
(dp2409
g74
I3
ssg75
g2403
sg68
(lp2410
S'0'
asbasbasbag61
(g77
g63
NtRp2411
(dp2412
g66
(dp2413
sg75
g2371
sg68
(lp2414
g61
(g82
g63
NtRp2415
(dp2416
g66
(dp2417
sg75
g2411
sg68
(lp2418
g61
(g62
g63
NtRp2419
(dp2420
g66
(dp2421
g74
I3
ssg75
g2415
sg68
(lp2422
S'datetime.datetime(2012, 8, 10, 13, 1, 31)'
p2423
asbasbasbag61
(g77
g63
NtRp2424
(dp2425
g66
(dp2426
sg75
g2371
sg68
(lp2427
g61
(g82
g63
NtRp2428
(dp2429
g66
(dp2430
sg75
g2424
sg68
(lp2431
g61
(g62
g63
NtRp2432
(dp2433
g66
(dp2434
g74
I3
ssg75
g2428
sg68
(lp2435
g1846
asbasbasbasbasbasbasbasbasbasbasbag61
(g77
g63
NtRp2436
(dp2437
g66
(dp2438
sg75
g71
sg68
(lp2439
g61
(g82
g63
NtRp2440
(dp2441
g66
(dp2442
g86
g87
ssg75
g2436
sg68
(lp2443
S'is_https'
p2444
asbag61
(g82
g63
NtRp2445
(dp2446
g66
(dp2447
g93
g94
ssg75
g2436
sg68
(lp2448
S':'
asbag61
(g82
g63
NtRp2449
(dp2450
g66
(dp2451
sg75
g2436
sg68
(lp2452
g61
(g62
g63
NtRp2453
(dp2454
g66
(dp2455
g74
I5
ssg75
g2449
sg68
(lp2456
g104
asbasbasbag61
(g77
g63
NtRp2457
(dp2458
g66
(dp2459
sg75
g71
sg68
(lp2460
g61
(g82
g63
NtRp2461
(dp2462
g66
(dp2463
g86
g87
ssg75
g2457
sg68
(lp2464
S'is_local'
p2465
asbag61
(g82
g63
NtRp2466
(dp2467
g66
(dp2468
g93
g94
ssg75
g2457
sg68
(lp2469
S':'
asbag61
(g82
g63
NtRp2470
(dp2471
g66
(dp2472
sg75
g2457
sg68
(lp2473
g61
(g62
g63
NtRp2474
(dp2475
g66
(dp2476
g74
I5
ssg75
g2470
sg68
(lp2477
g1955
asbasbasbag61
(g77
g63
NtRp2478
(dp2479
g66
(dp2480
sg75
g71
sg68
(lp2481
g61
(g82
g63
NtRp2482
(dp2483
g66
(dp2484
g86
g87
ssg75
g2478
sg68
(lp2485
S'is_restful'
p2486
asbag61
(g82
g63
NtRp2487
(dp2488
g66
(dp2489
g93
g94
ssg75
g2478
sg68
(lp2490
S':'
asbag61
(g82
g63
NtRp2491
(dp2492
g66
(dp2493
sg75
g2478
sg68
(lp2494
g61
(g62
g63
NtRp2495
(dp2496
g66
(dp2497
g74
I5
ssg75
g2491
sg68
(lp2498
g104
asbasbasbag61
(g77
g63
NtRp2499
(dp2500
g66
(dp2501
sg75
g71
sg68
(lp2502
g61
(g82
g63
NtRp2503
(dp2504
g66
(dp2505
g86
g87
ssg75
g2499
sg68
(lp2506
S'now'
p2507
asbag61
(g82
g63
NtRp2508
(dp2509
g66
(dp2510
g93
g94
ssg75
g2499
sg68
(lp2511
S':'
asbag61
(g82
g63
NtRp2512
(dp2513
g66
(dp2514
sg75
g2499
sg68
(lp2515
g61
(g62
g63
NtRp2516
(dp2517
g66
(dp2518
g74
I5
ssg75
g2512
sg68
(lp2519
S'datetime.datetime(2012, 8, 12, 14, 12, 16, 26000)'
p2520
asbasbasbag61
(g77
g63
NtRp2521
(dp2522
g66
(dp2523
sg75
g71
sg68
(lp2524
g61
(g82
g63
NtRp2525
(dp2526
g66
(dp2527
g86
g87
ssg75
g2521
sg68
(lp2528
S'post_vars'
p2529
asbag61
(g82
g63
NtRp2530
(dp2531
g66
(dp2532
g93
g94
ssg75
g2521
sg68
(lp2533
S':'
asbag61
(g82
g63
NtRp2534
(dp2535
g66
(dp2536
sg75
g2521
sg68
(lp2537
g61
(g62
g63
NtRp2538
(dp2539
g66
(dp2540
g74
I5
ssg75
g2534
sg68
(lp2541
g61
(g70
g63
NtRp2542
(dp2543
g66
(dp2544
g74
I4
ssg75
Nsg68
(lp2545
g61
(g77
g63
NtRp2546
(dp2547
g66
(dp2548
sg75
g2542
sg68
(lp2549
g61
(g82
g63
NtRp2550
(dp2551
g66
(dp2552
g86
g87
ssg75
g2546
sg68
(lp2553
S'description'
p2554
asbag61
(g82
g63
NtRp2555
(dp2556
g66
(dp2557
g93
g94
ssg75
g2546
sg68
(lp2558
S':'
asbag61
(g82
g63
NtRp2559
(dp2560
g66
(dp2561
sg75
g2546
sg68
(lp2562
g61
(g62
g63
NtRp2563
(dp2564
g66
(dp2565
g74
I4
ssg75
g2559
sg68
(lp2566
S'\xc3\xa9 uma fruta'
p2567
asbasbasbag61
(g77
g63
NtRp2568
(dp2569
g66
(dp2570
sg75
g2542
sg68
(lp2571
g61
(g82
g63
NtRp2572
(dp2573
g66
(dp2574
g86
g87
ssg75
g2568
sg68
(lp2575
S'name'
p2576
asbag61
(g82
g63
NtRp2577
(dp2578
g66
(dp2579
g93
g94
ssg75
g2568
sg68
(lp2580
S':'
asbag61
(g82
g63
NtRp2581
(dp2582
g66
(dp2583
sg75
g2568
sg68
(lp2584
g61
(g62
g63
NtRp2585
(dp2586
g66
(dp2587
g74
I4
ssg75
g2581
sg68
(lp2588
S'Banana'
p2589
asbasbasbasbasbasbasbag61
(g77
g63
NtRp2590
(dp2591
g66
(dp2592
sg75
g71
sg68
(lp2593
g61
(g82
g63
NtRp2594
(dp2595
g66
(dp2596
g86
g87
ssg75
g2590
sg68
(lp2597
S'url'
p2598
asbag61
(g82
g63
NtRp2599
(dp2600
g66
(dp2601
g93
g94
ssg75
g2590
sg68
(lp2602
S':'
asbag61
(g82
g63
NtRp2603
(dp2604
g66
(dp2605
sg75
g2590
sg68
(lp2606
g61
(g62
g63
NtRp2607
(dp2608
g66
(dp2609
g74
I5
ssg75
g2603
sg68
(lp2610
S'/product/new'
p2611
asbasbasbag61
(g77
g63
NtRp2612
(dp2613
g66
(dp2614
sg75
g71
sg68
(lp2615
g61
(g82
g63
NtRp2616
(dp2617
g66
(dp2618
g86
g87
ssg75
g2612
sg68
(lp2619
S'utcnow'
p2620
asbag61
(g82
g63
NtRp2621
(dp2622
g66
(dp2623
g93
g94
ssg75
g2612
sg68
(lp2624
S':'
asbag61
(g82
g63
NtRp2625
(dp2626
g66
(dp2627
sg75
g2612
sg68
(lp2628
g61
(g62
g63
NtRp2629
(dp2630
g66
(dp2631
g74
I5
ssg75
g2625
sg68
(lp2632
S'datetime.datetime(2012, 8, 12, 17, 12, 16, 26000)'
p2633
asbasbasbag61
(g77
g63
NtRp2634
(dp2635
g66
(dp2636
sg75
g71
sg68
(lp2637
g61
(g82
g63
NtRp2638
(dp2639
g66
(dp2640
g86
g87
ssg75
g2634
sg68
(lp2641
S'uuid'
p2642
asbag61
(g82
g63
NtRp2643
(dp2644
g66
(dp2645
g93
g94
ssg75
g2634
sg68
(lp2646
S':'
asbag61
(g82
g63
NtRp2647
(dp2648
g66
(dp2649
sg75
g2634
sg68
(lp2650
g61
(g62
g63
NtRp2651
(dp2652
g66
(dp2653
g74
I5
ssg75
g2647
sg68
(lp2654
S'ecommerce/127.0.0.1.2012-08-12.14-12-16.f0afbaf7-44b2-43c5-b25a-b19fbdb1e9fe'
p2655
asbasbasbag61
(g77
g63
NtRp2656
(dp2657
g66
(dp2658
sg75
g71
sg68
(lp2659
g61
(g82
g63
NtRp2660
(dp2661
g66
(dp2662
g86
g87
ssg75
g2656
sg68
(lp2663
S'vars'
p2664
asbag61
(g82
g63
NtRp2665
(dp2666
g66
(dp2667
g93
g94
ssg75
g2656
sg68
(lp2668
S':'
asbag61
(g82
g63
NtRp2669
(dp2670
g66
(dp2671
sg75
g2656
sg68
(lp2672
g61
(g62
g63
NtRp2673
(dp2674
g66
(dp2675
g74
I5
ssg75
g2669
sg68
(lp2676
g61
(g70
g63
NtRp2677
(dp2678
g66
(dp2679
g74
I4
ssg75
Nsg68
(lp2680
g61
(g77
g63
NtRp2681
(dp2682
g66
(dp2683
sg75
g2677
sg68
(lp2684
g61
(g82
g63
NtRp2685
(dp2686
g66
(dp2687
g86
g87
ssg75
g2681
sg68
(lp2688
g2554
asbag61
(g82
g63
NtRp2689
(dp2690
g66
(dp2691
g93
g94
ssg75
g2681
sg68
(lp2692
S':'
asbag61
(g82
g63
NtRp2693
(dp2694
g66
(dp2695
sg75
g2681
sg68
(lp2696
g61
(g62
g63
NtRp2697
(dp2698
g66
(dp2699
g74
I4
ssg75
g2693
sg68
(lp2700
g2567
asbasbasbag61
(g77
g63
NtRp2701
(dp2702
g66
(dp2703
sg75
g2677
sg68
(lp2704
g61
(g82
g63
NtRp2705
(dp2706
g66
(dp2707
g86
g87
ssg75
g2701
sg68
(lp2708
g2576
asbag61
(g82
g63
NtRp2709
(dp2710
g66
(dp2711
g93
g94
ssg75
g2701
sg68
(lp2712
S':'
asbag61
(g82
g63
NtRp2713
(dp2714
g66
(dp2715
sg75
g2701
sg68
(lp2716
g61
(g62
g63
NtRp2717
(dp2718
g66
(dp2719
g74
I4
ssg75
g2713
sg68
(lp2720
g2589
asbasbasbasbasbasbasbag61
(g77
g63
NtRp2721
(dp2722
g66
(dp2723
sg75
g71
sg68
(lp2724
g61
(g82
g63
NtRp2725
(dp2726
g66
(dp2727
g86
g87
ssg75
g2721
sg68
(lp2728
S'wsgi'
p2729
asbag61
(g82
g63
NtRp2730
(dp2731
g66
(dp2732
g93
g94
ssg75
g2721
sg68
(lp2733
S':'
asbag61
(g82
g63
NtRp2734
(dp2735
g66
(dp2736
sg75
g2721
sg68
(lp2737
g61
(g62
g63
NtRp2738
(dp2739
g66
(dp2740
g74
I5
ssg75
g2734
sg68
(lp2741
g61
(g70
g63
NtRp2742
(dp2743
g66
(dp2744
g74
I4
ssg75
Nsg68
(lp2745
g61
(g77
g63
NtRp2746
(dp2747
g66
(dp2748
sg75
g2742
sg68
(lp2749
g61
(g82
g63
NtRp2750
(dp2751
g66
(dp2752
g86
g87
ssg75
g2746
sg68
(lp2753
S'environ'
p2754
asbag61
(g82
g63
NtRp2755
(dp2756
g66
(dp2757
g93
g94
ssg75
g2746
sg68
(lp2758
S':'
asbag61
(g82
g63
NtRp2759
(dp2760
g66
(dp2761
sg75
g2746
sg68
(lp2762
g61
(g62
g63
NtRp2763
(dp2764
g66
(dp2765
g74
I4
ssg75
g2759
sg68
(lp2766
g61
(g70
g63
NtRp2767
(dp2768
g66
(dp2769
g74
I3
ssg75
Nsg68
(lp2770
g61
(g77
g63
NtRp2771
(dp2772
g66
(dp2773
sg75
g2767
sg68
(lp2774
g61
(g82
g63
NtRp2775
(dp2776
g66
(dp2777
g86
g87
ssg75
g2771
sg68
(lp2778
S'CONTENT_LENGTH'
p2779
asbag61
(g82
g63
NtRp2780
(dp2781
g66
(dp2782
g93
g94
ssg75
g2771
sg68
(lp2783
S':'
asbag61
(g82
g63
NtRp2784
(dp2785
g66
(dp2786
sg75
g2771
sg68
(lp2787
g61
(g62
g63
NtRp2788
(dp2789
g66
(dp2790
g74
I3
ssg75
g2784
sg68
(lp2791
g1131
asbasbasbag61
(g77
g63
NtRp2792
(dp2793
g66
(dp2794
sg75
g2767
sg68
(lp2795
g61
(g82
g63
NtRp2796
(dp2797
g66
(dp2798
g86
g87
ssg75
g2792
sg68
(lp2799
S'CONTENT_TYPE'
p2800
asbag61
(g82
g63
NtRp2801
(dp2802
g66
(dp2803
g93
g94
ssg75
g2792
sg68
(lp2804
S':'
asbag61
(g82
g63
NtRp2805
(dp2806
g66
(dp2807
sg75
g2792
sg68
(lp2808
g61
(g62
g63
NtRp2809
(dp2810
g66
(dp2811
g74
I3
ssg75
g2805
sg68
(lp2812
g1153
asbasbasbag61
(g77
g63
NtRp2813
(dp2814
g66
(dp2815
sg75
g2767
sg68
(lp2816
g61
(g82
g63
NtRp2817
(dp2818
g66
(dp2819
g86
g87
ssg75
g2813
sg68
(lp2820
S'HTTP_ACCEPT'
p2821
asbag61
(g82
g63
NtRp2822
(dp2823
g66
(dp2824
g93
g94
ssg75
g2813
sg68
(lp2825
S':'
asbag61
(g82
g63
NtRp2826
(dp2827
g66
(dp2828
sg75
g2813
sg68
(lp2829
g61
(g62
g63
NtRp2830
(dp2831
g66
(dp2832
g74
I3
ssg75
g2826
sg68
(lp2833
g1240
asbasbasbag61
(g77
g63
NtRp2834
(dp2835
g66
(dp2836
sg75
g2767
sg68
(lp2837
g61
(g82
g63
NtRp2838
(dp2839
g66
(dp2840
g86
g87
ssg75
g2834
sg68
(lp2841
S'HTTP_ACCEPT_ENCODING'
p2842
asbag61
(g82
g63
NtRp2843
(dp2844
g66
(dp2845
g93
g94
ssg75
g2834
sg68
(lp2846
S':'
asbag61
(g82
g63
NtRp2847
(dp2848
g66
(dp2849
sg75
g2834
sg68
(lp2850
g61
(g62
g63
NtRp2851
(dp2852
g66
(dp2853
g74
I3
ssg75
g2847
sg68
(lp2854
g1262
asbasbasbag61
(g77
g63
NtRp2855
(dp2856
g66
(dp2857
sg75
g2767
sg68
(lp2858
g61
(g82
g63
NtRp2859
(dp2860
g66
(dp2861
g86
g87
ssg75
g2855
sg68
(lp2862
S'HTTP_ACCEPT_LANGUAGE'
p2863
asbag61
(g82
g63
NtRp2864
(dp2865
g66
(dp2866
g93
g94
ssg75
g2855
sg68
(lp2867
S':'
asbag61
(g82
g63
NtRp2868
(dp2869
g66
(dp2870
sg75
g2855
sg68
(lp2871
g61
(g62
g63
NtRp2872
(dp2873
g66
(dp2874
g74
I3
ssg75
g2868
sg68
(lp2875
g1284
asbasbasbag61
(g77
g63
NtRp2876
(dp2877
g66
(dp2878
sg75
g2767
sg68
(lp2879
g61
(g82
g63
NtRp2880
(dp2881
g66
(dp2882
g86
g87
ssg75
g2876
sg68
(lp2883
S'HTTP_CONNECTION'
p2884
asbag61
(g82
g63
NtRp2885
(dp2886
g66
(dp2887
g93
g94
ssg75
g2876
sg68
(lp2888
S':'
asbag61
(g82
g63
NtRp2889
(dp2890
g66
(dp2891
sg75
g2876
sg68
(lp2892
g61
(g62
g63
NtRp2893
(dp2894
g66
(dp2895
g74
I3
ssg75
g2889
sg68
(lp2896
g1306
asbasbasbag61
(g77
g63
NtRp2897
(dp2898
g66
(dp2899
sg75
g2767
sg68
(lp2900
g61
(g82
g63
NtRp2901
(dp2902
g66
(dp2903
g86
g87
ssg75
g2897
sg68
(lp2904
S'HTTP_CONTENT_LENGTH'
p2905
asbag61
(g82
g63
NtRp2906
(dp2907
g66
(dp2908
g93
g94
ssg75
g2897
sg68
(lp2909
S':'
asbag61
(g82
g63
NtRp2910
(dp2911
g66
(dp2912
sg75
g2897
sg68
(lp2913
g61
(g62
g63
NtRp2914
(dp2915
g66
(dp2916
g74
I3
ssg75
g2910
sg68
(lp2917
g1131
asbasbasbag61
(g77
g63
NtRp2918
(dp2919
g66
(dp2920
sg75
g2767
sg68
(lp2921
g61
(g82
g63
NtRp2922
(dp2923
g66
(dp2924
g86
g87
ssg75
g2918
sg68
(lp2925
S'HTTP_CONTENT_TYPE'
p2926
asbag61
(g82
g63
NtRp2927
(dp2928
g66
(dp2929
g93
g94
ssg75
g2918
sg68
(lp2930
S':'
asbag61
(g82
g63
NtRp2931
(dp2932
g66
(dp2933
sg75
g2918
sg68
(lp2934
g61
(g62
g63
NtRp2935
(dp2936
g66
(dp2937
g74
I3
ssg75
g2931
sg68
(lp2938
g1153
asbasbasbag61
(g77
g63
NtRp2939
(dp2940
g66
(dp2941
sg75
g2767
sg68
(lp2942
g61
(g82
g63
NtRp2943
(dp2944
g66
(dp2945
g86
g87
ssg75
g2939
sg68
(lp2946
S'HTTP_COOKIE'
p2947
asbag61
(g82
g63
NtRp2948
(dp2949
g66
(dp2950
g93
g94
ssg75
g2939
sg68
(lp2951
S':'
asbag61
(g82
g63
NtRp2952
(dp2953
g66
(dp2954
sg75
g2939
sg68
(lp2955
g61
(g62
g63
NtRp2956
(dp2957
g66
(dp2958
g74
I3
ssg75
g2952
sg68
(lp2959
g1370
asbasbasbag61
(g77
g63
NtRp2960
(dp2961
g66
(dp2962
sg75
g2767
sg68
(lp2963
g61
(g82
g63
NtRp2964
(dp2965
g66
(dp2966
g86
g87
ssg75
g2960
sg68
(lp2967
S'HTTP_HOST'
p2968
asbag61
(g82
g63
NtRp2969
(dp2970
g66
(dp2971
g93
g94
ssg75
g2960
sg68
(lp2972
S':'
asbag61
(g82
g63
NtRp2973
(dp2974
g66
(dp2975
sg75
g2960
sg68
(lp2976
g61
(g62
g63
NtRp2977
(dp2978
g66
(dp2979
g74
I3
ssg75
g2973
sg68
(lp2980
g1392
asbasbasbag61
(g77
g63
NtRp2981
(dp2982
g66
(dp2983
sg75
g2767
sg68
(lp2984
g61
(g82
g63
NtRp2985
(dp2986
g66
(dp2987
g86
g87
ssg75
g2981
sg68
(lp2988
S'HTTP_REFERER'
p2989
asbag61
(g82
g63
NtRp2990
(dp2991
g66
(dp2992
g93
g94
ssg75
g2981
sg68
(lp2993
S':'
asbag61
(g82
g63
NtRp2994
(dp2995
g66
(dp2996
sg75
g2981
sg68
(lp2997
g61
(g62
g63
NtRp2998
(dp2999
g66
(dp3000
g74
I3
ssg75
g2994
sg68
(lp3001
g1414
asbasbasbag61
(g77
g63
NtRp3002
(dp3003
g66
(dp3004
sg75
g2767
sg68
(lp3005
g61
(g82
g63
NtRp3006
(dp3007
g66
(dp3008
g86
g87
ssg75
g3002
sg68
(lp3009
S'HTTP_USER_AGENT'
p3010
asbag61
(g82
g63
NtRp3011
(dp3012
g66
(dp3013
g93
g94
ssg75
g3002
sg68
(lp3014
S':'
asbag61
(g82
g63
NtRp3015
(dp3016
g66
(dp3017
sg75
g3002
sg68
(lp3018
g61
(g62
g63
NtRp3019
(dp3020
g66
(dp3021
g74
I3
ssg75
g3015
sg68
(lp3022
g1436
asbasbasbag61
(g77
g63
NtRp3023
(dp3024
g66
(dp3025
sg75
g2767
sg68
(lp3026
g61
(g82
g63
NtRp3027
(dp3028
g66
(dp3029
g86
g87
ssg75
g3023
sg68
(lp3030
S'PATH_INFO'
p3031
asbag61
(g82
g63
NtRp3032
(dp3033
g66
(dp3034
g93
g94
ssg75
g3023
sg68
(lp3035
S':'
asbag61
(g82
g63
NtRp3036
(dp3037
g66
(dp3038
sg75
g3023
sg68
(lp3039
g61
(g62
g63
NtRp3040
(dp3041
g66
(dp3042
g74
I3
ssg75
g3036
sg68
(lp3043
g1500
asbasbasbag61
(g77
g63
NtRp3044
(dp3045
g66
(dp3046
sg75
g2767
sg68
(lp3047
g61
(g82
g63
NtRp3048
(dp3049
g66
(dp3050
g86
g87
ssg75
g3044
sg68
(lp3051
S'QUERY_STRING'
p3052
asbag61
(g82
g63
NtRp3053
(dp3054
g66
(dp3055
g93
g94
ssg75
g3044
sg68
(lp3056
S':'
asbag61
(g82
g63
NtRp3057
(dp3058
g66
(dp3059
sg75
g3044
sg68
(lp3060
g61
(g62
g63
NtRp3061
(dp3062
g66
(dp3063
g74
I3
ssg75
g3057
sg68
(lp3064
S''
asbasbasbag61
(g77
g63
NtRp3065
(dp3066
g66
(dp3067
sg75
g2767
sg68
(lp3068
g61
(g82
g63
NtRp3069
(dp3070
g66
(dp3071
g86
g87
ssg75
g3065
sg68
(lp3072
S'REMOTE_ADDR'
p3073
asbag61
(g82
g63
NtRp3074
(dp3075
g66
(dp3076
g93
g94
ssg75
g3065
sg68
(lp3077
S':'
asbag61
(g82
g63
NtRp3078
(dp3079
g66
(dp3080
sg75
g3065
sg68
(lp3081
g61
(g62
g63
NtRp3082
(dp3083
g66
(dp3084
g74
I3
ssg75
g3078
sg68
(lp3085
g194
asbasbasbag61
(g77
g63
NtRp3086
(dp3087
g66
(dp3088
sg75
g2767
sg68
(lp3089
g61
(g82
g63
NtRp3090
(dp3091
g66
(dp3092
g86
g87
ssg75
g3086
sg68
(lp3093
S'REMOTE_PORT'
p3094
asbag61
(g82
g63
NtRp3095
(dp3096
g66
(dp3097
g93
g94
ssg75
g3086
sg68
(lp3098
S':'
asbag61
(g82
g63
NtRp3099
(dp3100
g66
(dp3101
sg75
g3086
sg68
(lp3102
g61
(g62
g63
NtRp3103
(dp3104
g66
(dp3105
g74
I3
ssg75
g3099
sg68
(lp3106
g1564
asbasbasbag61
(g77
g63
NtRp3107
(dp3108
g66
(dp3109
sg75
g2767
sg68
(lp3110
g61
(g82
g63
NtRp3111
(dp3112
g66
(dp3113
g86
g87
ssg75
g3107
sg68
(lp3114
S'REQUEST_METHOD'
p3115
asbag61
(g82
g63
NtRp3116
(dp3117
g66
(dp3118
g93
g94
ssg75
g3107
sg68
(lp3119
S':'
asbag61
(g82
g63
NtRp3120
(dp3121
g66
(dp3122
sg75
g3107
sg68
(lp3123
g61
(g62
g63
NtRp3124
(dp3125
g66
(dp3126
g74
I3
ssg75
g3120
sg68
(lp3127
g1586
asbasbasbag61
(g77
g63
NtRp3128
(dp3129
g66
(dp3130
sg75
g2767
sg68
(lp3131
g61
(g82
g63
NtRp3132
(dp3133
g66
(dp3134
g86
g87
ssg75
g3128
sg68
(lp3135
S'REQUEST_URI'
p3136
asbag61
(g82
g63
NtRp3137
(dp3138
g66
(dp3139
g93
g94
ssg75
g3128
sg68
(lp3140
S':'
asbag61
(g82
g63
NtRp3141
(dp3142
g66
(dp3143
sg75
g3128
sg68
(lp3144
g61
(g62
g63
NtRp3145
(dp3146
g66
(dp3147
g74
I3
ssg75
g3141
sg68
(lp3148
g1608
asbasbasbag61
(g77
g63
NtRp3149
(dp3150
g66
(dp3151
sg75
g2767
sg68
(lp3152
g61
(g82
g63
NtRp3153
(dp3154
g66
(dp3155
g86
g87
ssg75
g3149
sg68
(lp3156
S'SCRIPT_NAME'
p3157
asbag61
(g82
g63
NtRp3158
(dp3159
g66
(dp3160
g93
g94
ssg75
g3149
sg68
(lp3161
S':'
asbag61
(g82
g63
NtRp3162
(dp3163
g66
(dp3164
sg75
g3149
sg68
(lp3165
g61
(g62
g63
NtRp3166
(dp3167
g66
(dp3168
g74
I3
ssg75
g3162
sg68
(lp3169
S''
asbasbasbag61
(g77
g63
NtRp3170
(dp3171
g66
(dp3172
sg75
g2767
sg68
(lp3173
g61
(g82
g63
NtRp3174
(dp3175
g66
(dp3176
g86
g87
ssg75
g3170
sg68
(lp3177
S'SERVER_NAME'
p3178
asbag61
(g82
g63
NtRp3179
(dp3180
g66
(dp3181
g93
g94
ssg75
g3170
sg68
(lp3182
S':'
asbag61
(g82
g63
NtRp3183
(dp3184
g66
(dp3185
sg75
g3170
sg68
(lp3186
g61
(g62
g63
NtRp3187
(dp3188
g66
(dp3189
g74
I3
ssg75
g3183
sg68
(lp3190
g1651
asbasbasbag61
(g77
g63
NtRp3191
(dp3192
g66
(dp3193
sg75
g2767
sg68
(lp3194
g61
(g82
g63
NtRp3195
(dp3196
g66
(dp3197
g86
g87
ssg75
g3191
sg68
(lp3198
S'SERVER_PORT'
p3199
asbag61
(g82
g63
NtRp3200
(dp3201
g66
(dp3202
g93
g94
ssg75
g3191
sg68
(lp3203
S':'
asbag61
(g82
g63
NtRp3204
(dp3205
g66
(dp3206
sg75
g3191
sg68
(lp3207
g61
(g62
g63
NtRp3208
(dp3209
g66
(dp3210
g74
I3
ssg75
g3204
sg68
(lp3211
g1673
asbasbasbag61
(g77
g63
NtRp3212
(dp3213
g66
(dp3214
sg75
g2767
sg68
(lp3215
g61
(g82
g63
NtRp3216
(dp3217
g66
(dp3218
g86
g87
ssg75
g3212
sg68
(lp3219
S'SERVER_PROTOCOL'
p3220
asbag61
(g82
g63
NtRp3221
(dp3222
g66
(dp3223
g93
g94
ssg75
g3212
sg68
(lp3224
S':'
asbag61
(g82
g63
NtRp3225
(dp3226
g66
(dp3227
sg75
g3212
sg68
(lp3228
g61
(g62
g63
NtRp3229
(dp3230
g66
(dp3231
g74
I3
ssg75
g3225
sg68
(lp3232
g1695
asbasbasbag61
(g77
g63
NtRp3233
(dp3234
g66
(dp3235
sg75
g2767
sg68
(lp3236
g61
(g82
g63
NtRp3237
(dp3238
g66
(dp3239
g86
g87
ssg75
g3233
sg68
(lp3240
S'SERVER_SOFTWARE'
p3241
asbag61
(g82
g63
NtRp3242
(dp3243
g66
(dp3244
g93
g94
ssg75
g3233
sg68
(lp3245
S':'
asbag61
(g82
g63
NtRp3246
(dp3247
g66
(dp3248
sg75
g3233
sg68
(lp3249
g61
(g62
g63
NtRp3250
(dp3251
g66
(dp3252
g74
I3
ssg75
g3246
sg68
(lp3253
g1717
asbasbasbag61
(g77
g63
NtRp3254
(dp3255
g66
(dp3256
sg75
g2767
sg68
(lp3257
g61
(g82
g63
NtRp3258
(dp3259
g66
(dp3260
g86
g87
ssg75
g3254
sg68
(lp3261
S'WEB2PY_ORIGINAL_URI'
p3262
asbag61
(g82
g63
NtRp3263
(dp3264
g66
(dp3265
g93
g94
ssg75
g3254
sg68
(lp3266
S':'
asbag61
(g82
g63
NtRp3267
(dp3268
g66
(dp3269
sg75
g3254
sg68
(lp3270
g61
(g62
g63
NtRp3271
(dp3272
g66
(dp3273
g74
I3
ssg75
g3267
sg68
(lp3274
g1500
asbasbasbag61
(g77
g63
NtRp3275
(dp3276
g66
(dp3277
sg75
g2767
sg68
(lp3278
g61
(g82
g63
NtRp3279
(dp3280
g66
(dp3281
g86
g87
ssg75
g3275
sg68
(lp3282
S'wsgi.errors'
p3283
asbag61
(g82
g63
NtRp3284
(dp3285
g66
(dp3286
g93
g94
ssg75
g3275
sg68
(lp3287
S':'
asbag61
(g82
g63
NtRp3288
(dp3289
g66
(dp3290
sg75
g3275
sg68
(lp3291
g61
(g62
g63
NtRp3292
(dp3293
g66
(dp3294
g74
I3
ssg75
g3288
sg68
(lp3295
S"<open file '<stderr>', mode 'w' at 0x012750D0>"
p3296
asbasbasbag61
(g77
g63
NtRp3297
(dp3298
g66
(dp3299
sg75
g2767
sg68
(lp3300
g61
(g82
g63
NtRp3301
(dp3302
g66
(dp3303
g86
g87
ssg75
g3297
sg68
(lp3304
S'wsgi.file_wrapper'
p3305
asbag61
(g82
g63
NtRp3306
(dp3307
g66
(dp3308
g93
g94
ssg75
g3297
sg68
(lp3309
S':'
asbag61
(g82
g63
NtRp3310
(dp3311
g66
(dp3312
sg75
g3297
sg68
(lp3313
g61
(g62
g63
NtRp3314
(dp3315
g66
(dp3316
g74
I3
ssg75
g3310
sg68
(lp3317
S'<class wsgiref.util.FileWrapper at 0x02A383B0>'
p3318
asbasbasbag61
(g77
g63
NtRp3319
(dp3320
g66
(dp3321
sg75
g2767
sg68
(lp3322
g61
(g82
g63
NtRp3323
(dp3324
g66
(dp3325
g86
g87
ssg75
g3319
sg68
(lp3326
S'wsgi.input'
p3327
asbag61
(g82
g63
NtRp3328
(dp3329
g66
(dp3330
g93
g94
ssg75
g3319
sg68
(lp3331
S':'
asbag61
(g82
g63
NtRp3332
(dp3333
g66
(dp3334
sg75
g3319
sg68
(lp3335
g61
(g62
g63
NtRp3336
(dp3337
g66
(dp3338
g74
I3
ssg75
g3332
sg68
(lp3339
S"<open file '<fdopen>', mode 'w+b' at 0x05A57758>"
p3340
asbasbasbag61
(g77
g63
NtRp3341
(dp3342
g66
(dp3343
sg75
g2767
sg68
(lp3344
g61
(g82
g63
NtRp3345
(dp3346
g66
(dp3347
g86
g87
ssg75
g3341
sg68
(lp3348
S'wsgi.multiprocess'
p3349
asbag61
(g82
g63
NtRp3350
(dp3351
g66
(dp3352
g93
g94
ssg75
g3341
sg68
(lp3353
S':'
asbag61
(g82
g63
NtRp3354
(dp3355
g66
(dp3356
sg75
g3341
sg68
(lp3357
g61
(g62
g63
NtRp3358
(dp3359
g66
(dp3360
g74
I3
ssg75
g3354
sg68
(lp3361
g104
asbasbasbag61
(g77
g63
NtRp3362
(dp3363
g66
(dp3364
sg75
g2767
sg68
(lp3365
g61
(g82
g63
NtRp3366
(dp3367
g66
(dp3368
g86
g87
ssg75
g3362
sg68
(lp3369
S'wsgi.multithread'
p3370
asbag61
(g82
g63
NtRp3371
(dp3372
g66
(dp3373
g93
g94
ssg75
g3362
sg68
(lp3374
S':'
asbag61
(g82
g63
NtRp3375
(dp3376
g66
(dp3377
sg75
g3362
sg68
(lp3378
g61
(g62
g63
NtRp3379
(dp3380
g66
(dp3381
g74
I3
ssg75
g3375
sg68
(lp3382
g1955
asbasbasbag61
(g77
g63
NtRp3383
(dp3384
g66
(dp3385
sg75
g2767
sg68
(lp3386
g61
(g82
g63
NtRp3387
(dp3388
g66
(dp3389
g86
g87
ssg75
g3383
sg68
(lp3390
S'wsgi.run_once'
p3391
asbag61
(g82
g63
NtRp3392
(dp3393
g66
(dp3394
g93
g94
ssg75
g3383
sg68
(lp3395
S':'
asbag61
(g82
g63
NtRp3396
(dp3397
g66
(dp3398
sg75
g3383
sg68
(lp3399
g61
(g62
g63
NtRp3400
(dp3401
g66
(dp3402
g74
I3
ssg75
g3396
sg68
(lp3403
g104
asbasbasbag61
(g77
g63
NtRp3404
(dp3405
g66
(dp3406
sg75
g2767
sg68
(lp3407
g61
(g82
g63
NtRp3408
(dp3409
g66
(dp3410
g86
g87
ssg75
g3404
sg68
(lp3411
S'wsgi.url_scheme'
p3412
asbag61
(g82
g63
NtRp3413
(dp3414
g66
(dp3415
g93
g94
ssg75
g3404
sg68
(lp3416
S':'
asbag61
(g82
g63
NtRp3417
(dp3418
g66
(dp3419
sg75
g3404
sg68
(lp3420
g61
(g62
g63
NtRp3421
(dp3422
g66
(dp3423
g74
I3
ssg75
g3417
sg68
(lp3424
g1998
asbasbasbag61
(g77
g63
NtRp3425
(dp3426
g66
(dp3427
sg75
g2767
sg68
(lp3428
g61
(g82
g63
NtRp3429
(dp3430
g66
(dp3431
g86
g87
ssg75
g3425
sg68
(lp3432
S'wsgi.version'
p3433
asbag61
(g82
g63
NtRp3434
(dp3435
g66
(dp3436
g93
g94
ssg75
g3425
sg68
(lp3437
S':'
asbag61
(g82
g63
NtRp3438
(dp3439
g66
(dp3440
sg75
g3425
sg68
(lp3441
g61
(g62
g63
NtRp3442
(dp3443
g66
(dp3444
g74
I3
ssg75
g3438
sg68
(lp3445
S'1'
asbasbasbasbasbasbasbasbasbasbasbasbasbsS'frames'
p3446
(lp3447
(dp3448
S'file'
p3449
S'c:\\Users\\rochacbruno\\jul12\\cursojulho12\\web2py\\gluon\\restricted.py'
p3450
sS'dump'
p3451
(dp3452
S'environment'
p3453
S"{'A': <class 'gluon.html.A'>, 'Auth': <class 'gluon.tools.Auth'>, 'B': <class 'gluon.html.B'>, 'BEAUTIFY': <class 'gluon.html.BEAUTIFY'>, 'BODY': <class 'gluon.html.BODY'>, 'BR': <class 'gluon.html.BR'>, 'BUTTON': <class 'gluon.html.BUTTON'>, 'CAT': <class 'gluon.html.CAT'>, 'CENTER': <class 'gluon.html.CENTER'>, 'CLEANUP': <class 'gluon.validators.CLEANUP'>, ...}"
p3454
sS'ccode'
p3455
S'<code object <module> at 0546C260, file "c:\\User...ations\\ecommerce\\controllers/product.py", line 3>'
p3456
ssS'lnum'
p3457
I205
sS'lines'
p3458
(dp3459
I200
S'    try:'
p3460
sI201
S'        if type(code) == types.CodeType:'
p3461
sI202
S'            ccode = code'
p3462
sI203
S'        else:'
p3463
sI204
S'            ccode = compile2(code,layer)'
p3464
sI205
S'        exec ccode in environment'
p3465
sI206
S'    except HTTP:'
p3466
sI207
S'        raise'
p3467
sI208
S'    except RestrictedError:'
p3468
sI209
S'        # do not encapsulate (obfuscate) the original RestrictedError'
p3469
ssS'call'
p3470
S"(code='# coding: utf-8\\n\\ndef show():\\n    # pegar produto...         ):\\nresponse._vars=response._caller(new)\\n', environment={'A': <class 'gluon.html.A'>, 'Auth': <class 'gluon.tools.Auth'>, 'B': <class 'gluon.html.B'>, 'BEAUTIFY': <class 'gluon.html.BEAUTIFY'>, 'BODY': <class 'gluon.html.BODY'>, 'BR': <class 'gluon.html.BR'>, 'BUTTON': <class 'gluon.html.BUTTON'>, 'CAT': <class 'gluon.html.CAT'>, 'CENTER': <class 'gluon.html.CENTER'>, 'CLEANUP': <class 'gluon.validators.CLEANUP'>, ...}, layer=r'c:\\Users\\rochacbruno\\jul12\\cursojulho12\\web2py\\applications\\ecommerce\\controllers/product.py')"
p3471
sS'func'
p3472
S'restricted'
p3473
sa(dp3474
g3449
S'c:\\Users\\rochacbruno\\jul12\\cursojulho12\\web2py\\applications\\ecommerce\\controllers\\product.py'
p3475
sg3451
(dp3476
sg3457
I133
sg3458
(dp3477
I128
S'#          formargs={},'
p3478
sI129
S'#          createargs={},'
p3479
sI130
S'#          editargs={},'
p3480
sI131
S'#          viewargs={},'
p3481
sI132
S'#         ):'
p3482
sI123
S"#          formname='web2py_grid',"
p3483
sI124
S"#          search_widget='default',"
p3484
sI125
S'#          ignore_rw = False,'
p3485
sI126
S"#          formstyle = 'table3cols',"
p3486
sI127
S'#          exportclasses = None,'
p3487
ssg3470
S'()'
p3488
sg3472
S'<module>'
p3489
sa(dp3490
g3449
S'c:\\Users\\rochacbruno\\jul12\\cursojulho12\\web2py\\gluon\\globals.py'
p3491
sg3451
(dp3492
S'self'
p3493
S'undefined'
p3494
sS'f'
S'<function new>'
p3495
ssg3457
I182
sg3458
(dp3496
I177
S'        self.menu = []             # used by the default view layout'
p3497
sI178
S'        self.files = []            # used by web2py_ajax.html'
p3498
sI179
S'        self.generic_patterns = [] # patterns to allow generic views'
p3499
sI180
S"        self.delimiters = ('{{','}}')"
p3500
sI181
S'        self._vars = None'
p3501
sI182
S'        self._caller = lambda f: f()'
p3502
sI183
S'        self._view_environment = None'
p3503
sI184
S'        self._custom_commit = None'
p3504
sI185
S'        self._custom_rollback = None'
p3505
sI186
S''
ssg3470
S'(f=<function new>)'
p3506
sg3472
S'<lambda>'
p3507
sa(dp3508
g3449
S'c:\\Users\\rochacbruno\\jul12\\cursojulho12\\web2py\\gluon\\tools.py'
p3509
sg3451
(dp3510
S'action'
p3511
S'<function new>'
p3512
sS'a'
S'()'
p3513
sS'b'
g21
ssg3457
I2750
sg3458
(dp3514
I2752
S'            f.__name__ = action.__name__'
p3515
sI2753
S'            f.__dict__.update(action.__dict__)'
p3516
sI2754
S'            return f'
p3517
sI2745
S'                    flag = condition'
p3518
sI2746
S'                if not flag:'
p3519
sI2747
S'                    current.session.flash = self.messages.access_denied'
p3520
sI2748
S'                    return call_or_redirect('
p3521
sI2749
S'                        self.settings.on_failed_authorization)'
p3522
sI2750
S'                return action(*a, **b)'
p3523
sI2751
S'            f.__doc__ = action.__doc__'
p3524
ssg3470
S'(*a=(), **b={})'
p3525
sg3472
S'f'
sa(dp3526
g3449
S'c:\\Users\\rochacbruno\\jul12\\cursojulho12\\web2py\\gluon\\tools.py'
p3527
sg3451
(dp3528
S'action'
p3529
S'<function new>'
p3530
sS'a'
S'()'
p3531
sS'b'
g21
ssg3457
I2750
sg3458
(dp3532
I2752
S'            f.__name__ = action.__name__'
p3533
sI2753
S'            f.__dict__.update(action.__dict__)'
p3534
sI2754
S'            return f'
p3535
sI2745
S'                    flag = condition'
p3536
sI2746
S'                if not flag:'
p3537
sI2747
S'                    current.session.flash = self.messages.access_denied'
p3538
sI2748
S'                    return call_or_redirect('
p3539
sI2749
S'                        self.settings.on_failed_authorization)'
p3540
sI2750
S'                return action(*a, **b)'
p3541
sI2751
S'            f.__doc__ = action.__doc__'
p3542
ssg3470
S'(*a=(), **b={})'
p3543
sg3472
S'f'
sa(dp3544
g3449
S'c:\\Users\\rochacbruno\\jul12\\cursojulho12\\web2py\\applications\\ecommerce\\controllers\\product.py'
p3545
sg3451
(dp3546
S'global db'
p3547
S"<DAL {'auth_event': <Table {'origin': <gluon.dal...38A7F0>, '_after_insert': []}>, '_migrated': []}>"
p3548
sS'db.product.insert'
p3549
S"<bound method Table.insert of <Table {'origin': ...eld object at 0x055D9DF0>, '_after_insert': []}>>"
p3550
sS'db.product'
p3551
S"<Table {'origin': <gluon.dal.Field object at 0x0...ield object at 0x055D9DF0>, '_after_insert': []}>"
p3552
sS'name'
p3553
S"'Banana'"
p3554
sS'description'
p3555
S"'\\xc3\\xa9 uma fruta'"
p3556
ssg3457
I82
sg3458
(dp3557
I77
S'@auth.requires_membership("admin")'
p3558
sI78
S'def new():'
p3559
sI79
S'    if request.vars:'
p3560
sI80
S'        name = request.vars.name'
p3561
sI81
S'        description = request.vars.description'
p3562
sI82
S'        db.product.insert(name=name, description=description)'
p3563
sI83
S'        db.commit()'
p3564
sI84
S'    # form para add novo produto'
p3565
sI85
S'    # apenas para admin'
p3566
sI86
S'    form = "NOVO PRODUTO"'
p3567
ssg3470
S'()'
p3568
sg3472
S'new'
p3569
sa(dp3570
g3449
S'c:\\Users\\rochacbruno\\jul12\\cursojulho12\\web2py\\gluon\\dal.py'
p3571
sg3451
(dp3572
S'self._listify'
p3573
S"<bound method Table._listify of <Table {'origin'...eld object at 0x055D9DF0>, '_after_insert': []}>>"
p3574
sS'fields'
p3575
S"{'description': '\\xc3\\xa9 uma fruta', 'name': 'Banana'}"
p3576
sS'self'
p3577
S"<Table {'origin': <gluon.dal.Field object at 0x0...ield object at 0x055D9DF0>, '_after_insert': []}>"
p3578
sS'ret'
p3579
g3494
sS'self._db._adapter'
p3580
S'<gluon.dal.SQLiteAdapter object>'
p3581
sS'self._db._adapter.insert'
p3582
S'<bound method SQLiteAdapter.insert of <gluon.dal.SQLiteAdapter object>>'
p3583
sS'self._db'
p3584
S"<DAL {'auth_event': <Table {'origin': <gluon.dal...38A7F0>, '_after_insert': []}>, '_migrated': []}>"
p3585
ssg3457
I7548
sg3458
(dp3586
I7552
S'        return ret'
p3587
sI7543
S'        return self._db._adapter._insert(self,self._listify(fields))'
p3588
sI7544
S''
sI7545
S'    def insert(self, **fields):'
p3589
sI7546
S'        self._attempt_upload(fields)'
p3590
sI7547
S'        if any(f(fields) for f in self._before_insert): return 0'
p3591
sI7548
S'        ret =  self._db._adapter.insert(self,self._listify(fields))'
p3592
sI7549
S'        if ret and self._after_insert:'
p3593
sI7550
S'            fields = Row(fields)'
p3594
sI7551
S'            [f(fields,ret) for f in self._after_insert]'
p3595
ssg3470
S"(self=<Table {'origin': <gluon.dal.Field object at 0x0...ield object at 0x055D9DF0>, '_after_insert': []}>, **fields={'description': '\\xc3\\xa9 uma fruta', 'name': 'Banana'})"
p3596
sg3472
S'insert'
p3597
sa(dp3598
g3449
S'c:\\Users\\rochacbruno\\jul12\\cursojulho12\\web2py\\gluon\\dal.py'
p3599
sg3451
(dp3600
S'e'
S"IntegrityError('product.qtd may not be NULL',)"
p3601
ssg3457
I1055
sg3458
(dp3602
I1056
S"        if hasattr(table,'_primarykey'):"
p3603
sI1057
S'            return dict([(k[0].name, k[1]) for k in fields \\'
p3604
sI1058
S'                             if k[0].name in table._primarykey])'
p3605
sI1059
S'        id = self.lastrowid(table)'
p3606
sI1050
S'        try:'
p3607
sI1051
S'            self.execute(query)'
p3608
sI1052
S'        except Exception, e:'
p3609
sI1053
S'            if isinstance(e,self.integrity_error_class()):'
p3610
sI1054
S'                return None'
p3611
sI1055
S'            raise e'
p3612
ssg3470
S"(self=<gluon.dal.SQLiteAdapter object>, table=<Table {'origin': <gluon.dal.Field object at 0x0...ield object at 0x055D9DF0>, '_after_insert': []}>, fields=[(<gluon.dal.Field object>, 'Banana'), (<gluon.dal.Field object>, '\\xc3\\xa9 uma fruta'), (<gluon.dal.Field object>, False), (<gluon.dal.Field object>, True), (<gluon.dal.Field object>, datetime.datetime(2012, 8, 12, 14, 12, 16, 26000)), (<gluon.dal.Field object>, <function lazy_user>), (<gluon.dal.Field object>, datetime.datetime(2012, 8, 12, 14, 12, 16, 26000)), (<gluon.dal.Field object>, <function lazy_user>)])"
p3613
sg3472
g3597
sasS'pyver'
p3614
S'Python 2.7.2: c:\\Python27\\python.exe'
p3615
sS'session'
p3616
g61
(g62
g63
NtRp3617
(dp3618
g66
(dp3619
sg68
(lp3620
g61
(g70
g63
NtRp3621
(dp3622
g66
(dp3623
g74
I5
ssg75
Nsg68
(lp3624
g61
(g77
g63
NtRp3625
(dp3626
g66
(dp3627
sg75
g3621
sg68
(lp3628
g61
(g82
g63
NtRp3629
(dp3630
g66
(dp3631
g86
g87
ssg75
g3625
sg68
(lp3632
S'auth'
p3633
asbag61
(g82
g63
NtRp3634
(dp3635
g66
(dp3636
g93
g94
ssg75
g3625
sg68
(lp3637
S':'
asbag61
(g82
g63
NtRp3638
(dp3639
g66
(dp3640
sg75
g3625
sg68
(lp3641
g61
(g62
g63
NtRp3642
(dp3643
g66
(dp3644
g74
I5
ssg75
g3638
sg68
(lp3645
g61
(g70
g63
NtRp3646
(dp3647
g66
(dp3648
g74
I4
ssg75
Nsg68
(lp3649
g61
(g77
g63
NtRp3650
(dp3651
g66
(dp3652
sg75
g3646
sg68
(lp3653
g61
(g82
g63
NtRp3654
(dp3655
g66
(dp3656
g86
g87
ssg75
g3650
sg68
(lp3657
S'expiration'
p3658
asbag61
(g82
g63
NtRp3659
(dp3660
g66
(dp3661
g93
g94
ssg75
g3650
sg68
(lp3662
S':'
asbag61
(g82
g63
NtRp3663
(dp3664
g66
(dp3665
sg75
g3650
sg68
(lp3666
g61
(g62
g63
NtRp3667
(dp3668
g66
(dp3669
g74
I4
ssg75
g3663
sg68
(lp3670
S'3600'
p3671
asbasbasbag61
(g77
g63
NtRp3672
(dp3673
g66
(dp3674
sg75
g3646
sg68
(lp3675
g61
(g82
g63
NtRp3676
(dp3677
g66
(dp3678
g86
g87
ssg75
g3672
sg68
(lp3679
S'hmac_key'
p3680
asbag61
(g82
g63
NtRp3681
(dp3682
g66
(dp3683
g93
g94
ssg75
g3672
sg68
(lp3684
S':'
asbag61
(g82
g63
NtRp3685
(dp3686
g66
(dp3687
sg75
g3672
sg68
(lp3688
g61
(g62
g63
NtRp3689
(dp3690
g66
(dp3691
g74
I4
ssg75
g3685
sg68
(lp3692
S'63a937a8-9f01-4792-8c24-d994a9b0248c'
p3693
asbasbasbag61
(g77
g63
NtRp3694
(dp3695
g66
(dp3696
sg75
g3646
sg68
(lp3697
g61
(g82
g63
NtRp3698
(dp3699
g66
(dp3700
g86
g87
ssg75
g3694
sg68
(lp3701
S'last_visit'
p3702
asbag61
(g82
g63
NtRp3703
(dp3704
g66
(dp3705
g93
g94
ssg75
g3694
sg68
(lp3706
S':'
asbag61
(g82
g63
NtRp3707
(dp3708
g66
(dp3709
sg75
g3694
sg68
(lp3710
g61
(g62
g63
NtRp3711
(dp3712
g66
(dp3713
g74
I4
ssg75
g3707
sg68
(lp3714
S'datetime.datetime(2012, 8, 12, 14, 6, 16, 919000)'
p3715
asbasbasbag61
(g77
g63
NtRp3716
(dp3717
g66
(dp3718
sg75
g3646
sg68
(lp3719
g61
(g82
g63
NtRp3720
(dp3721
g66
(dp3722
g86
g87
ssg75
g3716
sg68
(lp3723
S'remember'
p3724
asbag61
(g82
g63
NtRp3725
(dp3726
g66
(dp3727
g93
g94
ssg75
g3716
sg68
(lp3728
S':'
asbag61
(g82
g63
NtRp3729
(dp3730
g66
(dp3731
sg75
g3716
sg68
(lp3732
g61
(g62
g63
NtRp3733
(dp3734
g66
(dp3735
g74
I4
ssg75
g3729
sg68
(lp3736
g104
asbasbasbag61
(g77
g63
NtRp3737
(dp3738
g66
(dp3739
sg75
g3646
sg68
(lp3740
g61
(g82
g63
NtRp3741
(dp3742
g66
(dp3743
g86
g87
ssg75
g3737
sg68
(lp3744
S'user'
p3745
asbag61
(g82
g63
NtRp3746
(dp3747
g66
(dp3748
g93
g94
ssg75
g3737
sg68
(lp3749
S':'
asbag61
(g82
g63
NtRp3750
(dp3751
g66
(dp3752
sg75
g3737
sg68
(lp3753
g61
(g62
g63
NtRp3754
(dp3755
g66
(dp3756
g74
I4
ssg75
g3750
sg68
(lp3757
g61
(g70
g63
NtRp3758
(dp3759
g66
(dp3760
g74
I3
ssg75
Nsg68
(lp3761
g61
(g77
g63
NtRp3762
(dp3763
g66
(dp3764
sg75
g3758
sg68
(lp3765
g61
(g82
g63
NtRp3766
(dp3767
g66
(dp3768
g86
g87
ssg75
g3762
sg68
(lp3769
S'address'
p3770
asbag61
(g82
g63
NtRp3771
(dp3772
g66
(dp3773
g93
g94
ssg75
g3762
sg68
(lp3774
S':'
asbag61
(g82
g63
NtRp3775
(dp3776
g66
(dp3777
sg75
g3762
sg68
(lp3778
g61
(g62
g63
NtRp3779
(dp3780
g66
(dp3781
g74
I3
ssg75
g3775
sg68
(lp3782
S'None'
p3783
asbasbasbag61
(g77
g63
NtRp3784
(dp3785
g66
(dp3786
sg75
g3758
sg68
(lp3787
g61
(g82
g63
NtRp3788
(dp3789
g66
(dp3790
g86
g87
ssg75
g3784
sg68
(lp3791
S'email'
p3792
asbag61
(g82
g63
NtRp3793
(dp3794
g66
(dp3795
g93
g94
ssg75
g3784
sg68
(lp3796
S':'
asbag61
(g82
g63
NtRp3797
(dp3798
g66
(dp3799
sg75
g3784
sg68
(lp3800
g61
(g62
g63
NtRp3801
(dp3802
g66
(dp3803
g74
I3
ssg75
g3797
sg68
(lp3804
S'master@master.com'
p3805
asbasbasbag61
(g77
g63
NtRp3806
(dp3807
g66
(dp3808
sg75
g3758
sg68
(lp3809
g61
(g82
g63
NtRp3810
(dp3811
g66
(dp3812
g86
g87
ssg75
g3806
sg68
(lp3813
S'first_name'
p3814
asbag61
(g82
g63
NtRp3815
(dp3816
g66
(dp3817
g93
g94
ssg75
g3806
sg68
(lp3818
S':'
asbag61
(g82
g63
NtRp3819
(dp3820
g66
(dp3821
sg75
g3806
sg68
(lp3822
g61
(g62
g63
NtRp3823
(dp3824
g66
(dp3825
g74
I3
ssg75
g3819
sg68
(lp3826
S'Admin'
p3827
asbasbasbag61
(g77
g63
NtRp3828
(dp3829
g66
(dp3830
sg75
g3758
sg68
(lp3831
g61
(g82
g63
NtRp3832
(dp3833
g66
(dp3834
g86
g87
ssg75
g3828
sg68
(lp3835
S'house_number'
p3836
asbag61
(g82
g63
NtRp3837
(dp3838
g66
(dp3839
g93
g94
ssg75
g3828
sg68
(lp3840
S':'
asbag61
(g82
g63
NtRp3841
(dp3842
g66
(dp3843
sg75
g3828
sg68
(lp3844
g61
(g62
g63
NtRp3845
(dp3846
g66
(dp3847
g74
I3
ssg75
g3841
sg68
(lp3848
S'None'
p3849
asbasbasbag61
(g77
g63
NtRp3850
(dp3851
g66
(dp3852
sg75
g3758
sg68
(lp3853
g61
(g82
g63
NtRp3854
(dp3855
g66
(dp3856
g86
g87
ssg75
g3850
sg68
(lp3857
S'id'
p3858
asbag61
(g82
g63
NtRp3859
(dp3860
g66
(dp3861
g93
g94
ssg75
g3850
sg68
(lp3862
S':'
asbag61
(g82
g63
NtRp3863
(dp3864
g66
(dp3865
sg75
g3850
sg68
(lp3866
g61
(g62
g63
NtRp3867
(dp3868
g66
(dp3869
g74
I3
ssg75
g3863
sg68
(lp3870
S'2'
asbasbasbag61
(g77
g63
NtRp3871
(dp3872
g66
(dp3873
sg75
g3758
sg68
(lp3874
g61
(g82
g63
NtRp3875
(dp3876
g66
(dp3877
g86
g87
ssg75
g3871
sg68
(lp3878
S'last_name'
p3879
asbag61
(g82
g63
NtRp3880
(dp3881
g66
(dp3882
g93
g94
ssg75
g3871
sg68
(lp3883
S':'
asbag61
(g82
g63
NtRp3884
(dp3885
g66
(dp3886
sg75
g3871
sg68
(lp3887
g61
(g62
g63
NtRp3888
(dp3889
g66
(dp3890
g74
I3
ssg75
g3884
sg68
(lp3891
S'master'
p3892
asbasbasbag61
(g77
g63
NtRp3893
(dp3894
g66
(dp3895
sg75
g3758
sg68
(lp3896
g61
(g82
g63
NtRp3897
(dp3898
g66
(dp3899
g86
g87
ssg75
g3893
sg68
(lp3900
S'password'
p3901
asbag61
(g82
g63
NtRp3902
(dp3903
g66
(dp3904
g93
g94
ssg75
g3893
sg68
(lp3905
S':'
asbag61
(g82
g63
NtRp3906
(dp3907
g66
(dp3908
sg75
g3893
sg68
(lp3909
g61
(g62
g63
NtRp3910
(dp3911
g66
(dp3912
g74
I3
ssg75
g3906
sg68
(lp3913
S'pbkdf2(1000,20,sha512)$a5f0acb20841d038$5d8b88bd859e468ea3d1aa85d81fdffda64de5b5'
p3914
asbasbasbag61
(g77
g63
NtRp3915
(dp3916
g66
(dp3917
sg75
g3758
sg68
(lp3918
g61
(g82
g63
NtRp3919
(dp3920
g66
(dp3921
g86
g87
ssg75
g3915
sg68
(lp3922
S'picture'
p3923
asbag61
(g82
g63
NtRp3924
(dp3925
g66
(dp3926
g93
g94
ssg75
g3915
sg68
(lp3927
S':'
asbag61
(g82
g63
NtRp3928
(dp3929
g66
(dp3930
sg75
g3915
sg68
(lp3931
g61
(g62
g63
NtRp3932
(dp3933
g66
(dp3934
g74
I3
ssg75
g3928
sg68
(lp3935
S'None'
p3936
asbasbasbag61
(g77
g63
NtRp3937
(dp3938
g66
(dp3939
sg75
g3758
sg68
(lp3940
g61
(g82
g63
NtRp3941
(dp3942
g66
(dp3943
g86
g87
ssg75
g3937
sg68
(lp3944
S'registration_id'
p3945
asbag61
(g82
g63
NtRp3946
(dp3947
g66
(dp3948
g93
g94
ssg75
g3937
sg68
(lp3949
S':'
asbag61
(g82
g63
NtRp3950
(dp3951
g66
(dp3952
sg75
g3937
sg68
(lp3953
g61
(g62
g63
NtRp3954
(dp3955
g66
(dp3956
g74
I3
ssg75
g3950
sg68
(lp3957
S''
asbasbasbag61
(g77
g63
NtRp3958
(dp3959
g66
(dp3960
sg75
g3758
sg68
(lp3961
g61
(g82
g63
NtRp3962
(dp3963
g66
(dp3964
g86
g87
ssg75
g3958
sg68
(lp3965
S'registration_key'
p3966
asbag61
(g82
g63
NtRp3967
(dp3968
g66
(dp3969
g93
g94
ssg75
g3958
sg68
(lp3970
S':'
asbag61
(g82
g63
NtRp3971
(dp3972
g66
(dp3973
sg75
g3958
sg68
(lp3974
g61
(g62
g63
NtRp3975
(dp3976
g66
(dp3977
g74
I3
ssg75
g3971
sg68
(lp3978
S''
asbasbasbag61
(g77
g63
NtRp3979
(dp3980
g66
(dp3981
sg75
g3758
sg68
(lp3982
g61
(g82
g63
NtRp3983
(dp3984
g66
(dp3985
g86
g87
ssg75
g3979
sg68
(lp3986
S'reset_password_key'
p3987
asbag61
(g82
g63
NtRp3988
(dp3989
g66
(dp3990
g93
g94
ssg75
g3979
sg68
(lp3991
S':'
asbag61
(g82
g63
NtRp3992
(dp3993
g66
(dp3994
sg75
g3979
sg68
(lp3995
g61
(g62
g63
NtRp3996
(dp3997
g66
(dp3998
g74
I3
ssg75
g3992
sg68
(lp3999
S''
asbasbasbag61
(g77
g63
NtRp4000
(dp4001
g66
(dp4002
sg75
g3758
sg68
(lp4003
g61
(g82
g63
NtRp4004
(dp4005
g66
(dp4006
g86
g87
ssg75
g4000
sg68
(lp4007
S'zipcode'
p4008
asbag61
(g82
g63
NtRp4009
(dp4010
g66
(dp4011
g93
g94
ssg75
g4000
sg68
(lp4012
S':'
asbag61
(g82
g63
NtRp4013
(dp4014
g66
(dp4015
sg75
g4000
sg68
(lp4016
g61
(g62
g63
NtRp4017
(dp4018
g66
(dp4019
g74
I3
ssg75
g4013
sg68
(lp4020
S'None'
p4021
asbasbasbasbasbasbasbag61
(g77
g63
NtRp4022
(dp4023
g66
(dp4024
sg75
g3646
sg68
(lp4025
g61
(g82
g63
NtRp4026
(dp4027
g66
(dp4028
g86
g87
ssg75
g4022
sg68
(lp4029
S'user_groups'
p4030
asbag61
(g82
g63
NtRp4031
(dp4032
g66
(dp4033
g93
g94
ssg75
g4022
sg68
(lp4034
S':'
asbag61
(g82
g63
NtRp4035
(dp4036
g66
(dp4037
sg75
g4022
sg68
(lp4038
g61
(g62
g63
NtRp4039
(dp4040
g66
(dp4041
g74
I4
ssg75
g4035
sg68
(lp4042
g61
(g70
g63
NtRp4043
(dp4044
g66
(dp4045
g74
I3
ssg75
Nsg68
(lp4046
g61
(g77
g63
NtRp4047
(dp4048
g66
(dp4049
sg75
g4043
sg68
(lp4050
g61
(g82
g63
NtRp4051
(dp4052
g66
(dp4053
g86
g87
ssg75
g4047
sg68
(lp4054
S'2'
asbag61
(g82
g63
NtRp4055
(dp4056
g66
(dp4057
g93
g94
ssg75
g4047
sg68
(lp4058
S':'
asbag61
(g82
g63
NtRp4059
(dp4060
g66
(dp4061
sg75
g4047
sg68
(lp4062
g61
(g62
g63
NtRp4063
(dp4064
g66
(dp4065
g74
I3
ssg75
g4059
sg68
(lp4066
S'user_2'
p4067
asbasbasbag61
(g77
g63
NtRp4068
(dp4069
g66
(dp4070
sg75
g4043
sg68
(lp4071
g61
(g82
g63
NtRp4072
(dp4073
g66
(dp4074
g86
g87
ssg75
g4068
sg68
(lp4075
S'3'
asbag61
(g82
g63
NtRp4076
(dp4077
g66
(dp4078
g93
g94
ssg75
g4068
sg68
(lp4079
S':'
asbag61
(g82
g63
NtRp4080
(dp4081
g66
(dp4082
sg75
g4068
sg68
(lp4083
g61
(g62
g63
NtRp4084
(dp4085
g66
(dp4086
g74
I3
ssg75
g4080
sg68
(lp4087
S'admin'
p4088
asbasbasbasbasbasbasbasbasbasbasbag61
(g77
g63
NtRp4089
(dp4090
g66
(dp4091
sg75
g3621
sg68
(lp4092
g61
(g82
g63
NtRp4093
(dp4094
g66
(dp4095
g86
g87
ssg75
g4089
sg68
(lp4096
S'last_query'
p4097
asbag61
(g82
g63
NtRp4098
(dp4099
g66
(dp4100
g93
g94
ssg75
g4089
sg68
(lp4101
S':'
asbag61
(g82
g63
NtRp4102
(dp4103
g66
(dp4104
sg75
g4089
sg68
(lp4105
g61
(g62
g63
NtRp4106
(dp4107
g66
(dp4108
g74
I5
ssg75
g4102
sg68
(lp4109
S'db.auth_membership.id>0'
p4110
asbasbasbasbasbsS'etype'
p4111
S"<class 'sqlite3.IntegrityError'>"
p4112
sS'date'
p4113
S'Sun Aug 12 14:12:16 2012'
p4114
sS'response'
p4115
g61
(g62
g63
NtRp4116
(dp4117
g66
(dp4118
sg68
(lp4119
g61
(g70
g63
NtRp4120
(dp4121
g66
(dp4122
g74
I5
ssg75
Nsg68
(lp4123
g61
(g77
g63
NtRp4124
(dp4125
g66
(dp4126
sg75
g4120
sg68
(lp4127
g61
(g82
g63
NtRp4128
(dp4129
g66
(dp4130
g86
g87
ssg75
g4124
sg68
(lp4131
g159
asbag61
(g82
g63
NtRp4132
(dp4133
g66
(dp4134
g93
g94
ssg75
g4124
sg68
(lp4135
S':'
asbag61
(g82
g63
NtRp4136
(dp4137
g66
(dp4138
sg75
g4124
sg68
(lp4139
g61
(g62
g63
NtRp4140
(dp4141
g66
(dp4142
g74
I5
ssg75
g4136
sg68
(lp4143
S'<cStringIO.StringO object at 0x05A4D0A0>'
p4144
asbasbasbag61
(g77
g63
NtRp4145
(dp4146
g66
(dp4147
sg75
g4120
sg68
(lp4148
g61
(g82
g63
NtRp4149
(dp4150
g66
(dp4151
g86
g87
ssg75
g4145
sg68
(lp4152
g225
asbag61
(g82
g63
NtRp4153
(dp4154
g66
(dp4155
g93
g94
ssg75
g4145
sg68
(lp4156
S':'
asbag61
(g82
g63
NtRp4157
(dp4158
g66
(dp4159
sg75
g4145
sg68
(lp4160
g61
(g62
g63
NtRp4161
(dp4162
g66
(dp4163
g74
I5
ssg75
g4157
sg68
(lp4164
g61
(g70
g63
NtRp4165
(dp4166
g66
(dp4167
g74
I4
ssg75
Nsg68
(lp4168
g61
(g77
g63
NtRp4169
(dp4170
g66
(dp4171
sg75
g4165
sg68
(lp4172
g61
(g82
g63
NtRp4173
(dp4174
g66
(dp4175
g86
g87
ssg75
g4169
sg68
(lp4176
S'session_id_ecommerce'
p4177
asbag61
(g82
g63
NtRp4178
(dp4179
g66
(dp4180
g93
g94
ssg75
g4169
sg68
(lp4181
S':'
asbag61
(g82
g63
NtRp4182
(dp4183
g66
(dp4184
sg75
g4169
sg68
(lp4185
g61
(g62
g63
NtRp4186
(dp4187
g66
(dp4188
g74
I4
ssg75
g4182
sg68
(lp4189
g457
ag61
(g70
g63
NtRp4190
(dp4191
g66
(dp4192
g74
I3
ssg75
Nsg68
(lp4193
g61
(g77
g63
NtRp4194
(dp4195
g66
(dp4196
sg75
g4190
sg68
(lp4197
g61
(g82
g63
NtRp4198
(dp4199
g66
(dp4200
g86
g87
ssg75
g4194
sg68
(lp4201
g276
asbag61
(g82
g63
NtRp4202
(dp4203
g66
(dp4204
g93
g94
ssg75
g4194
sg68
(lp4205
S':'
asbag61
(g82
g63
NtRp4206
(dp4207
g66
(dp4208
sg75
g4194
sg68
(lp4209
g61
(g62
g63
NtRp4210
(dp4211
g66
(dp4212
g74
I3
ssg75
g4206
sg68
(lp4213
S''
asbasbasbag61
(g77
g63
NtRp4214
(dp4215
g66
(dp4216
sg75
g4190
sg68
(lp4217
g61
(g82
g63
NtRp4218
(dp4219
g66
(dp4220
g86
g87
ssg75
g4214
sg68
(lp4221
g297
asbag61
(g82
g63
NtRp4222
(dp4223
g66
(dp4224
g93
g94
ssg75
g4214
sg68
(lp4225
S':'
asbag61
(g82
g63
NtRp4226
(dp4227
g66
(dp4228
sg75
g4214
sg68
(lp4229
g61
(g62
g63
NtRp4230
(dp4231
g66
(dp4232
g74
I3
ssg75
g4226
sg68
(lp4233
S''
asbasbasbag61
(g77
g63
NtRp4234
(dp4235
g66
(dp4236
sg75
g4190
sg68
(lp4237
g61
(g82
g63
NtRp4238
(dp4239
g66
(dp4240
g86
g87
ssg75
g4234
sg68
(lp4241
g318
asbag61
(g82
g63
NtRp4242
(dp4243
g66
(dp4244
g93
g94
ssg75
g4234
sg68
(lp4245
S':'
asbag61
(g82
g63
NtRp4246
(dp4247
g66
(dp4248
sg75
g4234
sg68
(lp4249
g61
(g62
g63
NtRp4250
(dp4251
g66
(dp4252
g74
I3
ssg75
g4246
sg68
(lp4253
S''
asbasbasbag61
(g77
g63
NtRp4254
(dp4255
g66
(dp4256
sg75
g4190
sg68
(lp4257
g61
(g82
g63
NtRp4258
(dp4259
g66
(dp4260
g86
g87
ssg75
g4254
sg68
(lp4261
g339
asbag61
(g82
g63
NtRp4262
(dp4263
g66
(dp4264
g93
g94
ssg75
g4254
sg68
(lp4265
S':'
asbag61
(g82
g63
NtRp4266
(dp4267
g66
(dp4268
sg75
g4254
sg68
(lp4269
g61
(g62
g63
NtRp4270
(dp4271
g66
(dp4272
g74
I3
ssg75
g4266
sg68
(lp4273
S''
asbasbasbag61
(g77
g63
NtRp4274
(dp4275
g66
(dp4276
sg75
g4190
sg68
(lp4277
g61
(g82
g63
NtRp4278
(dp4279
g66
(dp4280
g86
g87
ssg75
g4274
sg68
(lp4281
g360
asbag61
(g82
g63
NtRp4282
(dp4283
g66
(dp4284
g93
g94
ssg75
g4274
sg68
(lp4285
S':'
asbag61
(g82
g63
NtRp4286
(dp4287
g66
(dp4288
sg75
g4274
sg68
(lp4289
g61
(g62
g63
NtRp4290
(dp4291
g66
(dp4292
g74
I3
ssg75
g4286
sg68
(lp4293
S''
asbasbasbag61
(g77
g63
NtRp4294
(dp4295
g66
(dp4296
sg75
g4190
sg68
(lp4297
g61
(g82
g63
NtRp4298
(dp4299
g66
(dp4300
g86
g87
ssg75
g4294
sg68
(lp4301
g381
asbag61
(g82
g63
NtRp4302
(dp4303
g66
(dp4304
g93
g94
ssg75
g4294
sg68
(lp4305
S':'
asbag61
(g82
g63
NtRp4306
(dp4307
g66
(dp4308
sg75
g4294
sg68
(lp4309
g61
(g62
g63
NtRp4310
(dp4311
g66
(dp4312
g74
I3
ssg75
g4306
sg68
(lp4313
S'/'
asbasbasbag61
(g77
g63
NtRp4314
(dp4315
g66
(dp4316
sg75
g4190
sg68
(lp4317
g61
(g82
g63
NtRp4318
(dp4319
g66
(dp4320
g86
g87
ssg75
g4314
sg68
(lp4321
g402
asbag61
(g82
g63
NtRp4322
(dp4323
g66
(dp4324
g93
g94
ssg75
g4314
sg68
(lp4325
S':'
asbag61
(g82
g63
NtRp4326
(dp4327
g66
(dp4328
sg75
g4314
sg68
(lp4329
g61
(g62
g63
NtRp4330
(dp4331
g66
(dp4332
g74
I3
ssg75
g4326
sg68
(lp4333
S''
asbasbasbag61
(g77
g63
NtRp4334
(dp4335
g66
(dp4336
sg75
g4190
sg68
(lp4337
g61
(g82
g63
NtRp4338
(dp4339
g66
(dp4340
g86
g87
ssg75
g4334
sg68
(lp4341
g423
asbag61
(g82
g63
NtRp4342
(dp4343
g66
(dp4344
g93
g94
ssg75
g4334
sg68
(lp4345
S':'
asbag61
(g82
g63
NtRp4346
(dp4347
g66
(dp4348
sg75
g4334
sg68
(lp4349
g61
(g62
g63
NtRp4350
(dp4351
g66
(dp4352
g74
I3
ssg75
g4346
sg68
(lp4353
S''
asbasbasbasbasbasbasbasbasbasbasbag61
(g77
g63
NtRp4354
(dp4355
g66
(dp4356
sg75
g4120
sg68
(lp4357
g61
(g82
g63
NtRp4358
(dp4359
g66
(dp4360
g86
g87
ssg75
g4354
sg68
(lp4361
S'delimiters'
p4362
asbag61
(g82
g63
NtRp4363
(dp4364
g66
(dp4365
g93
g94
ssg75
g4354
sg68
(lp4366
S':'
asbag61
(g82
g63
NtRp4367
(dp4368
g66
(dp4369
sg75
g4354
sg68
(lp4370
g61
(g62
g63
NtRp4371
(dp4372
g66
(dp4373
g74
I5
ssg75
g4367
sg68
(lp4374
g61
(g70
g63
NtRp4375
(dp4376
g66
(dp4377
g74
I4
ssg75
Nsg68
(lp4378
g61
(g77
g63
NtRp4379
(dp4380
g66
(dp4381
sg75
g4375
sg68
(lp4382
g61
(g82
g63
NtRp4383
(dp4384
g66
(dp4385
sg75
g4379
sg68
(lp4386
g61
(g62
g63
NtRp4387
(dp4388
g66
(dp4389
g74
I4
ssg75
g4383
sg68
(lp4390
S'{{'
p4391
asbasbasbag61
(g77
g63
NtRp4392
(dp4393
g66
(dp4394
sg75
g4375
sg68
(lp4395
g61
(g82
g63
NtRp4396
(dp4397
g66
(dp4398
sg75
g4392
sg68
(lp4399
g61
(g62
g63
NtRp4400
(dp4401
g66
(dp4402
g74
I4
ssg75
g4396
sg68
(lp4403
S'}}'
p4404
asbasbasbasbasbasbasbag61
(g77
g63
NtRp4405
(dp4406
g66
(dp4407
sg75
g4120
sg68
(lp4408
g61
(g82
g63
NtRp4409
(dp4410
g66
(dp4411
g86
g87
ssg75
g4405
sg68
(lp4412
S'description'
p4413
asbag61
(g82
g63
NtRp4414
(dp4415
g66
(dp4416
g93
g94
ssg75
g4405
sg68
(lp4417
S':'
asbag61
(g82
g63
NtRp4418
(dp4419
g66
(dp4420
sg75
g4405
sg68
(lp4421
g61
(g62
g63
NtRp4422
(dp4423
g66
(dp4424
g74
I5
ssg75
g4418
sg68
(lp4425
S'Ecommerce'
p4426
asbasbasbag61
(g77
g63
NtRp4427
(dp4428
g66
(dp4429
sg75
g4120
sg68
(lp4430
g61
(g82
g63
NtRp4431
(dp4432
g66
(dp4433
g86
g87
ssg75
g4427
sg68
(lp4434
S'files'
p4435
asbag61
(g82
g63
NtRp4436
(dp4437
g66
(dp4438
g93
g94
ssg75
g4427
sg68
(lp4439
S':'
asbag61
(g82
g63
NtRp4440
(dp4441
g66
(dp4442
sg75
g4427
sg68
(lp4443
g61
(g62
g63
NtRp4444
(dp4445
g66
(dp4446
g74
I5
ssg75
g4440
sg68
(lp4447
g61
(g70
g63
NtRp4448
(dp4449
g66
(dp4450
g74
I4
ssg75
Nsg68
(lp4451
sbasbasbasbag61
(g77
g63
NtRp4452
(dp4453
g66
(dp4454
sg75
g4120
sg68
(lp4455
g61
(g82
g63
NtRp4456
(dp4457
g66
(dp4458
g86
g87
ssg75
g4452
sg68
(lp4459
S'flash'
p4460
asbag61
(g82
g63
NtRp4461
(dp4462
g66
(dp4463
g93
g94
ssg75
g4452
sg68
(lp4464
S':'
asbag61
(g82
g63
NtRp4465
(dp4466
g66
(dp4467
sg75
g4452
sg68
(lp4468
g61
(g62
g63
NtRp4469
(dp4470
g66
(dp4471
g74
I5
ssg75
g4465
sg68
(lp4472
S''
asbasbasbag61
(g77
g63
NtRp4473
(dp4474
g66
(dp4475
sg75
g4120
sg68
(lp4476
g61
(g82
g63
NtRp4477
(dp4478
g66
(dp4479
g86
g87
ssg75
g4473
sg68
(lp4480
S'generic_patterns'
p4481
asbag61
(g82
g63
NtRp4482
(dp4483
g66
(dp4484
g93
g94
ssg75
g4473
sg68
(lp4485
S':'
asbag61
(g82
g63
NtRp4486
(dp4487
g66
(dp4488
sg75
g4473
sg68
(lp4489
g61
(g62
g63
NtRp4490
(dp4491
g66
(dp4492
g74
I5
ssg75
g4486
sg68
(lp4493
g61
(g70
g63
NtRp4494
(dp4495
g66
(dp4496
g74
I4
ssg75
Nsg68
(lp4497
g61
(g77
g63
NtRp4498
(dp4499
g66
(dp4500
sg75
g4494
sg68
(lp4501
g61
(g82
g63
NtRp4502
(dp4503
g66
(dp4504
sg75
g4498
sg68
(lp4505
g61
(g62
g63
NtRp4506
(dp4507
g66
(dp4508
g74
I4
ssg75
g4502
sg68
(lp4509
S'*'
asbasbasbasbasbasbasbag61
(g77
g63
NtRp4510
(dp4511
g66
(dp4512
sg75
g4120
sg68
(lp4513
g61
(g82
g63
NtRp4514
(dp4515
g66
(dp4516
g86
g87
ssg75
g4510
sg68
(lp4517
S'headers'
p4518
asbag61
(g82
g63
NtRp4519
(dp4520
g66
(dp4521
g93
g94
ssg75
g4510
sg68
(lp4522
S':'
asbag61
(g82
g63
NtRp4523
(dp4524
g66
(dp4525
sg75
g4510
sg68
(lp4526
g61
(g62
g63
NtRp4527
(dp4528
g66
(dp4529
g74
I5
ssg75
g4523
sg68
(lp4530
g61
(g70
g63
NtRp4531
(dp4532
g66
(dp4533
g74
I4
ssg75
Nsg68
(lp4534
g61
(g77
g63
NtRp4535
(dp4536
g66
(dp4537
sg75
g4531
sg68
(lp4538
g61
(g82
g63
NtRp4539
(dp4540
g66
(dp4541
g86
g87
ssg75
g4535
sg68
(lp4542
S'Cache-Control'
p4543
asbag61
(g82
g63
NtRp4544
(dp4545
g66
(dp4546
g93
g94
ssg75
g4535
sg68
(lp4547
S':'
asbag61
(g82
g63
NtRp4548
(dp4549
g66
(dp4550
sg75
g4535
sg68
(lp4551
g61
(g62
g63
NtRp4552
(dp4553
g66
(dp4554
g74
I4
ssg75
g4548
sg68
(lp4555
S'no-store, no-cache, must-revalidate, post-check=0, pre-check=0'
p4556
asbasbasbag61
(g77
g63
NtRp4557
(dp4558
g66
(dp4559
sg75
g4531
sg68
(lp4560
g61
(g82
g63
NtRp4561
(dp4562
g66
(dp4563
g86
g87
ssg75
g4557
sg68
(lp4564
S'Content-Type'
p4565
asbag61
(g82
g63
NtRp4566
(dp4567
g66
(dp4568
g93
g94
ssg75
g4557
sg68
(lp4569
S':'
asbag61
(g82
g63
NtRp4570
(dp4571
g66
(dp4572
sg75
g4557
sg68
(lp4573
g61
(g62
g63
NtRp4574
(dp4575
g66
(dp4576
g74
I4
ssg75
g4570
sg68
(lp4577
S'text/html; charset=utf-8'
p4578
asbasbasbag61
(g77
g63
NtRp4579
(dp4580
g66
(dp4581
sg75
g4531
sg68
(lp4582
g61
(g82
g63
NtRp4583
(dp4584
g66
(dp4585
g86
g87
ssg75
g4579
sg68
(lp4586
S'Expires'
p4587
asbag61
(g82
g63
NtRp4588
(dp4589
g66
(dp4590
g93
g94
ssg75
g4579
sg68
(lp4591
S':'
asbag61
(g82
g63
NtRp4592
(dp4593
g66
(dp4594
sg75
g4579
sg68
(lp4595
g61
(g62
g63
NtRp4596
(dp4597
g66
(dp4598
g74
I4
ssg75
g4592
sg68
(lp4599
S'Sun, 12 Aug 2012 17:12:16 GMT'
p4600
asbasbasbag61
(g77
g63
NtRp4601
(dp4602
g66
(dp4603
sg75
g4531
sg68
(lp4604
g61
(g82
g63
NtRp4605
(dp4606
g66
(dp4607
g86
g87
ssg75
g4601
sg68
(lp4608
S'Pragma'
p4609
asbag61
(g82
g63
NtRp4610
(dp4611
g66
(dp4612
g93
g94
ssg75
g4601
sg68
(lp4613
S':'
asbag61
(g82
g63
NtRp4614
(dp4615
g66
(dp4616
sg75
g4601
sg68
(lp4617
g61
(g62
g63
NtRp4618
(dp4619
g66
(dp4620
g74
I4
ssg75
g4614
sg68
(lp4621
S'no-cache'
p4622
asbasbasbag61
(g77
g63
NtRp4623
(dp4624
g66
(dp4625
sg75
g4531
sg68
(lp4626
g61
(g82
g63
NtRp4627
(dp4628
g66
(dp4629
g86
g87
ssg75
g4623
sg68
(lp4630
S'X-Powered-By'
p4631
asbag61
(g82
g63
NtRp4632
(dp4633
g66
(dp4634
g93
g94
ssg75
g4623
sg68
(lp4635
S':'
asbag61
(g82
g63
NtRp4636
(dp4637
g66
(dp4638
sg75
g4623
sg68
(lp4639
g61
(g62
g63
NtRp4640
(dp4641
g66
(dp4642
g74
I4
ssg75
g4636
sg68
(lp4643
S'web2py'
p4644
asbasbasbasbasbasbasbag61
(g77
g63
NtRp4645
(dp4646
g66
(dp4647
sg75
g4120
sg68
(lp4648
g61
(g82
g63
NtRp4649
(dp4650
g66
(dp4651
g86
g87
ssg75
g4645
sg68
(lp4652
S'menu'
p4653
asbag61
(g82
g63
NtRp4654
(dp4655
g66
(dp4656
g93
g94
ssg75
g4645
sg68
(lp4657
S':'
asbag61
(g82
g63
NtRp4658
(dp4659
g66
(dp4660
sg75
g4645
sg68
(lp4661
g61
(g62
g63
NtRp4662
(dp4663
g66
(dp4664
g74
I5
ssg75
g4658
sg68
(lp4665
g61
(g70
g63
NtRp4666
(dp4667
g66
(dp4668
g74
I4
ssg75
Nsg68
(lp4669
sbasbasbasbag61
(g77
g63
NtRp4670
(dp4671
g66
(dp4672
sg75
g4120
sg68
(lp4673
g61
(g82
g63
NtRp4674
(dp4675
g66
(dp4676
g86
g87
ssg75
g4670
sg68
(lp4677
S'meta'
p4678
asbag61
(g82
g63
NtRp4679
(dp4680
g66
(dp4681
g93
g94
ssg75
g4670
sg68
(lp4682
S':'
asbag61
(g82
g63
NtRp4683
(dp4684
g66
(dp4685
sg75
g4670
sg68
(lp4686
g61
(g62
g63
NtRp4687
(dp4688
g66
(dp4689
g74
I5
ssg75
g4683
sg68
(lp4690
g61
(g70
g63
NtRp4691
(dp4692
g66
(dp4693
g74
I4
ssg75
Nsg68
(lp4694
sbasbasbasbag61
(g77
g63
NtRp4695
(dp4696
g66
(dp4697
sg75
g4120
sg68
(lp4698
g61
(g82
g63
NtRp4699
(dp4700
g66
(dp4701
g86
g87
ssg75
g4695
sg68
(lp4702
S'postprocessing'
p4703
asbag61
(g82
g63
NtRp4704
(dp4705
g66
(dp4706
g93
g94
ssg75
g4695
sg68
(lp4707
S':'
asbag61
(g82
g63
NtRp4708
(dp4709
g66
(dp4710
sg75
g4695
sg68
(lp4711
g61
(g62
g63
NtRp4712
(dp4713
g66
(dp4714
g74
I5
ssg75
g4708
sg68
(lp4715
g61
(g70
g63
NtRp4716
(dp4717
g66
(dp4718
g74
I4
ssg75
Nsg68
(lp4719
sbasbasbasbag61
(g77
g63
NtRp4720
(dp4721
g66
(dp4722
sg75
g4120
sg68
(lp4723
g61
(g82
g63
NtRp4724
(dp4725
g66
(dp4726
g86
g87
ssg75
g4720
sg68
(lp4727
S'session_file'
p4728
asbag61
(g82
g63
NtRp4729
(dp4730
g66
(dp4731
g93
g94
ssg75
g4720
sg68
(lp4732
S':'
asbag61
(g82
g63
NtRp4733
(dp4734
g66
(dp4735
sg75
g4720
sg68
(lp4736
g61
(g62
g63
NtRp4737
(dp4738
g66
(dp4739
g74
I5
ssg75
g4733
sg68
(lp4740
S"<open file 'c:\\Users\\rochacbruno\\jul12\\cursojulho12\\web2py\\applications\\ecommerce\\sessions\\127.0.0.1-0fe94d39-4aae-427f-bfbc-597a65cd32c1', mode 'rb+' at 0x0536E5F8>"
p4741
asbasbasbag61
(g77
g63
NtRp4742
(dp4743
g66
(dp4744
sg75
g4120
sg68
(lp4745
g61
(g82
g63
NtRp4746
(dp4747
g66
(dp4748
g86
g87
ssg75
g4742
sg68
(lp4749
S'session_filename'
p4750
asbag61
(g82
g63
NtRp4751
(dp4752
g66
(dp4753
g93
g94
ssg75
g4742
sg68
(lp4754
S':'
asbag61
(g82
g63
NtRp4755
(dp4756
g66
(dp4757
sg75
g4742
sg68
(lp4758
g61
(g62
g63
NtRp4759
(dp4760
g66
(dp4761
g74
I5
ssg75
g4755
sg68
(lp4762
S'c:\\Users\\rochacbruno\\jul12\\cursojulho12\\web2py\\applications\\ecommerce\\sessions\\127.0.0.1-0fe94d39-4aae-427f-bfbc-597a65cd32c1'
p4763
asbasbasbag61
(g77
g63
NtRp4764
(dp4765
g66
(dp4766
sg75
g4120
sg68
(lp4767
g61
(g82
g63
NtRp4768
(dp4769
g66
(dp4770
g86
g87
ssg75
g4764
sg68
(lp4771
S'session_id'
p4772
asbag61
(g82
g63
NtRp4773
(dp4774
g66
(dp4775
g93
g94
ssg75
g4764
sg68
(lp4776
S':'
asbag61
(g82
g63
NtRp4777
(dp4778
g66
(dp4779
sg75
g4764
sg68
(lp4780
g61
(g62
g63
NtRp4781
(dp4782
g66
(dp4783
g74
I5
ssg75
g4777
sg68
(lp4784
g457
asbasbasbag61
(g77
g63
NtRp4785
(dp4786
g66
(dp4787
sg75
g4120
sg68
(lp4788
g61
(g82
g63
NtRp4789
(dp4790
g66
(dp4791
g86
g87
ssg75
g4785
sg68
(lp4792
S'session_id_name'
p4793
asbag61
(g82
g63
NtRp4794
(dp4795
g66
(dp4796
g93
g94
ssg75
g4785
sg68
(lp4797
S':'
asbag61
(g82
g63
NtRp4798
(dp4799
g66
(dp4800
sg75
g4785
sg68
(lp4801
g61
(g62
g63
NtRp4802
(dp4803
g66
(dp4804
g74
I5
ssg75
g4798
sg68
(lp4805
g4177
asbasbasbag61
(g77
g63
NtRp4806
(dp4807
g66
(dp4808
sg75
g4120
sg68
(lp4809
g61
(g82
g63
NtRp4810
(dp4811
g66
(dp4812
g86
g87
ssg75
g4806
sg68
(lp4813
S'session_locked'
p4814
asbag61
(g82
g63
NtRp4815
(dp4816
g66
(dp4817
g93
g94
ssg75
g4806
sg68
(lp4818
S':'
asbag61
(g82
g63
NtRp4819
(dp4820
g66
(dp4821
sg75
g4806
sg68
(lp4822
g61
(g62
g63
NtRp4823
(dp4824
g66
(dp4825
g74
I5
ssg75
g4819
sg68
(lp4826
g1955
asbasbasbag61
(g77
g63
NtRp4827
(dp4828
g66
(dp4829
sg75
g4120
sg68
(lp4830
g61
(g82
g63
NtRp4831
(dp4832
g66
(dp4833
g86
g87
ssg75
g4827
sg68
(lp4834
S'session_new'
p4835
asbag61
(g82
g63
NtRp4836
(dp4837
g66
(dp4838
g93
g94
ssg75
g4827
sg68
(lp4839
S':'
asbag61
(g82
g63
NtRp4840
(dp4841
g66
(dp4842
sg75
g4827
sg68
(lp4843
g61
(g62
g63
NtRp4844
(dp4845
g66
(dp4846
g74
I5
ssg75
g4840
sg68
(lp4847
g104
asbasbasbag61
(g77
g63
NtRp4848
(dp4849
g66
(dp4850
sg75
g4120
sg68
(lp4851
g61
(g82
g63
NtRp4852
(dp4853
g66
(dp4854
g86
g87
ssg75
g4848
sg68
(lp4855
S'status'
p4856
asbag61
(g82
g63
NtRp4857
(dp4858
g66
(dp4859
g93
g94
ssg75
g4848
sg68
(lp4860
S':'
asbag61
(g82
g63
NtRp4861
(dp4862
g66
(dp4863
sg75
g4848
sg68
(lp4864
g61
(g62
g63
NtRp4865
(dp4866
g66
(dp4867
g74
I5
ssg75
g4861
sg68
(lp4868
S'200'
p4869
asbasbasbag61
(g77
g63
NtRp4870
(dp4871
g66
(dp4872
sg75
g4120
sg68
(lp4873
g61
(g82
g63
NtRp4874
(dp4875
g66
(dp4876
g86
g87
ssg75
g4870
sg68
(lp4877
S'title'
p4878
asbag61
(g82
g63
NtRp4879
(dp4880
g66
(dp4881
g93
g94
ssg75
g4870
sg68
(lp4882
S':'
asbag61
(g82
g63
NtRp4883
(dp4884
g66
(dp4885
sg75
g4870
sg68
(lp4886
g61
(g62
g63
NtRp4887
(dp4888
g66
(dp4889
g74
I5
ssg75
g4883
sg68
(lp4890
S'Ecommerce do Bruno | CursodePython.com.br'
p4891
asbasbasbag61
(g77
g63
NtRp4892
(dp4893
g66
(dp4894
sg75
g4120
sg68
(lp4895
g61
(g82
g63
NtRp4896
(dp4897
g66
(dp4898
g86
g87
ssg75
g4892
sg68
(lp4899
g2642
asbag61
(g82
g63
NtRp4900
(dp4901
g66
(dp4902
g93
g94
ssg75
g4892
sg68
(lp4903
S':'
asbag61
(g82
g63
NtRp4904
(dp4905
g66
(dp4906
sg75
g4892
sg68
(lp4907
g61
(g62
g63
NtRp4908
(dp4909
g66
(dp4910
g74
I5
ssg75
g4904
sg68
(lp4911
g2655
asbasbasbag61
(g77
g63
NtRp4912
(dp4913
g66
(dp4914
sg75
g4120
sg68
(lp4915
g61
(g82
g63
NtRp4916
(dp4917
g66
(dp4918
g86
g87
ssg75
g4912
sg68
(lp4919
S'view'
p4920
asbag61
(g82
g63
NtRp4921
(dp4922
g66
(dp4923
g93
g94
ssg75
g4912
sg68
(lp4924
S':'
asbag61
(g82
g63
NtRp4925
(dp4926
g66
(dp4927
sg75
g4912
sg68
(lp4928
g61
(g62
g63
NtRp4929
(dp4930
g66
(dp4931
g74
I5
ssg75
g4925
sg68
(lp4932
S'product/new.html'
p4933
asbasbasbasbasbsS'locals'
p4934
(dp4935
S'query'
p4936
S'"INSERT INTO product(name,description,featured,is...\'2012-08-12 14:12:16\',2,\'2012-08-12 14:12:16\',2);"'
p4937
sS'self'
p4938
S'<gluon.dal.SQLiteAdapter object>'
p4939
sS'e'
S"IntegrityError('product.qtd may not be NULL',)"
p4940
sS'fields'
p4941
S"[(<gluon.dal.Field object>, 'Banana'), (<gluon.dal.Field object>, '\\xc3\\xa9 uma fruta'), (<gluon.dal.Field object>, False), (<gluon.dal.Field object>, True), (<gluon.dal.Field object>, datetime.datetime(2012, 8, 12, 14, 12, 16, 26000)), (<gluon.dal.Field object>, <function lazy_user>), (<gluon.dal.Field object>, datetime.datetime(2012, 8, 12, 14, 12, 16, 26000)), (<gluon.dal.Field object>, <function lazy_user>)]"
p4942
sS'table'
p4943
S"<Table {'origin': <gluon.dal.Field object at 0x0...ield object at 0x055D9DF0>, '_after_insert': []}>"
p4944
sssS'traceback'
p4945
S'Traceback (most recent call last):\n  File "c:\\Users\\rochacbruno\\jul12\\cursojulho12\\web2py\\gluon\\restricted.py", line 205, in restricted\n    exec ccode in environment\n  File "c:\\Users\\rochacbruno\\jul12\\cursojulho12\\web2py\\applications\\ecommerce\\controllers/product.py", line 133, in <module>\n  File "c:\\Users\\rochacbruno\\jul12\\cursojulho12\\web2py\\gluon\\globals.py", line 182, in <lambda>\n    self._caller = lambda f: f()\n  File "c:\\Users\\rochacbruno\\jul12\\cursojulho12\\web2py\\gluon\\tools.py", line 2750, in f\n    return action(*a, **b)\n  File "c:\\Users\\rochacbruno\\jul12\\cursojulho12\\web2py\\gluon\\tools.py", line 2750, in f\n    return action(*a, **b)\n  File "c:\\Users\\rochacbruno\\jul12\\cursojulho12\\web2py\\applications\\ecommerce\\controllers/product.py", line 82, in new\n    db.product.insert(name=name, description=description)\n  File "c:\\Users\\rochacbruno\\jul12\\cursojulho12\\web2py\\gluon\\dal.py", line 7548, in insert\n    ret =  self._db._adapter.insert(self,self._listify(fields))\n  File "c:\\Users\\rochacbruno\\jul12\\cursojulho12\\web2py\\gluon\\dal.py", line 1055, in insert\n    raise e\nIntegrityError: product.qtd may not be NULL\n'
p4946
s.