(dp1
S'output'
p2
S"<type 'exceptions.NameError'> global name 'b' is not defined"
p3
sS'layer'
p4
S'c:\\Users\\rochacbruno\\jul12\\cursojulho12\\web2py\\applications\\ecommerce\\controllers/home.py'
p5
sS'code'
p6
S'# coding: utf-8\n\ndef contact():\n    form =  FORM(\n                 INPUT(_type="text", _name="name", _placeholder=T("Your name")),\n                 BR(),\n                 TEXTAREA("Sua mensagem",_name="message"),\n                 BR(), \n                 BUTTON("Enviar")\n                )\n    return dict(form=form)\n\n\ndef index():\n    products = db(db.product).select(limitby=(0, 100))\n    featured = products.exclude(lambda registro: registro.featured == True)\n    #print db._timings\n    #response.view = "alternate/myhome.html"\n    return dict(products=products, featured=featured)  \n\n\n\n    # objetos = [1,2,3]\n    # import json\n    # return json.dumps(dict(objetos=objetos))\n\n\n    # return DIV(\n    #             UL(\n    #               LI(A("Hello")),\n    #               LI(A("Google", _href="http://www.google.com"))\n    #               )\n    #             )\n\n\ndef user():\n    """\n    exposes:\n    http://..../[app]/default/user/login\n    http://..../[app]/default/user/logout\n    http://..../[app]/default/user/register\n    http://..../[app]/default/user/profile\n    http://..../[app]/default/user/retrieve_password\n    http://..../[app]/default/user/change_password\n    use @auth.requires_login()\n        @auth.requires_membership(\'group name\')\n        @auth.requires_permission(\'read\',\'table name\',record_id)\n    to decorate functions that need access control\n    """\n    if request.args(0) == "register":\n        hidden_fields = [\'zipcode\', \'picture\', \'address\', \'house_number\']\n        for field in hidden_fields:\n            db.auth_user[field].writable = b.auth_user[field].readable = False  \n    return dict(form=auth())\n\ndef download():\n    """\n    allows downloading of uploaded files\n    http://..../[app]/default/download/[filename]\n    """\n    return response.download(request,db)\n\nresponse._vars=response._caller(user)\n'
p7
sS'snapshot'
p8
(dp9
S'exception'
p10
(dp11
S'__hash__'
p12
S"<method-wrapper '__hash__' of exceptions.NameError object>"
p13
sS'__setattr__'
p14
S"<method-wrapper '__setattr__' of exceptions.NameError object>"
p15
sS'__reduce_ex__'
p16
S'<built-in method __reduce_ex__ of exceptions.NameError object>'
p17
sS'__getslice__'
p18
S"<method-wrapper '__getslice__' of exceptions.NameError object>"
p19
sS'__getitem__'
p20
S"<method-wrapper '__getitem__' of exceptions.NameError object>"
p21
sS'__setstate__'
p22
S'<built-in method __setstate__ of exceptions.NameError object>'
p23
sS'__reduce__'
p24
S'<built-in method __reduce__ of exceptions.NameError object>'
p25
sS'__str__'
p26
S"<method-wrapper '__str__' of exceptions.NameError object>"
p27
sS'__format__'
p28
S'<built-in method __format__ of exceptions.NameError object>'
p29
sS'__getattribute__'
p30
S"<method-wrapper '__getattribute__' of exceptions.NameError object>"
p31
sS'__class__'
p32
S"<type 'exceptions.NameError'>"
p33
sS'__unicode__'
p34
S'<built-in method __unicode__ of exceptions.NameError object>'
p35
sS'__delattr__'
p36
S"<method-wrapper '__delattr__' of exceptions.NameError object>"
p37
sS'__subclasshook__'
p38
S'<built-in method __subclasshook__ of type object>'
p39
sS'__repr__'
p40
S"<method-wrapper '__repr__' of exceptions.NameError object>"
p41
sS'args'
p42
S'("global name \'b\' is not defined",)'
p43
sS'__dict__'
p44
S'{}'
p45
sS'__sizeof__'
p46
S'<built-in method __sizeof__ of exceptions.NameError object>'
p47
sS'__doc__'
p48
S"'Name not found globally.'"
p49
sS'__init__'
p50
S"<method-wrapper '__init__' of exceptions.NameError object>"
p51
sS'__new__'
p52
S'<built-in method __new__ of type object>'
p53
ssS'evalue'
p54
S"global name 'b' is not defined"
p55
sS'request'
p56
ccopy_reg
_reconstructor
p57
(cgluon.html
BEAUTIFY
p58
c__builtin__
object
p59
NtRp60
(dp61
S'attributes'
p62
(dp63
sS'components'
p64
(lp65
g57
(cgluon.html
TABLE
p66
g59
NtRp67
(dp68
g62
(dp69
S'level'
p70
I5
ssS'parent'
p71
Nsg64
(lp72
g57
(cgluon.html
TR
p73
g59
NtRp74
(dp75
g62
(dp76
sg71
g67
sg64
(lp77
g57
(cgluon.html
TD
p78
g59
NtRp79
(dp80
g62
(dp81
S'_style'
p82
S'font-weight:bold;vertical-align:top'
p83
ssg71
g74
sg64
(lp84
S'ajax'
p85
asbag57
(g78
g59
NtRp86
(dp87
g62
(dp88
S'_valign'
p89
S'top'
p90
ssg71
g74
sg64
(lp91
S':'
asbag57
(g78
g59
NtRp92
(dp93
g62
(dp94
sg71
g74
sg64
(lp95
g57
(g58
g59
NtRp96
(dp97
g62
(dp98
g70
I5
ssg71
g92
sg64
(lp99
S'False'
p100
asbasbasbag57
(g73
g59
NtRp101
(dp102
g62
(dp103
sg71
g67
sg64
(lp104
g57
(g78
g59
NtRp105
(dp106
g62
(dp107
g82
g83
ssg71
g101
sg64
(lp108
S'application'
p109
asbag57
(g78
g59
NtRp110
(dp111
g62
(dp112
g89
g90
ssg71
g101
sg64
(lp113
S':'
asbag57
(g78
g59
NtRp114
(dp115
g62
(dp116
sg71
g101
sg64
(lp117
g57
(g58
g59
NtRp118
(dp119
g62
(dp120
g70
I5
ssg71
g114
sg64
(lp121
S'ecommerce'
p122
asbasbasbag57
(g73
g59
NtRp123
(dp124
g62
(dp125
sg71
g67
sg64
(lp126
g57
(g78
g59
NtRp127
(dp128
g62
(dp129
g82
g83
ssg71
g123
sg64
(lp130
g42
asbag57
(g78
g59
NtRp131
(dp132
g62
(dp133
g89
g90
ssg71
g123
sg64
(lp134
S':'
asbag57
(g78
g59
NtRp135
(dp136
g62
(dp137
sg71
g123
sg64
(lp138
g57
(g58
g59
NtRp139
(dp140
g62
(dp141
g70
I5
ssg71
g135
sg64
(lp142
g57
(g66
g59
NtRp143
(dp144
g62
(dp145
g70
I4
ssg71
Nsg64
(lp146
g57
(g73
g59
NtRp147
(dp148
g62
(dp149
sg71
g143
sg64
(lp150
g57
(g78
g59
NtRp151
(dp152
g62
(dp153
sg71
g147
sg64
(lp154
g57
(g58
g59
NtRp155
(dp156
g62
(dp157
g70
I4
ssg71
g151
sg64
(lp158
S'register'
p159
asbasbasbasbasbasbasbag57
(g73
g59
NtRp160
(dp161
g62
(dp162
sg71
g67
sg64
(lp163
g57
(g78
g59
NtRp164
(dp165
g62
(dp166
g82
g83
ssg71
g160
sg64
(lp167
S'body'
p168
asbag57
(g78
g59
NtRp169
(dp170
g62
(dp171
g89
g90
ssg71
g160
sg64
(lp172
S':'
asbag57
(g78
g59
NtRp173
(dp174
g62
(dp175
sg71
g160
sg64
(lp176
g57
(g58
g59
NtRp177
(dp178
g62
(dp179
g70
I5
ssg71
g173
sg64
(lp180
S'<cStringIO.StringO object at 0x0585F760>'
p181
asbasbasbag57
(g73
g59
NtRp182
(dp183
g62
(dp184
sg71
g67
sg64
(lp185
g57
(g78
g59
NtRp186
(dp187
g62
(dp188
g82
g83
ssg71
g182
sg64
(lp189
S'client'
p190
asbag57
(g78
g59
NtRp191
(dp192
g62
(dp193
g89
g90
ssg71
g182
sg64
(lp194
S':'
asbag57
(g78
g59
NtRp195
(dp196
g62
(dp197
sg71
g182
sg64
(lp198
g57
(g58
g59
NtRp199
(dp200
g62
(dp201
g70
I5
ssg71
g195
sg64
(lp202
S'127.0.0.1'
p203
asbasbasbag57
(g73
g59
NtRp204
(dp205
g62
(dp206
sg71
g67
sg64
(lp207
g57
(g78
g59
NtRp208
(dp209
g62
(dp210
g82
g83
ssg71
g204
sg64
(lp211
S'controller'
p212
asbag57
(g78
g59
NtRp213
(dp214
g62
(dp215
g89
g90
ssg71
g204
sg64
(lp216
S':'
asbag57
(g78
g59
NtRp217
(dp218
g62
(dp219
sg71
g204
sg64
(lp220
g57
(g58
g59
NtRp221
(dp222
g62
(dp223
g70
I5
ssg71
g217
sg64
(lp224
S'home'
p225
asbasbasbag57
(g73
g59
NtRp226
(dp227
g62
(dp228
sg71
g67
sg64
(lp229
g57
(g78
g59
NtRp230
(dp231
g62
(dp232
g82
g83
ssg71
g226
sg64
(lp233
S'cookies'
p234
asbag57
(g78
g59
NtRp235
(dp236
g62
(dp237
g89
g90
ssg71
g226
sg64
(lp238
S':'
asbag57
(g78
g59
NtRp239
(dp240
g62
(dp241
sg71
g226
sg64
(lp242
g57
(g58
g59
NtRp243
(dp244
g62
(dp245
g70
I5
ssg71
g239
sg64
(lp246
g57
(g66
g59
NtRp247
(dp248
g62
(dp249
g70
I4
ssg71
Nsg64
(lp250
g57
(g73
g59
NtRp251
(dp252
g62
(dp253
sg71
g247
sg64
(lp254
g57
(g78
g59
NtRp255
(dp256
g62
(dp257
g82
g83
ssg71
g251
sg64
(lp258
S'session_id_admin'
p259
asbag57
(g78
g59
NtRp260
(dp261
g62
(dp262
g89
g90
ssg71
g251
sg64
(lp263
S':'
asbag57
(g78
g59
NtRp264
(dp265
g62
(dp266
sg71
g251
sg64
(lp267
g57
(g58
g59
NtRp268
(dp269
g62
(dp270
g70
I4
ssg71
g264
sg64
(lp271
S'127.0.0.1-4873ed00-b716-4b13-a1bb-7fdaa43562f3'
p272
ag57
(g66
g59
NtRp273
(dp274
g62
(dp275
g70
I3
ssg71
Nsg64
(lp276
g57
(g73
g59
NtRp277
(dp278
g62
(dp279
sg71
g273
sg64
(lp280
g57
(g78
g59
NtRp281
(dp282
g62
(dp283
g82
g83
ssg71
g277
sg64
(lp284
S'comment'
p285
asbag57
(g78
g59
NtRp286
(dp287
g62
(dp288
g89
g90
ssg71
g277
sg64
(lp289
S':'
asbag57
(g78
g59
NtRp290
(dp291
g62
(dp292
sg71
g277
sg64
(lp293
g57
(g58
g59
NtRp294
(dp295
g62
(dp296
g70
I3
ssg71
g290
sg64
(lp297
S''
asbasbasbag57
(g73
g59
NtRp298
(dp299
g62
(dp300
sg71
g273
sg64
(lp301
g57
(g78
g59
NtRp302
(dp303
g62
(dp304
g82
g83
ssg71
g298
sg64
(lp305
S'domain'
p306
asbag57
(g78
g59
NtRp307
(dp308
g62
(dp309
g89
g90
ssg71
g298
sg64
(lp310
S':'
asbag57
(g78
g59
NtRp311
(dp312
g62
(dp313
sg71
g298
sg64
(lp314
g57
(g58
g59
NtRp315
(dp316
g62
(dp317
g70
I3
ssg71
g311
sg64
(lp318
S''
asbasbasbag57
(g73
g59
NtRp319
(dp320
g62
(dp321
sg71
g273
sg64
(lp322
g57
(g78
g59
NtRp323
(dp324
g62
(dp325
g82
g83
ssg71
g319
sg64
(lp326
S'expires'
p327
asbag57
(g78
g59
NtRp328
(dp329
g62
(dp330
g89
g90
ssg71
g319
sg64
(lp331
S':'
asbag57
(g78
g59
NtRp332
(dp333
g62
(dp334
sg71
g319
sg64
(lp335
g57
(g58
g59
NtRp336
(dp337
g62
(dp338
g70
I3
ssg71
g332
sg64
(lp339
S''
asbasbasbag57
(g73
g59
NtRp340
(dp341
g62
(dp342
sg71
g273
sg64
(lp343
g57
(g78
g59
NtRp344
(dp345
g62
(dp346
g82
g83
ssg71
g340
sg64
(lp347
S'httponly'
p348
asbag57
(g78
g59
NtRp349
(dp350
g62
(dp351
g89
g90
ssg71
g340
sg64
(lp352
S':'
asbag57
(g78
g59
NtRp353
(dp354
g62
(dp355
sg71
g340
sg64
(lp356
g57
(g58
g59
NtRp357
(dp358
g62
(dp359
g70
I3
ssg71
g353
sg64
(lp360
S''
asbasbasbag57
(g73
g59
NtRp361
(dp362
g62
(dp363
sg71
g273
sg64
(lp364
g57
(g78
g59
NtRp365
(dp366
g62
(dp367
g82
g83
ssg71
g361
sg64
(lp368
S'max-age'
p369
asbag57
(g78
g59
NtRp370
(dp371
g62
(dp372
g89
g90
ssg71
g361
sg64
(lp373
S':'
asbag57
(g78
g59
NtRp374
(dp375
g62
(dp376
sg71
g361
sg64
(lp377
g57
(g58
g59
NtRp378
(dp379
g62
(dp380
g70
I3
ssg71
g374
sg64
(lp381
S''
asbasbasbag57
(g73
g59
NtRp382
(dp383
g62
(dp384
sg71
g273
sg64
(lp385
g57
(g78
g59
NtRp386
(dp387
g62
(dp388
g82
g83
ssg71
g382
sg64
(lp389
S'path'
p390
asbag57
(g78
g59
NtRp391
(dp392
g62
(dp393
g89
g90
ssg71
g382
sg64
(lp394
S':'
asbag57
(g78
g59
NtRp395
(dp396
g62
(dp397
sg71
g382
sg64
(lp398
g57
(g58
g59
NtRp399
(dp400
g62
(dp401
g70
I3
ssg71
g395
sg64
(lp402
S''
asbasbasbag57
(g73
g59
NtRp403
(dp404
g62
(dp405
sg71
g273
sg64
(lp406
g57
(g78
g59
NtRp407
(dp408
g62
(dp409
g82
g83
ssg71
g403
sg64
(lp410
S'secure'
p411
asbag57
(g78
g59
NtRp412
(dp413
g62
(dp414
g89
g90
ssg71
g403
sg64
(lp415
S':'
asbag57
(g78
g59
NtRp416
(dp417
g62
(dp418
sg71
g403
sg64
(lp419
g57
(g58
g59
NtRp420
(dp421
g62
(dp422
g70
I3
ssg71
g416
sg64
(lp423
S''
asbasbasbag57
(g73
g59
NtRp424
(dp425
g62
(dp426
sg71
g273
sg64
(lp427
g57
(g78
g59
NtRp428
(dp429
g62
(dp430
g82
g83
ssg71
g424
sg64
(lp431
S'version'
p432
asbag57
(g78
g59
NtRp433
(dp434
g62
(dp435
g89
g90
ssg71
g424
sg64
(lp436
S':'
asbag57
(g78
g59
NtRp437
(dp438
g62
(dp439
sg71
g424
sg64
(lp440
g57
(g58
g59
NtRp441
(dp442
g62
(dp443
g70
I3
ssg71
g437
sg64
(lp444
S''
asbasbasbasbasbasbasbag57
(g73
g59
NtRp445
(dp446
g62
(dp447
sg71
g247
sg64
(lp448
g57
(g78
g59
NtRp449
(dp450
g62
(dp451
g82
g83
ssg71
g445
sg64
(lp452
S'session_id_ecommerce'
p453
asbag57
(g78
g59
NtRp454
(dp455
g62
(dp456
g89
g90
ssg71
g445
sg64
(lp457
S':'
asbag57
(g78
g59
NtRp458
(dp459
g62
(dp460
sg71
g445
sg64
(lp461
g57
(g58
g59
NtRp462
(dp463
g62
(dp464
g70
I4
ssg71
g458
sg64
(lp465
S'127.0.0.1-0fe94d39-4aae-427f-bfbc-597a65cd32c1'
p466
ag57
(g66
g59
NtRp467
(dp468
g62
(dp469
g70
I3
ssg71
Nsg64
(lp470
g57
(g73
g59
NtRp471
(dp472
g62
(dp473
sg71
g467
sg64
(lp474
g57
(g78
g59
NtRp475
(dp476
g62
(dp477
g82
g83
ssg71
g471
sg64
(lp478
g285
asbag57
(g78
g59
NtRp479
(dp480
g62
(dp481
g89
g90
ssg71
g471
sg64
(lp482
S':'
asbag57
(g78
g59
NtRp483
(dp484
g62
(dp485
sg71
g471
sg64
(lp486
g57
(g58
g59
NtRp487
(dp488
g62
(dp489
g70
I3
ssg71
g483
sg64
(lp490
S''
asbasbasbag57
(g73
g59
NtRp491
(dp492
g62
(dp493
sg71
g467
sg64
(lp494
g57
(g78
g59
NtRp495
(dp496
g62
(dp497
g82
g83
ssg71
g491
sg64
(lp498
g306
asbag57
(g78
g59
NtRp499
(dp500
g62
(dp501
g89
g90
ssg71
g491
sg64
(lp502
S':'
asbag57
(g78
g59
NtRp503
(dp504
g62
(dp505
sg71
g491
sg64
(lp506
g57
(g58
g59
NtRp507
(dp508
g62
(dp509
g70
I3
ssg71
g503
sg64
(lp510
S''
asbasbasbag57
(g73
g59
NtRp511
(dp512
g62
(dp513
sg71
g467
sg64
(lp514
g57
(g78
g59
NtRp515
(dp516
g62
(dp517
g82
g83
ssg71
g511
sg64
(lp518
g327
asbag57
(g78
g59
NtRp519
(dp520
g62
(dp521
g89
g90
ssg71
g511
sg64
(lp522
S':'
asbag57
(g78
g59
NtRp523
(dp524
g62
(dp525
sg71
g511
sg64
(lp526
g57
(g58
g59
NtRp527
(dp528
g62
(dp529
g70
I3
ssg71
g523
sg64
(lp530
S''
asbasbasbag57
(g73
g59
NtRp531
(dp532
g62
(dp533
sg71
g467
sg64
(lp534
g57
(g78
g59
NtRp535
(dp536
g62
(dp537
g82
g83
ssg71
g531
sg64
(lp538
g348
asbag57
(g78
g59
NtRp539
(dp540
g62
(dp541
g89
g90
ssg71
g531
sg64
(lp542
S':'
asbag57
(g78
g59
NtRp543
(dp544
g62
(dp545
sg71
g531
sg64
(lp546
g57
(g58
g59
NtRp547
(dp548
g62
(dp549
g70
I3
ssg71
g543
sg64
(lp550
S''
asbasbasbag57
(g73
g59
NtRp551
(dp552
g62
(dp553
sg71
g467
sg64
(lp554
g57
(g78
g59
NtRp555
(dp556
g62
(dp557
g82
g83
ssg71
g551
sg64
(lp558
g369
asbag57
(g78
g59
NtRp559
(dp560
g62
(dp561
g89
g90
ssg71
g551
sg64
(lp562
S':'
asbag57
(g78
g59
NtRp563
(dp564
g62
(dp565
sg71
g551
sg64
(lp566
g57
(g58
g59
NtRp567
(dp568
g62
(dp569
g70
I3
ssg71
g563
sg64
(lp570
S''
asbasbasbag57
(g73
g59
NtRp571
(dp572
g62
(dp573
sg71
g467
sg64
(lp574
g57
(g78
g59
NtRp575
(dp576
g62
(dp577
g82
g83
ssg71
g571
sg64
(lp578
g390
asbag57
(g78
g59
NtRp579
(dp580
g62
(dp581
g89
g90
ssg71
g571
sg64
(lp582
S':'
asbag57
(g78
g59
NtRp583
(dp584
g62
(dp585
sg71
g571
sg64
(lp586
g57
(g58
g59
NtRp587
(dp588
g62
(dp589
g70
I3
ssg71
g583
sg64
(lp590
S''
asbasbasbag57
(g73
g59
NtRp591
(dp592
g62
(dp593
sg71
g467
sg64
(lp594
g57
(g78
g59
NtRp595
(dp596
g62
(dp597
g82
g83
ssg71
g591
sg64
(lp598
g411
asbag57
(g78
g59
NtRp599
(dp600
g62
(dp601
g89
g90
ssg71
g591
sg64
(lp602
S':'
asbag57
(g78
g59
NtRp603
(dp604
g62
(dp605
sg71
g591
sg64
(lp606
g57
(g58
g59
NtRp607
(dp608
g62
(dp609
g70
I3
ssg71
g603
sg64
(lp610
S''
asbasbasbag57
(g73
g59
NtRp611
(dp612
g62
(dp613
sg71
g467
sg64
(lp614
g57
(g78
g59
NtRp615
(dp616
g62
(dp617
g82
g83
ssg71
g611
sg64
(lp618
g432
asbag57
(g78
g59
NtRp619
(dp620
g62
(dp621
g89
g90
ssg71
g611
sg64
(lp622
S':'
asbag57
(g78
g59
NtRp623
(dp624
g62
(dp625
sg71
g611
sg64
(lp626
g57
(g58
g59
NtRp627
(dp628
g62
(dp629
g70
I3
ssg71
g623
sg64
(lp630
S''
asbasbasbasbasbasbasbag57
(g73
g59
NtRp631
(dp632
g62
(dp633
sg71
g247
sg64
(lp634
g57
(g78
g59
NtRp635
(dp636
g62
(dp637
g82
g83
ssg71
g631
sg64
(lp638
S'session_id_init'
p639
asbag57
(g78
g59
NtRp640
(dp641
g62
(dp642
g89
g90
ssg71
g631
sg64
(lp643
S':'
asbag57
(g78
g59
NtRp644
(dp645
g62
(dp646
sg71
g631
sg64
(lp647
g57
(g58
g59
NtRp648
(dp649
g62
(dp650
g70
I4
ssg71
g644
sg64
(lp651
S'127.0.0.1-5d866f8a-e112-44ab-84a9-267caae08c70'
p652
ag57
(g66
g59
NtRp653
(dp654
g62
(dp655
g70
I3
ssg71
Nsg64
(lp656
g57
(g73
g59
NtRp657
(dp658
g62
(dp659
sg71
g653
sg64
(lp660
g57
(g78
g59
NtRp661
(dp662
g62
(dp663
g82
g83
ssg71
g657
sg64
(lp664
g285
asbag57
(g78
g59
NtRp665
(dp666
g62
(dp667
g89
g90
ssg71
g657
sg64
(lp668
S':'
asbag57
(g78
g59
NtRp669
(dp670
g62
(dp671
sg71
g657
sg64
(lp672
g57
(g58
g59
NtRp673
(dp674
g62
(dp675
g70
I3
ssg71
g669
sg64
(lp676
S''
asbasbasbag57
(g73
g59
NtRp677
(dp678
g62
(dp679
sg71
g653
sg64
(lp680
g57
(g78
g59
NtRp681
(dp682
g62
(dp683
g82
g83
ssg71
g677
sg64
(lp684
g306
asbag57
(g78
g59
NtRp685
(dp686
g62
(dp687
g89
g90
ssg71
g677
sg64
(lp688
S':'
asbag57
(g78
g59
NtRp689
(dp690
g62
(dp691
sg71
g677
sg64
(lp692
g57
(g58
g59
NtRp693
(dp694
g62
(dp695
g70
I3
ssg71
g689
sg64
(lp696
S''
asbasbasbag57
(g73
g59
NtRp697
(dp698
g62
(dp699
sg71
g653
sg64
(lp700
g57
(g78
g59
NtRp701
(dp702
g62
(dp703
g82
g83
ssg71
g697
sg64
(lp704
g327
asbag57
(g78
g59
NtRp705
(dp706
g62
(dp707
g89
g90
ssg71
g697
sg64
(lp708
S':'
asbag57
(g78
g59
NtRp709
(dp710
g62
(dp711
sg71
g697
sg64
(lp712
g57
(g58
g59
NtRp713
(dp714
g62
(dp715
g70
I3
ssg71
g709
sg64
(lp716
S''
asbasbasbag57
(g73
g59
NtRp717
(dp718
g62
(dp719
sg71
g653
sg64
(lp720
g57
(g78
g59
NtRp721
(dp722
g62
(dp723
g82
g83
ssg71
g717
sg64
(lp724
g348
asbag57
(g78
g59
NtRp725
(dp726
g62
(dp727
g89
g90
ssg71
g717
sg64
(lp728
S':'
asbag57
(g78
g59
NtRp729
(dp730
g62
(dp731
sg71
g717
sg64
(lp732
g57
(g58
g59
NtRp733
(dp734
g62
(dp735
g70
I3
ssg71
g729
sg64
(lp736
S''
asbasbasbag57
(g73
g59
NtRp737
(dp738
g62
(dp739
sg71
g653
sg64
(lp740
g57
(g78
g59
NtRp741
(dp742
g62
(dp743
g82
g83
ssg71
g737
sg64
(lp744
g369
asbag57
(g78
g59
NtRp745
(dp746
g62
(dp747
g89
g90
ssg71
g737
sg64
(lp748
S':'
asbag57
(g78
g59
NtRp749
(dp750
g62
(dp751
sg71
g737
sg64
(lp752
g57
(g58
g59
NtRp753
(dp754
g62
(dp755
g70
I3
ssg71
g749
sg64
(lp756
S''
asbasbasbag57
(g73
g59
NtRp757
(dp758
g62
(dp759
sg71
g653
sg64
(lp760
g57
(g78
g59
NtRp761
(dp762
g62
(dp763
g82
g83
ssg71
g757
sg64
(lp764
g390
asbag57
(g78
g59
NtRp765
(dp766
g62
(dp767
g89
g90
ssg71
g757
sg64
(lp768
S':'
asbag57
(g78
g59
NtRp769
(dp770
g62
(dp771
sg71
g757
sg64
(lp772
g57
(g58
g59
NtRp773
(dp774
g62
(dp775
g70
I3
ssg71
g769
sg64
(lp776
S''
asbasbasbag57
(g73
g59
NtRp777
(dp778
g62
(dp779
sg71
g653
sg64
(lp780
g57
(g78
g59
NtRp781
(dp782
g62
(dp783
g82
g83
ssg71
g777
sg64
(lp784
g411
asbag57
(g78
g59
NtRp785
(dp786
g62
(dp787
g89
g90
ssg71
g777
sg64
(lp788
S':'
asbag57
(g78
g59
NtRp789
(dp790
g62
(dp791
sg71
g777
sg64
(lp792
g57
(g58
g59
NtRp793
(dp794
g62
(dp795
g70
I3
ssg71
g789
sg64
(lp796
S''
asbasbasbag57
(g73
g59
NtRp797
(dp798
g62
(dp799
sg71
g653
sg64
(lp800
g57
(g78
g59
NtRp801
(dp802
g62
(dp803
g82
g83
ssg71
g797
sg64
(lp804
g432
asbag57
(g78
g59
NtRp805
(dp806
g62
(dp807
g89
g90
ssg71
g797
sg64
(lp808
S':'
asbag57
(g78
g59
NtRp809
(dp810
g62
(dp811
sg71
g797
sg64
(lp812
g57
(g58
g59
NtRp813
(dp814
g62
(dp815
g70
I3
ssg71
g809
sg64
(lp816
S''
asbasbasbasbasbasbasbag57
(g73
g59
NtRp817
(dp818
g62
(dp819
sg71
g247
sg64
(lp820
g57
(g78
g59
NtRp821
(dp822
g62
(dp823
g82
g83
ssg71
g817
sg64
(lp824
S'session_id_welcome'
p825
asbag57
(g78
g59
NtRp826
(dp827
g62
(dp828
g89
g90
ssg71
g817
sg64
(lp829
S':'
asbag57
(g78
g59
NtRp830
(dp831
g62
(dp832
sg71
g817
sg64
(lp833
g57
(g58
g59
NtRp834
(dp835
g62
(dp836
g70
I4
ssg71
g830
sg64
(lp837
S'127.0.0.1-413fbb53-8fc7-4016-8695-7ff91d564649'
p838
ag57
(g66
g59
NtRp839
(dp840
g62
(dp841
g70
I3
ssg71
Nsg64
(lp842
g57
(g73
g59
NtRp843
(dp844
g62
(dp845
sg71
g839
sg64
(lp846
g57
(g78
g59
NtRp847
(dp848
g62
(dp849
g82
g83
ssg71
g843
sg64
(lp850
g285
asbag57
(g78
g59
NtRp851
(dp852
g62
(dp853
g89
g90
ssg71
g843
sg64
(lp854
S':'
asbag57
(g78
g59
NtRp855
(dp856
g62
(dp857
sg71
g843
sg64
(lp858
g57
(g58
g59
NtRp859
(dp860
g62
(dp861
g70
I3
ssg71
g855
sg64
(lp862
S''
asbasbasbag57
(g73
g59
NtRp863
(dp864
g62
(dp865
sg71
g839
sg64
(lp866
g57
(g78
g59
NtRp867
(dp868
g62
(dp869
g82
g83
ssg71
g863
sg64
(lp870
g306
asbag57
(g78
g59
NtRp871
(dp872
g62
(dp873
g89
g90
ssg71
g863
sg64
(lp874
S':'
asbag57
(g78
g59
NtRp875
(dp876
g62
(dp877
sg71
g863
sg64
(lp878
g57
(g58
g59
NtRp879
(dp880
g62
(dp881
g70
I3
ssg71
g875
sg64
(lp882
S''
asbasbasbag57
(g73
g59
NtRp883
(dp884
g62
(dp885
sg71
g839
sg64
(lp886
g57
(g78
g59
NtRp887
(dp888
g62
(dp889
g82
g83
ssg71
g883
sg64
(lp890
g327
asbag57
(g78
g59
NtRp891
(dp892
g62
(dp893
g89
g90
ssg71
g883
sg64
(lp894
S':'
asbag57
(g78
g59
NtRp895
(dp896
g62
(dp897
sg71
g883
sg64
(lp898
g57
(g58
g59
NtRp899
(dp900
g62
(dp901
g70
I3
ssg71
g895
sg64
(lp902
S''
asbasbasbag57
(g73
g59
NtRp903
(dp904
g62
(dp905
sg71
g839
sg64
(lp906
g57
(g78
g59
NtRp907
(dp908
g62
(dp909
g82
g83
ssg71
g903
sg64
(lp910
g348
asbag57
(g78
g59
NtRp911
(dp912
g62
(dp913
g89
g90
ssg71
g903
sg64
(lp914
S':'
asbag57
(g78
g59
NtRp915
(dp916
g62
(dp917
sg71
g903
sg64
(lp918
g57
(g58
g59
NtRp919
(dp920
g62
(dp921
g70
I3
ssg71
g915
sg64
(lp922
S''
asbasbasbag57
(g73
g59
NtRp923
(dp924
g62
(dp925
sg71
g839
sg64
(lp926
g57
(g78
g59
NtRp927
(dp928
g62
(dp929
g82
g83
ssg71
g923
sg64
(lp930
g369
asbag57
(g78
g59
NtRp931
(dp932
g62
(dp933
g89
g90
ssg71
g923
sg64
(lp934
S':'
asbag57
(g78
g59
NtRp935
(dp936
g62
(dp937
sg71
g923
sg64
(lp938
g57
(g58
g59
NtRp939
(dp940
g62
(dp941
g70
I3
ssg71
g935
sg64
(lp942
S''
asbasbasbag57
(g73
g59
NtRp943
(dp944
g62
(dp945
sg71
g839
sg64
(lp946
g57
(g78
g59
NtRp947
(dp948
g62
(dp949
g82
g83
ssg71
g943
sg64
(lp950
g390
asbag57
(g78
g59
NtRp951
(dp952
g62
(dp953
g89
g90
ssg71
g943
sg64
(lp954
S':'
asbag57
(g78
g59
NtRp955
(dp956
g62
(dp957
sg71
g943
sg64
(lp958
g57
(g58
g59
NtRp959
(dp960
g62
(dp961
g70
I3
ssg71
g955
sg64
(lp962
S''
asbasbasbag57
(g73
g59
NtRp963
(dp964
g62
(dp965
sg71
g839
sg64
(lp966
g57
(g78
g59
NtRp967
(dp968
g62
(dp969
g82
g83
ssg71
g963
sg64
(lp970
g411
asbag57
(g78
g59
NtRp971
(dp972
g62
(dp973
g89
g90
ssg71
g963
sg64
(lp974
S':'
asbag57
(g78
g59
NtRp975
(dp976
g62
(dp977
sg71
g963
sg64
(lp978
g57
(g58
g59
NtRp979
(dp980
g62
(dp981
g70
I3
ssg71
g975
sg64
(lp982
S''
asbasbasbag57
(g73
g59
NtRp983
(dp984
g62
(dp985
sg71
g839
sg64
(lp986
g57
(g78
g59
NtRp987
(dp988
g62
(dp989
g82
g83
ssg71
g983
sg64
(lp990
g432
asbag57
(g78
g59
NtRp991
(dp992
g62
(dp993
g89
g90
ssg71
g983
sg64
(lp994
S':'
asbag57
(g78
g59
NtRp995
(dp996
g62
(dp997
sg71
g983
sg64
(lp998
g57
(g58
g59
NtRp999
(dp1000
g62
(dp1001
g70
I3
ssg71
g995
sg64
(lp1002
S''
asbasbasbasbasbasbasbasbasbasbasbag57
(g73
g59
NtRp1003
(dp1004
g62
(dp1005
sg71
g67
sg64
(lp1006
g57
(g78
g59
NtRp1007
(dp1008
g62
(dp1009
g82
g83
ssg71
g1003
sg64
(lp1010
S'env'
p1011
asbag57
(g78
g59
NtRp1012
(dp1013
g62
(dp1014
g89
g90
ssg71
g1003
sg64
(lp1015
S':'
asbag57
(g78
g59
NtRp1016
(dp1017
g62
(dp1018
sg71
g1003
sg64
(lp1019
g57
(g58
g59
NtRp1020
(dp1021
g62
(dp1022
g70
I5
ssg71
g1016
sg64
(lp1023
g57
(g66
g59
NtRp1024
(dp1025
g62
(dp1026
g70
I4
ssg71
Nsg64
(lp1027
g57
(g73
g59
NtRp1028
(dp1029
g62
(dp1030
sg71
g1024
sg64
(lp1031
g57
(g78
g59
NtRp1032
(dp1033
g62
(dp1034
g82
g83
ssg71
g1028
sg64
(lp1035
S'app_folders'
p1036
asbag57
(g78
g59
NtRp1037
(dp1038
g62
(dp1039
g89
g90
ssg71
g1028
sg64
(lp1040
S':'
asbag57
(g78
g59
NtRp1041
(dp1042
g62
(dp1043
sg71
g1028
sg64
(lp1044
g57
(g58
g59
NtRp1045
(dp1046
g62
(dp1047
g70
I4
ssg71
g1041
sg64
(lp1048
S"set(['c:\\\\Users\\\\rochacbruno\\\\jul12\\\\cursojulho12\\\\web2py\\\\applications\\\\ecommerce\\\\', 'c:\\\\Users\\\\rochacbruno\\\\jul12\\\\cursojulho12\\\\web2py\\\\applications\\\\admin\\\\'])"
p1049
asbasbasbag57
(g73
g59
NtRp1050
(dp1051
g62
(dp1052
sg71
g1024
sg64
(lp1053
g57
(g78
g59
NtRp1054
(dp1055
g62
(dp1056
g82
g83
ssg71
g1050
sg64
(lp1057
S'applications_parent'
p1058
asbag57
(g78
g59
NtRp1059
(dp1060
g62
(dp1061
g89
g90
ssg71
g1050
sg64
(lp1062
S':'
asbag57
(g78
g59
NtRp1063
(dp1064
g62
(dp1065
sg71
g1050
sg64
(lp1066
g57
(g58
g59
NtRp1067
(dp1068
g62
(dp1069
g70
I4
ssg71
g1063
sg64
(lp1070
S'c:\\Users\\rochacbruno\\jul12\\cursojulho12\\web2py'
p1071
asbasbasbag57
(g73
g59
NtRp1072
(dp1073
g62
(dp1074
sg71
g1024
sg64
(lp1075
g57
(g78
g59
NtRp1076
(dp1077
g62
(dp1078
g82
g83
ssg71
g1072
sg64
(lp1079
S'cmd_args'
p1080
asbag57
(g78
g59
NtRp1081
(dp1082
g62
(dp1083
g89
g90
ssg71
g1072
sg64
(lp1084
S':'
asbag57
(g78
g59
NtRp1085
(dp1086
g62
(dp1087
sg71
g1072
sg64
(lp1088
g57
(g58
g59
NtRp1089
(dp1090
g62
(dp1091
g70
I4
ssg71
g1085
sg64
(lp1092
g57
(g66
g59
NtRp1093
(dp1094
g62
(dp1095
g70
I3
ssg71
Nsg64
(lp1096
sbasbasbasbag57
(g73
g59
NtRp1097
(dp1098
g62
(dp1099
sg71
g1024
sg64
(lp1100
g57
(g78
g59
NtRp1101
(dp1102
g62
(dp1103
g82
g83
ssg71
g1097
sg64
(lp1104
S'cmd_options'
p1105
asbag57
(g78
g59
NtRp1106
(dp1107
g62
(dp1108
g89
g90
ssg71
g1097
sg64
(lp1109
S':'
asbag57
(g78
g59
NtRp1110
(dp1111
g62
(dp1112
sg71
g1097
sg64
(lp1113
g57
(g58
g59
NtRp1114
(dp1115
g62
(dp1116
g70
I4
ssg71
g1110
sg64
(lp1117
S"<Values at 0x2af8be8: {'verbose': False, 'ip': '127.0.0.1', 'with_scheduler': False, 'ips': ['192.168.1.100'], 'shutdown_timeout': 5, 'taskbar': False, 'port': 8000, 'maxthreads': None, 'softcron': False, 'server_name': 'rochacbruno-HP', 'bpython': False, 'nogui': False, 'nocron': True, 'extcron': False, 'run_system_tests': False, 'test': None, 'folder': 'c:\\\\Users\\\\rochacbruno\\\\jul12\\\\cursojulho12\\\\web2py', 'config': '', 'import_models': False, 'winservice': '', 'shell': None, 'run': '', 'log_filename': 'httpserver.log', 'debuglevel': 30, 'args': [''], 'socket_timeout': 5, 'ssl_ca_certificate': None, 'scheduler': None, 'profiler_filename': None, 'ssl_private_key': '', 'password': '1234', 'request_queue_size': 5, 'ssl_certificate': '', 'cronjob': False, 'numthreads': None, 'quiet': False, 'interfaces': None, 'minthreads': None, 'timeout': 10, 'plain': False, 'nobanner': False, 'pid_filename': 'httpserver.pid'}>"
p1118
asbasbasbag57
(g73
g59
NtRp1119
(dp1120
g62
(dp1121
sg71
g1024
sg64
(lp1122
g57
(g78
g59
NtRp1123
(dp1124
g62
(dp1125
g82
g83
ssg71
g1119
sg64
(lp1126
S'db_sessions'
p1127
asbag57
(g78
g59
NtRp1128
(dp1129
g62
(dp1130
g89
g90
ssg71
g1119
sg64
(lp1131
S':'
asbag57
(g78
g59
NtRp1132
(dp1133
g62
(dp1134
sg71
g1119
sg64
(lp1135
g57
(g58
g59
NtRp1136
(dp1137
g62
(dp1138
g70
I4
ssg71
g1132
sg64
(lp1139
S'set([])'
p1140
asbasbasbag57
(g73
g59
NtRp1141
(dp1142
g62
(dp1143
sg71
g1024
sg64
(lp1144
g57
(g78
g59
NtRp1145
(dp1146
g62
(dp1147
g82
g83
ssg71
g1141
sg64
(lp1148
S'debugging'
p1149
asbag57
(g78
g59
NtRp1150
(dp1151
g62
(dp1152
g89
g90
ssg71
g1141
sg64
(lp1153
S':'
asbag57
(g78
g59
NtRp1154
(dp1155
g62
(dp1156
sg71
g1141
sg64
(lp1157
g57
(g58
g59
NtRp1158
(dp1159
g62
(dp1160
g70
I4
ssg71
g1154
sg64
(lp1161
g100
asbasbasbag57
(g73
g59
NtRp1162
(dp1163
g62
(dp1164
sg71
g1024
sg64
(lp1165
g57
(g78
g59
NtRp1166
(dp1167
g62
(dp1168
g82
g83
ssg71
g1162
sg64
(lp1169
S'gluon_parent'
p1170
asbag57
(g78
g59
NtRp1171
(dp1172
g62
(dp1173
g89
g90
ssg71
g1162
sg64
(lp1174
S':'
asbag57
(g78
g59
NtRp1175
(dp1176
g62
(dp1177
sg71
g1162
sg64
(lp1178
g57
(g58
g59
NtRp1179
(dp1180
g62
(dp1181
g70
I4
ssg71
g1175
sg64
(lp1182
S'c:\\Users\\rochacbruno\\jul12\\cursojulho12\\web2py'
p1183
asbasbasbag57
(g73
g59
NtRp1184
(dp1185
g62
(dp1186
sg71
g1024
sg64
(lp1187
g57
(g78
g59
NtRp1188
(dp1189
g62
(dp1190
g82
g83
ssg71
g1184
sg64
(lp1191
S'http_accept'
p1192
asbag57
(g78
g59
NtRp1193
(dp1194
g62
(dp1195
g89
g90
ssg71
g1184
sg64
(lp1196
S':'
asbag57
(g78
g59
NtRp1197
(dp1198
g62
(dp1199
sg71
g1184
sg64
(lp1200
g57
(g58
g59
NtRp1201
(dp1202
g62
(dp1203
g70
I4
ssg71
g1197
sg64
(lp1204
S'text/html,application/xhtml+xml,application/xml;q=0.9,*/*;q=0.8'
p1205
asbasbasbag57
(g73
g59
NtRp1206
(dp1207
g62
(dp1208
sg71
g1024
sg64
(lp1209
g57
(g78
g59
NtRp1210
(dp1211
g62
(dp1212
g82
g83
ssg71
g1206
sg64
(lp1213
S'http_accept_encoding'
p1214
asbag57
(g78
g59
NtRp1215
(dp1216
g62
(dp1217
g89
g90
ssg71
g1206
sg64
(lp1218
S':'
asbag57
(g78
g59
NtRp1219
(dp1220
g62
(dp1221
sg71
g1206
sg64
(lp1222
g57
(g58
g59
NtRp1223
(dp1224
g62
(dp1225
g70
I4
ssg71
g1219
sg64
(lp1226
S'gzip, deflate'
p1227
asbasbasbag57
(g73
g59
NtRp1228
(dp1229
g62
(dp1230
sg71
g1024
sg64
(lp1231
g57
(g78
g59
NtRp1232
(dp1233
g62
(dp1234
g82
g83
ssg71
g1228
sg64
(lp1235
S'http_accept_language'
p1236
asbag57
(g78
g59
NtRp1237
(dp1238
g62
(dp1239
g89
g90
ssg71
g1228
sg64
(lp1240
S':'
asbag57
(g78
g59
NtRp1241
(dp1242
g62
(dp1243
sg71
g1228
sg64
(lp1244
g57
(g58
g59
NtRp1245
(dp1246
g62
(dp1247
g70
I4
ssg71
g1241
sg64
(lp1248
S'en,pt-br;q=0.8,pt;q=0.5,en-us;q=0.3'
p1249
asbasbasbag57
(g73
g59
NtRp1250
(dp1251
g62
(dp1252
sg71
g1024
sg64
(lp1253
g57
(g78
g59
NtRp1254
(dp1255
g62
(dp1256
g82
g83
ssg71
g1250
sg64
(lp1257
S'http_cache_control'
p1258
asbag57
(g78
g59
NtRp1259
(dp1260
g62
(dp1261
g89
g90
ssg71
g1250
sg64
(lp1262
S':'
asbag57
(g78
g59
NtRp1263
(dp1264
g62
(dp1265
sg71
g1250
sg64
(lp1266
g57
(g58
g59
NtRp1267
(dp1268
g62
(dp1269
g70
I4
ssg71
g1263
sg64
(lp1270
S'max-age=0'
p1271
asbasbasbag57
(g73
g59
NtRp1272
(dp1273
g62
(dp1274
sg71
g1024
sg64
(lp1275
g57
(g78
g59
NtRp1276
(dp1277
g62
(dp1278
g82
g83
ssg71
g1272
sg64
(lp1279
S'http_connection'
p1280
asbag57
(g78
g59
NtRp1281
(dp1282
g62
(dp1283
g89
g90
ssg71
g1272
sg64
(lp1284
S':'
asbag57
(g78
g59
NtRp1285
(dp1286
g62
(dp1287
sg71
g1272
sg64
(lp1288
g57
(g58
g59
NtRp1289
(dp1290
g62
(dp1291
g70
I4
ssg71
g1285
sg64
(lp1292
S'keep-alive'
p1293
asbasbasbag57
(g73
g59
NtRp1294
(dp1295
g62
(dp1296
sg71
g1024
sg64
(lp1297
g57
(g78
g59
NtRp1298
(dp1299
g62
(dp1300
g82
g83
ssg71
g1294
sg64
(lp1301
S'http_cookie'
p1302
asbag57
(g78
g59
NtRp1303
(dp1304
g62
(dp1305
g89
g90
ssg71
g1294
sg64
(lp1306
S':'
asbag57
(g78
g59
NtRp1307
(dp1308
g62
(dp1309
sg71
g1294
sg64
(lp1310
g57
(g58
g59
NtRp1311
(dp1312
g62
(dp1313
g70
I4
ssg71
g1307
sg64
(lp1314
S'session_id_admin=127.0.0.1-4873ed00-b716-4b13-a1bb-7fdaa43562f3; session_id_ecommerce=127.0.0.1-0fe94d39-4aae-427f-bfbc-597a65cd32c1; session_id_welcome=127.0.0.1-413fbb53-8fc7-4016-8695-7ff91d564649; session_id_init=127.0.0.1-5d866f8a-e112-44ab-84a9-267caae08c70'
p1315
asbasbasbag57
(g73
g59
NtRp1316
(dp1317
g62
(dp1318
sg71
g1024
sg64
(lp1319
g57
(g78
g59
NtRp1320
(dp1321
g62
(dp1322
g82
g83
ssg71
g1316
sg64
(lp1323
S'http_host'
p1324
asbag57
(g78
g59
NtRp1325
(dp1326
g62
(dp1327
g89
g90
ssg71
g1316
sg64
(lp1328
S':'
asbag57
(g78
g59
NtRp1329
(dp1330
g62
(dp1331
sg71
g1316
sg64
(lp1332
g57
(g58
g59
NtRp1333
(dp1334
g62
(dp1335
g70
I4
ssg71
g1329
sg64
(lp1336
S'localhost:8000'
p1337
asbasbasbag57
(g73
g59
NtRp1338
(dp1339
g62
(dp1340
sg71
g1024
sg64
(lp1341
g57
(g78
g59
NtRp1342
(dp1343
g62
(dp1344
g82
g83
ssg71
g1338
sg64
(lp1345
S'http_user_agent'
p1346
asbag57
(g78
g59
NtRp1347
(dp1348
g62
(dp1349
g89
g90
ssg71
g1338
sg64
(lp1350
S':'
asbag57
(g78
g59
NtRp1351
(dp1352
g62
(dp1353
sg71
g1338
sg64
(lp1354
g57
(g58
g59
NtRp1355
(dp1356
g62
(dp1357
g70
I4
ssg71
g1351
sg64
(lp1358
S'Mozilla/5.0 (Windows NT 6.1; rv:14.0) Gecko/20100101 Firefox/14.0.1'
p1359
asbasbasbag57
(g73
g59
NtRp1360
(dp1361
g62
(dp1362
sg71
g1024
sg64
(lp1363
g57
(g78
g59
NtRp1364
(dp1365
g62
(dp1366
g82
g83
ssg71
g1360
sg64
(lp1367
S'is_jython'
p1368
asbag57
(g78
g59
NtRp1369
(dp1370
g62
(dp1371
g89
g90
ssg71
g1360
sg64
(lp1372
S':'
asbag57
(g78
g59
NtRp1373
(dp1374
g62
(dp1375
sg71
g1360
sg64
(lp1376
g57
(g58
g59
NtRp1377
(dp1378
g62
(dp1379
g70
I4
ssg71
g1373
sg64
(lp1380
g100
asbasbasbag57
(g73
g59
NtRp1381
(dp1382
g62
(dp1383
sg71
g1024
sg64
(lp1384
g57
(g78
g59
NtRp1385
(dp1386
g62
(dp1387
g82
g83
ssg71
g1381
sg64
(lp1388
S'is_pypy'
p1389
asbag57
(g78
g59
NtRp1390
(dp1391
g62
(dp1392
g89
g90
ssg71
g1381
sg64
(lp1393
S':'
asbag57
(g78
g59
NtRp1394
(dp1395
g62
(dp1396
sg71
g1381
sg64
(lp1397
g57
(g58
g59
NtRp1398
(dp1399
g62
(dp1400
g70
I4
ssg71
g1394
sg64
(lp1401
g100
asbasbasbag57
(g73
g59
NtRp1402
(dp1403
g62
(dp1404
sg71
g1024
sg64
(lp1405
g57
(g78
g59
NtRp1406
(dp1407
g62
(dp1408
g82
g83
ssg71
g1402
sg64
(lp1409
S'path_info'
p1410
asbag57
(g78
g59
NtRp1411
(dp1412
g62
(dp1413
g89
g90
ssg71
g1402
sg64
(lp1414
S':'
asbag57
(g78
g59
NtRp1415
(dp1416
g62
(dp1417
sg71
g1402
sg64
(lp1418
g57
(g58
g59
NtRp1419
(dp1420
g62
(dp1421
g70
I4
ssg71
g1415
sg64
(lp1422
S'/home/user/register'
p1423
asbasbasbag57
(g73
g59
NtRp1424
(dp1425
g62
(dp1426
sg71
g1024
sg64
(lp1427
g57
(g78
g59
NtRp1428
(dp1429
g62
(dp1430
g82
g83
ssg71
g1424
sg64
(lp1431
S'query_string'
p1432
asbag57
(g78
g59
NtRp1433
(dp1434
g62
(dp1435
g89
g90
ssg71
g1424
sg64
(lp1436
S':'
asbag57
(g78
g59
NtRp1437
(dp1438
g62
(dp1439
sg71
g1424
sg64
(lp1440
g57
(g58
g59
NtRp1441
(dp1442
g62
(dp1443
g70
I4
ssg71
g1437
sg64
(lp1444
S''
asbasbasbag57
(g73
g59
NtRp1445
(dp1446
g62
(dp1447
sg71
g1024
sg64
(lp1448
g57
(g78
g59
NtRp1449
(dp1450
g62
(dp1451
g82
g83
ssg71
g1445
sg64
(lp1452
S'remote_addr'
p1453
asbag57
(g78
g59
NtRp1454
(dp1455
g62
(dp1456
g89
g90
ssg71
g1445
sg64
(lp1457
S':'
asbag57
(g78
g59
NtRp1458
(dp1459
g62
(dp1460
sg71
g1445
sg64
(lp1461
g57
(g58
g59
NtRp1462
(dp1463
g62
(dp1464
g70
I4
ssg71
g1458
sg64
(lp1465
g203
asbasbasbag57
(g73
g59
NtRp1466
(dp1467
g62
(dp1468
sg71
g1024
sg64
(lp1469
g57
(g78
g59
NtRp1470
(dp1471
g62
(dp1472
g82
g83
ssg71
g1466
sg64
(lp1473
S'remote_port'
p1474
asbag57
(g78
g59
NtRp1475
(dp1476
g62
(dp1477
g89
g90
ssg71
g1466
sg64
(lp1478
S':'
asbag57
(g78
g59
NtRp1479
(dp1480
g62
(dp1481
sg71
g1466
sg64
(lp1482
g57
(g58
g59
NtRp1483
(dp1484
g62
(dp1485
g70
I4
ssg71
g1479
sg64
(lp1486
S'50084'
p1487
asbasbasbag57
(g73
g59
NtRp1488
(dp1489
g62
(dp1490
sg71
g1024
sg64
(lp1491
g57
(g78
g59
NtRp1492
(dp1493
g62
(dp1494
g82
g83
ssg71
g1488
sg64
(lp1495
S'request_method'
p1496
asbag57
(g78
g59
NtRp1497
(dp1498
g62
(dp1499
g89
g90
ssg71
g1488
sg64
(lp1500
S':'
asbag57
(g78
g59
NtRp1501
(dp1502
g62
(dp1503
sg71
g1488
sg64
(lp1504
g57
(g58
g59
NtRp1505
(dp1506
g62
(dp1507
g70
I4
ssg71
g1501
sg64
(lp1508
S'GET'
p1509
asbasbasbag57
(g73
g59
NtRp1510
(dp1511
g62
(dp1512
sg71
g1024
sg64
(lp1513
g57
(g78
g59
NtRp1514
(dp1515
g62
(dp1516
g82
g83
ssg71
g1510
sg64
(lp1517
S'request_uri'
p1518
asbag57
(g78
g59
NtRp1519
(dp1520
g62
(dp1521
g89
g90
ssg71
g1510
sg64
(lp1522
S':'
asbag57
(g78
g59
NtRp1523
(dp1524
g62
(dp1525
sg71
g1510
sg64
(lp1526
g57
(g58
g59
NtRp1527
(dp1528
g62
(dp1529
g70
I4
ssg71
g1523
sg64
(lp1530
S'/ecommerce/home/user/register'
p1531
asbasbasbag57
(g73
g59
NtRp1532
(dp1533
g62
(dp1534
sg71
g1024
sg64
(lp1535
g57
(g78
g59
NtRp1536
(dp1537
g62
(dp1538
g82
g83
ssg71
g1532
sg64
(lp1539
S'script_name'
p1540
asbag57
(g78
g59
NtRp1541
(dp1542
g62
(dp1543
g89
g90
ssg71
g1532
sg64
(lp1544
S':'
asbag57
(g78
g59
NtRp1545
(dp1546
g62
(dp1547
sg71
g1532
sg64
(lp1548
g57
(g58
g59
NtRp1549
(dp1550
g62
(dp1551
g70
I4
ssg71
g1545
sg64
(lp1552
S''
asbasbasbag57
(g73
g59
NtRp1553
(dp1554
g62
(dp1555
sg71
g1024
sg64
(lp1556
g57
(g78
g59
NtRp1557
(dp1558
g62
(dp1559
g82
g83
ssg71
g1553
sg64
(lp1560
S'server_name'
p1561
asbag57
(g78
g59
NtRp1562
(dp1563
g62
(dp1564
g89
g90
ssg71
g1553
sg64
(lp1565
S':'
asbag57
(g78
g59
NtRp1566
(dp1567
g62
(dp1568
sg71
g1553
sg64
(lp1569
g57
(g58
g59
NtRp1570
(dp1571
g62
(dp1572
g70
I4
ssg71
g1566
sg64
(lp1573
S'rochacbruno-HP'
p1574
asbasbasbag57
(g73
g59
NtRp1575
(dp1576
g62
(dp1577
sg71
g1024
sg64
(lp1578
g57
(g78
g59
NtRp1579
(dp1580
g62
(dp1581
g82
g83
ssg71
g1575
sg64
(lp1582
S'server_port'
p1583
asbag57
(g78
g59
NtRp1584
(dp1585
g62
(dp1586
g89
g90
ssg71
g1575
sg64
(lp1587
S':'
asbag57
(g78
g59
NtRp1588
(dp1589
g62
(dp1590
sg71
g1575
sg64
(lp1591
g57
(g58
g59
NtRp1592
(dp1593
g62
(dp1594
g70
I4
ssg71
g1588
sg64
(lp1595
S'8000'
p1596
asbasbasbag57
(g73
g59
NtRp1597
(dp1598
g62
(dp1599
sg71
g1024
sg64
(lp1600
g57
(g78
g59
NtRp1601
(dp1602
g62
(dp1603
g82
g83
ssg71
g1597
sg64
(lp1604
S'server_protocol'
p1605
asbag57
(g78
g59
NtRp1606
(dp1607
g62
(dp1608
g89
g90
ssg71
g1597
sg64
(lp1609
S':'
asbag57
(g78
g59
NtRp1610
(dp1611
g62
(dp1612
sg71
g1597
sg64
(lp1613
g57
(g58
g59
NtRp1614
(dp1615
g62
(dp1616
g70
I4
ssg71
g1610
sg64
(lp1617
S'HTTP/1.1'
p1618
asbasbasbag57
(g73
g59
NtRp1619
(dp1620
g62
(dp1621
sg71
g1024
sg64
(lp1622
g57
(g78
g59
NtRp1623
(dp1624
g62
(dp1625
g82
g83
ssg71
g1619
sg64
(lp1626
S'server_software'
p1627
asbag57
(g78
g59
NtRp1628
(dp1629
g62
(dp1630
g89
g90
ssg71
g1619
sg64
(lp1631
S':'
asbag57
(g78
g59
NtRp1632
(dp1633
g62
(dp1634
sg71
g1619
sg64
(lp1635
g57
(g58
g59
NtRp1636
(dp1637
g62
(dp1638
g70
I4
ssg71
g1632
sg64
(lp1639
S'Rocket 1.2.4'
p1640
asbasbasbag57
(g73
g59
NtRp1641
(dp1642
g62
(dp1643
sg71
g1024
sg64
(lp1644
g57
(g78
g59
NtRp1645
(dp1646
g62
(dp1647
g82
g83
ssg71
g1641
sg64
(lp1648
S'web2py_original_uri'
p1649
asbag57
(g78
g59
NtRp1650
(dp1651
g62
(dp1652
g89
g90
ssg71
g1641
sg64
(lp1653
S':'
asbag57
(g78
g59
NtRp1654
(dp1655
g62
(dp1656
sg71
g1641
sg64
(lp1657
g57
(g58
g59
NtRp1658
(dp1659
g62
(dp1660
g70
I4
ssg71
g1654
sg64
(lp1661
g1423
asbasbasbag57
(g73
g59
NtRp1662
(dp1663
g62
(dp1664
sg71
g1024
sg64
(lp1665
g57
(g78
g59
NtRp1666
(dp1667
g62
(dp1668
g82
g83
ssg71
g1662
sg64
(lp1669
S'web2py_path'
p1670
asbag57
(g78
g59
NtRp1671
(dp1672
g62
(dp1673
g89
g90
ssg71
g1662
sg64
(lp1674
S':'
asbag57
(g78
g59
NtRp1675
(dp1676
g62
(dp1677
sg71
g1662
sg64
(lp1678
g57
(g58
g59
NtRp1679
(dp1680
g62
(dp1681
g70
I4
ssg71
g1675
sg64
(lp1682
g1071
asbasbasbag57
(g73
g59
NtRp1683
(dp1684
g62
(dp1685
sg71
g1024
sg64
(lp1686
g57
(g78
g59
NtRp1687
(dp1688
g62
(dp1689
g82
g83
ssg71
g1683
sg64
(lp1690
S'web2py_version'
p1691
asbag57
(g78
g59
NtRp1692
(dp1693
g62
(dp1694
g89
g90
ssg71
g1683
sg64
(lp1695
S':'
asbag57
(g78
g59
NtRp1696
(dp1697
g62
(dp1698
sg71
g1683
sg64
(lp1699
g57
(g58
g59
NtRp1700
(dp1701
g62
(dp1702
g70
I4
ssg71
g1696
sg64
(lp1703
g57
(g66
g59
NtRp1704
(dp1705
g62
(dp1706
g70
I3
ssg71
Nsg64
(lp1707
g57
(g73
g59
NtRp1708
(dp1709
g62
(dp1710
sg71
g1704
sg64
(lp1711
g57
(g78
g59
NtRp1712
(dp1713
g62
(dp1714
sg71
g1708
sg64
(lp1715
g57
(g58
g59
NtRp1716
(dp1717
g62
(dp1718
g70
I3
ssg71
g1712
sg64
(lp1719
S'2'
asbasbasbag57
(g73
g59
NtRp1720
(dp1721
g62
(dp1722
sg71
g1704
sg64
(lp1723
g57
(g78
g59
NtRp1724
(dp1725
g62
(dp1726
sg71
g1720
sg64
(lp1727
g57
(g58
g59
NtRp1728
(dp1729
g62
(dp1730
g70
I3
ssg71
g1724
sg64
(lp1731
S'0'
asbasbasbag57
(g73
g59
NtRp1732
(dp1733
g62
(dp1734
sg71
g1704
sg64
(lp1735
g57
(g78
g59
NtRp1736
(dp1737
g62
(dp1738
sg71
g1732
sg64
(lp1739
g57
(g58
g59
NtRp1740
(dp1741
g62
(dp1742
g70
I3
ssg71
g1736
sg64
(lp1743
S'0'
asbasbasbag57
(g73
g59
NtRp1744
(dp1745
g62
(dp1746
sg71
g1704
sg64
(lp1747
g57
(g78
g59
NtRp1748
(dp1749
g62
(dp1750
sg71
g1744
sg64
(lp1751
g57
(g58
g59
NtRp1752
(dp1753
g62
(dp1754
g70
I3
ssg71
g1748
sg64
(lp1755
S'datetime.datetime(2012, 8, 10, 13, 1, 31)'
p1756
asbasbasbag57
(g73
g59
NtRp1757
(dp1758
g62
(dp1759
sg71
g1704
sg64
(lp1760
g57
(g78
g59
NtRp1761
(dp1762
g62
(dp1763
sg71
g1757
sg64
(lp1764
g57
(g58
g59
NtRp1765
(dp1766
g62
(dp1767
g70
I3
ssg71
g1761
sg64
(lp1768
S'dev'
p1769
asbasbasbasbasbasbasbag57
(g73
g59
NtRp1770
(dp1771
g62
(dp1772
sg71
g1024
sg64
(lp1773
g57
(g78
g59
NtRp1774
(dp1775
g62
(dp1776
g82
g83
ssg71
g1770
sg64
(lp1777
S'wsgi_errors'
p1778
asbag57
(g78
g59
NtRp1779
(dp1780
g62
(dp1781
g89
g90
ssg71
g1770
sg64
(lp1782
S':'
asbag57
(g78
g59
NtRp1783
(dp1784
g62
(dp1785
sg71
g1770
sg64
(lp1786
g57
(g58
g59
NtRp1787
(dp1788
g62
(dp1789
g70
I4
ssg71
g1783
sg64
(lp1790
S"<open file '<stderr>', mode 'w' at 0x012750D0>"
p1791
asbasbasbag57
(g73
g59
NtRp1792
(dp1793
g62
(dp1794
sg71
g1024
sg64
(lp1795
g57
(g78
g59
NtRp1796
(dp1797
g62
(dp1798
g82
g83
ssg71
g1792
sg64
(lp1799
S'wsgi_file_wrapper'
p1800
asbag57
(g78
g59
NtRp1801
(dp1802
g62
(dp1803
g89
g90
ssg71
g1792
sg64
(lp1804
S':'
asbag57
(g78
g59
NtRp1805
(dp1806
g62
(dp1807
sg71
g1792
sg64
(lp1808
g57
(g58
g59
NtRp1809
(dp1810
g62
(dp1811
g70
I4
ssg71
g1805
sg64
(lp1812
S'<class wsgiref.util.FileWrapper at 0x02A383B0>'
p1813
asbasbasbag57
(g73
g59
NtRp1814
(dp1815
g62
(dp1816
sg71
g1024
sg64
(lp1817
g57
(g78
g59
NtRp1818
(dp1819
g62
(dp1820
g82
g83
ssg71
g1814
sg64
(lp1821
S'wsgi_input'
p1822
asbag57
(g78
g59
NtRp1823
(dp1824
g62
(dp1825
g89
g90
ssg71
g1814
sg64
(lp1826
S':'
asbag57
(g78
g59
NtRp1827
(dp1828
g62
(dp1829
sg71
g1814
sg64
(lp1830
g57
(g58
g59
NtRp1831
(dp1832
g62
(dp1833
g70
I4
ssg71
g1827
sg64
(lp1834
S'<socket._fileobject object at 0x05675A70>'
p1835
asbasbasbag57
(g73
g59
NtRp1836
(dp1837
g62
(dp1838
sg71
g1024
sg64
(lp1839
g57
(g78
g59
NtRp1840
(dp1841
g62
(dp1842
g82
g83
ssg71
g1836
sg64
(lp1843
S'wsgi_multiprocess'
p1844
asbag57
(g78
g59
NtRp1845
(dp1846
g62
(dp1847
g89
g90
ssg71
g1836
sg64
(lp1848
S':'
asbag57
(g78
g59
NtRp1849
(dp1850
g62
(dp1851
sg71
g1836
sg64
(lp1852
g57
(g58
g59
NtRp1853
(dp1854
g62
(dp1855
g70
I4
ssg71
g1849
sg64
(lp1856
g100
asbasbasbag57
(g73
g59
NtRp1857
(dp1858
g62
(dp1859
sg71
g1024
sg64
(lp1860
g57
(g78
g59
NtRp1861
(dp1862
g62
(dp1863
g82
g83
ssg71
g1857
sg64
(lp1864
S'wsgi_multithread'
p1865
asbag57
(g78
g59
NtRp1866
(dp1867
g62
(dp1868
g89
g90
ssg71
g1857
sg64
(lp1869
S':'
asbag57
(g78
g59
NtRp1870
(dp1871
g62
(dp1872
sg71
g1857
sg64
(lp1873
g57
(g58
g59
NtRp1874
(dp1875
g62
(dp1876
g70
I4
ssg71
g1870
sg64
(lp1877
S'True'
p1878
asbasbasbag57
(g73
g59
NtRp1879
(dp1880
g62
(dp1881
sg71
g1024
sg64
(lp1882
g57
(g78
g59
NtRp1883
(dp1884
g62
(dp1885
g82
g83
ssg71
g1879
sg64
(lp1886
S'wsgi_run_once'
p1887
asbag57
(g78
g59
NtRp1888
(dp1889
g62
(dp1890
g89
g90
ssg71
g1879
sg64
(lp1891
S':'
asbag57
(g78
g59
NtRp1892
(dp1893
g62
(dp1894
sg71
g1879
sg64
(lp1895
g57
(g58
g59
NtRp1896
(dp1897
g62
(dp1898
g70
I4
ssg71
g1892
sg64
(lp1899
g100
asbasbasbag57
(g73
g59
NtRp1900
(dp1901
g62
(dp1902
sg71
g1024
sg64
(lp1903
g57
(g78
g59
NtRp1904
(dp1905
g62
(dp1906
g82
g83
ssg71
g1900
sg64
(lp1907
S'wsgi_url_scheme'
p1908
asbag57
(g78
g59
NtRp1909
(dp1910
g62
(dp1911
g89
g90
ssg71
g1900
sg64
(lp1912
S':'
asbag57
(g78
g59
NtRp1913
(dp1914
g62
(dp1915
sg71
g1900
sg64
(lp1916
g57
(g58
g59
NtRp1917
(dp1918
g62
(dp1919
g70
I4
ssg71
g1913
sg64
(lp1920
S'http'
p1921
asbasbasbag57
(g73
g59
NtRp1922
(dp1923
g62
(dp1924
sg71
g1024
sg64
(lp1925
g57
(g78
g59
NtRp1926
(dp1927
g62
(dp1928
g82
g83
ssg71
g1922
sg64
(lp1929
S'wsgi_version'
p1930
asbag57
(g78
g59
NtRp1931
(dp1932
g62
(dp1933
g89
g90
ssg71
g1922
sg64
(lp1934
S':'
asbag57
(g78
g59
NtRp1935
(dp1936
g62
(dp1937
sg71
g1922
sg64
(lp1938
g57
(g58
g59
NtRp1939
(dp1940
g62
(dp1941
g70
I4
ssg71
g1935
sg64
(lp1942
g57
(g66
g59
NtRp1943
(dp1944
g62
(dp1945
g70
I3
ssg71
Nsg64
(lp1946
g57
(g73
g59
NtRp1947
(dp1948
g62
(dp1949
sg71
g1943
sg64
(lp1950
g57
(g78
g59
NtRp1951
(dp1952
g62
(dp1953
sg71
g1947
sg64
(lp1954
g57
(g58
g59
NtRp1955
(dp1956
g62
(dp1957
g70
I3
ssg71
g1951
sg64
(lp1958
S'1'
asbasbasbag57
(g73
g59
NtRp1959
(dp1960
g62
(dp1961
sg71
g1943
sg64
(lp1962
g57
(g78
g59
NtRp1963
(dp1964
g62
(dp1965
sg71
g1959
sg64
(lp1966
g57
(g58
g59
NtRp1967
(dp1968
g62
(dp1969
g70
I3
ssg71
g1963
sg64
(lp1970
S'0'
asbasbasbasbasbasbasbasbasbasbasbag57
(g73
g59
NtRp1971
(dp1972
g62
(dp1973
sg71
g67
sg64
(lp1974
g57
(g78
g59
NtRp1975
(dp1976
g62
(dp1977
g82
g83
ssg71
g1971
sg64
(lp1978
S'extension'
p1979
asbag57
(g78
g59
NtRp1980
(dp1981
g62
(dp1982
g89
g90
ssg71
g1971
sg64
(lp1983
S':'
asbag57
(g78
g59
NtRp1984
(dp1985
g62
(dp1986
sg71
g1971
sg64
(lp1987
g57
(g58
g59
NtRp1988
(dp1989
g62
(dp1990
g70
I5
ssg71
g1984
sg64
(lp1991
S'html'
p1992
asbasbasbag57
(g73
g59
NtRp1993
(dp1994
g62
(dp1995
sg71
g67
sg64
(lp1996
g57
(g78
g59
NtRp1997
(dp1998
g62
(dp1999
g82
g83
ssg71
g1993
sg64
(lp2000
S'folder'
p2001
asbag57
(g78
g59
NtRp2002
(dp2003
g62
(dp2004
g89
g90
ssg71
g1993
sg64
(lp2005
S':'
asbag57
(g78
g59
NtRp2006
(dp2007
g62
(dp2008
sg71
g1993
sg64
(lp2009
g57
(g58
g59
NtRp2010
(dp2011
g62
(dp2012
g70
I5
ssg71
g2006
sg64
(lp2013
S'c:\\Users\\rochacbruno\\jul12\\cursojulho12\\web2py\\applications\\ecommerce\\'
p2014
asbasbasbag57
(g73
g59
NtRp2015
(dp2016
g62
(dp2017
sg71
g67
sg64
(lp2018
g57
(g78
g59
NtRp2019
(dp2020
g62
(dp2021
g82
g83
ssg71
g2015
sg64
(lp2022
S'function'
p2023
asbag57
(g78
g59
NtRp2024
(dp2025
g62
(dp2026
g89
g90
ssg71
g2015
sg64
(lp2027
S':'
asbag57
(g78
g59
NtRp2028
(dp2029
g62
(dp2030
sg71
g2015
sg64
(lp2031
g57
(g58
g59
NtRp2032
(dp2033
g62
(dp2034
g70
I5
ssg71
g2028
sg64
(lp2035
S'user'
p2036
asbasbasbag57
(g73
g59
NtRp2037
(dp2038
g62
(dp2039
sg71
g67
sg64
(lp2040
g57
(g78
g59
NtRp2041
(dp2042
g62
(dp2043
g82
g83
ssg71
g2037
sg64
(lp2044
S'get_vars'
p2045
asbag57
(g78
g59
NtRp2046
(dp2047
g62
(dp2048
g89
g90
ssg71
g2037
sg64
(lp2049
S':'
asbag57
(g78
g59
NtRp2050
(dp2051
g62
(dp2052
sg71
g2037
sg64
(lp2053
g57
(g58
g59
NtRp2054
(dp2055
g62
(dp2056
g70
I5
ssg71
g2050
sg64
(lp2057
g57
(g66
g59
NtRp2058
(dp2059
g62
(dp2060
g70
I4
ssg71
Nsg64
(lp2061
sbasbasbasbag57
(g73
g59
NtRp2062
(dp2063
g62
(dp2064
sg71
g67
sg64
(lp2065
g57
(g78
g59
NtRp2066
(dp2067
g62
(dp2068
g82
g83
ssg71
g2062
sg64
(lp2069
S'global_settings'
p2070
asbag57
(g78
g59
NtRp2071
(dp2072
g62
(dp2073
g89
g90
ssg71
g2062
sg64
(lp2074
S':'
asbag57
(g78
g59
NtRp2075
(dp2076
g62
(dp2077
sg71
g2062
sg64
(lp2078
g57
(g58
g59
NtRp2079
(dp2080
g62
(dp2081
g70
I5
ssg71
g2075
sg64
(lp2082
g57
(g66
g59
NtRp2083
(dp2084
g62
(dp2085
g70
I4
ssg71
Nsg64
(lp2086
g57
(g73
g59
NtRp2087
(dp2088
g62
(dp2089
sg71
g2083
sg64
(lp2090
g57
(g78
g59
NtRp2091
(dp2092
g62
(dp2093
g82
g83
ssg71
g2087
sg64
(lp2094
g1036
asbag57
(g78
g59
NtRp2095
(dp2096
g62
(dp2097
g89
g90
ssg71
g2087
sg64
(lp2098
S':'
asbag57
(g78
g59
NtRp2099
(dp2100
g62
(dp2101
sg71
g2087
sg64
(lp2102
g57
(g58
g59
NtRp2103
(dp2104
g62
(dp2105
g70
I4
ssg71
g2099
sg64
(lp2106
S"set(['c:\\\\Users\\\\rochacbruno\\\\jul12\\\\cursojulho12\\\\web2py\\\\applications\\\\ecommerce\\\\', 'c:\\\\Users\\\\rochacbruno\\\\jul12\\\\cursojulho12\\\\web2py\\\\applications\\\\admin\\\\'])"
p2107
asbasbasbag57
(g73
g59
NtRp2108
(dp2109
g62
(dp2110
sg71
g2083
sg64
(lp2111
g57
(g78
g59
NtRp2112
(dp2113
g62
(dp2114
g82
g83
ssg71
g2108
sg64
(lp2115
g1058
asbag57
(g78
g59
NtRp2116
(dp2117
g62
(dp2118
g89
g90
ssg71
g2108
sg64
(lp2119
S':'
asbag57
(g78
g59
NtRp2120
(dp2121
g62
(dp2122
sg71
g2108
sg64
(lp2123
g57
(g58
g59
NtRp2124
(dp2125
g62
(dp2126
g70
I4
ssg71
g2120
sg64
(lp2127
g1071
asbasbasbag57
(g73
g59
NtRp2128
(dp2129
g62
(dp2130
sg71
g2083
sg64
(lp2131
g57
(g78
g59
NtRp2132
(dp2133
g62
(dp2134
g82
g83
ssg71
g2128
sg64
(lp2135
g1080
asbag57
(g78
g59
NtRp2136
(dp2137
g62
(dp2138
g89
g90
ssg71
g2128
sg64
(lp2139
S':'
asbag57
(g78
g59
NtRp2140
(dp2141
g62
(dp2142
sg71
g2128
sg64
(lp2143
g57
(g58
g59
NtRp2144
(dp2145
g62
(dp2146
g70
I4
ssg71
g2140
sg64
(lp2147
g57
(g66
g59
NtRp2148
(dp2149
g62
(dp2150
g70
I3
ssg71
Nsg64
(lp2151
sbasbasbasbag57
(g73
g59
NtRp2152
(dp2153
g62
(dp2154
sg71
g2083
sg64
(lp2155
g57
(g78
g59
NtRp2156
(dp2157
g62
(dp2158
g82
g83
ssg71
g2152
sg64
(lp2159
g1105
asbag57
(g78
g59
NtRp2160
(dp2161
g62
(dp2162
g89
g90
ssg71
g2152
sg64
(lp2163
S':'
asbag57
(g78
g59
NtRp2164
(dp2165
g62
(dp2166
sg71
g2152
sg64
(lp2167
g57
(g58
g59
NtRp2168
(dp2169
g62
(dp2170
g70
I4
ssg71
g2164
sg64
(lp2171
S"<Values at 0x2af8be8: {'verbose': False, 'ip': '127.0.0.1', 'with_scheduler': False, 'ips': ['192.168.1.100'], 'shutdown_timeout': 5, 'taskbar': False, 'port': 8000, 'maxthreads': None, 'softcron': False, 'server_name': 'rochacbruno-HP', 'bpython': False, 'nogui': False, 'nocron': True, 'extcron': False, 'run_system_tests': False, 'test': None, 'folder': 'c:\\\\Users\\\\rochacbruno\\\\jul12\\\\cursojulho12\\\\web2py', 'config': '', 'import_models': False, 'winservice': '', 'shell': None, 'run': '', 'log_filename': 'httpserver.log', 'debuglevel': 30, 'args': [''], 'socket_timeout': 5, 'ssl_ca_certificate': None, 'scheduler': None, 'profiler_filename': None, 'ssl_private_key': '', 'password': '1234', 'request_queue_size': 5, 'ssl_certificate': '', 'cronjob': False, 'numthreads': None, 'quiet': False, 'interfaces': None, 'minthreads': None, 'timeout': 10, 'plain': False, 'nobanner': False, 'pid_filename': 'httpserver.pid'}>"
p2172
asbasbasbag57
(g73
g59
NtRp2173
(dp2174
g62
(dp2175
sg71
g2083
sg64
(lp2176
g57
(g78
g59
NtRp2177
(dp2178
g62
(dp2179
g82
g83
ssg71
g2173
sg64
(lp2180
g1127
asbag57
(g78
g59
NtRp2181
(dp2182
g62
(dp2183
g89
g90
ssg71
g2173
sg64
(lp2184
S':'
asbag57
(g78
g59
NtRp2185
(dp2186
g62
(dp2187
sg71
g2173
sg64
(lp2188
g57
(g58
g59
NtRp2189
(dp2190
g62
(dp2191
g70
I4
ssg71
g2185
sg64
(lp2192
S'set([])'
p2193
asbasbasbag57
(g73
g59
NtRp2194
(dp2195
g62
(dp2196
sg71
g2083
sg64
(lp2197
g57
(g78
g59
NtRp2198
(dp2199
g62
(dp2200
g82
g83
ssg71
g2194
sg64
(lp2201
g1149
asbag57
(g78
g59
NtRp2202
(dp2203
g62
(dp2204
g89
g90
ssg71
g2194
sg64
(lp2205
S':'
asbag57
(g78
g59
NtRp2206
(dp2207
g62
(dp2208
sg71
g2194
sg64
(lp2209
g57
(g58
g59
NtRp2210
(dp2211
g62
(dp2212
g70
I4
ssg71
g2206
sg64
(lp2213
g100
asbasbasbag57
(g73
g59
NtRp2214
(dp2215
g62
(dp2216
sg71
g2083
sg64
(lp2217
g57
(g78
g59
NtRp2218
(dp2219
g62
(dp2220
g82
g83
ssg71
g2214
sg64
(lp2221
g1170
asbag57
(g78
g59
NtRp2222
(dp2223
g62
(dp2224
g89
g90
ssg71
g2214
sg64
(lp2225
S':'
asbag57
(g78
g59
NtRp2226
(dp2227
g62
(dp2228
sg71
g2214
sg64
(lp2229
g57
(g58
g59
NtRp2230
(dp2231
g62
(dp2232
g70
I4
ssg71
g2226
sg64
(lp2233
g1183
asbasbasbag57
(g73
g59
NtRp2234
(dp2235
g62
(dp2236
sg71
g2083
sg64
(lp2237
g57
(g78
g59
NtRp2238
(dp2239
g62
(dp2240
g82
g83
ssg71
g2234
sg64
(lp2241
g1368
asbag57
(g78
g59
NtRp2242
(dp2243
g62
(dp2244
g89
g90
ssg71
g2234
sg64
(lp2245
S':'
asbag57
(g78
g59
NtRp2246
(dp2247
g62
(dp2248
sg71
g2234
sg64
(lp2249
g57
(g58
g59
NtRp2250
(dp2251
g62
(dp2252
g70
I4
ssg71
g2246
sg64
(lp2253
g100
asbasbasbag57
(g73
g59
NtRp2254
(dp2255
g62
(dp2256
sg71
g2083
sg64
(lp2257
g57
(g78
g59
NtRp2258
(dp2259
g62
(dp2260
g82
g83
ssg71
g2254
sg64
(lp2261
g1389
asbag57
(g78
g59
NtRp2262
(dp2263
g62
(dp2264
g89
g90
ssg71
g2254
sg64
(lp2265
S':'
asbag57
(g78
g59
NtRp2266
(dp2267
g62
(dp2268
sg71
g2254
sg64
(lp2269
g57
(g58
g59
NtRp2270
(dp2271
g62
(dp2272
g70
I4
ssg71
g2266
sg64
(lp2273
g100
asbasbasbag57
(g73
g59
NtRp2274
(dp2275
g62
(dp2276
sg71
g2083
sg64
(lp2277
g57
(g78
g59
NtRp2278
(dp2279
g62
(dp2280
g82
g83
ssg71
g2274
sg64
(lp2281
g1691
asbag57
(g78
g59
NtRp2282
(dp2283
g62
(dp2284
g89
g90
ssg71
g2274
sg64
(lp2285
S':'
asbag57
(g78
g59
NtRp2286
(dp2287
g62
(dp2288
sg71
g2274
sg64
(lp2289
g57
(g58
g59
NtRp2290
(dp2291
g62
(dp2292
g70
I4
ssg71
g2286
sg64
(lp2293
g57
(g66
g59
NtRp2294
(dp2295
g62
(dp2296
g70
I3
ssg71
Nsg64
(lp2297
g57
(g73
g59
NtRp2298
(dp2299
g62
(dp2300
sg71
g2294
sg64
(lp2301
g57
(g78
g59
NtRp2302
(dp2303
g62
(dp2304
sg71
g2298
sg64
(lp2305
g57
(g58
g59
NtRp2306
(dp2307
g62
(dp2308
g70
I3
ssg71
g2302
sg64
(lp2309
S'2'
asbasbasbag57
(g73
g59
NtRp2310
(dp2311
g62
(dp2312
sg71
g2294
sg64
(lp2313
g57
(g78
g59
NtRp2314
(dp2315
g62
(dp2316
sg71
g2310
sg64
(lp2317
g57
(g58
g59
NtRp2318
(dp2319
g62
(dp2320
g70
I3
ssg71
g2314
sg64
(lp2321
S'0'
asbasbasbag57
(g73
g59
NtRp2322
(dp2323
g62
(dp2324
sg71
g2294
sg64
(lp2325
g57
(g78
g59
NtRp2326
(dp2327
g62
(dp2328
sg71
g2322
sg64
(lp2329
g57
(g58
g59
NtRp2330
(dp2331
g62
(dp2332
g70
I3
ssg71
g2326
sg64
(lp2333
S'0'
asbasbasbag57
(g73
g59
NtRp2334
(dp2335
g62
(dp2336
sg71
g2294
sg64
(lp2337
g57
(g78
g59
NtRp2338
(dp2339
g62
(dp2340
sg71
g2334
sg64
(lp2341
g57
(g58
g59
NtRp2342
(dp2343
g62
(dp2344
g70
I3
ssg71
g2338
sg64
(lp2345
S'datetime.datetime(2012, 8, 10, 13, 1, 31)'
p2346
asbasbasbag57
(g73
g59
NtRp2347
(dp2348
g62
(dp2349
sg71
g2294
sg64
(lp2350
g57
(g78
g59
NtRp2351
(dp2352
g62
(dp2353
sg71
g2347
sg64
(lp2354
g57
(g58
g59
NtRp2355
(dp2356
g62
(dp2357
g70
I3
ssg71
g2351
sg64
(lp2358
g1769
asbasbasbasbasbasbasbasbasbasbasbag57
(g73
g59
NtRp2359
(dp2360
g62
(dp2361
sg71
g67
sg64
(lp2362
g57
(g78
g59
NtRp2363
(dp2364
g62
(dp2365
g82
g83
ssg71
g2359
sg64
(lp2366
S'is_https'
p2367
asbag57
(g78
g59
NtRp2368
(dp2369
g62
(dp2370
g89
g90
ssg71
g2359
sg64
(lp2371
S':'
asbag57
(g78
g59
NtRp2372
(dp2373
g62
(dp2374
sg71
g2359
sg64
(lp2375
g57
(g58
g59
NtRp2376
(dp2377
g62
(dp2378
g70
I5
ssg71
g2372
sg64
(lp2379
g100
asbasbasbag57
(g73
g59
NtRp2380
(dp2381
g62
(dp2382
sg71
g67
sg64
(lp2383
g57
(g78
g59
NtRp2384
(dp2385
g62
(dp2386
g82
g83
ssg71
g2380
sg64
(lp2387
S'is_local'
p2388
asbag57
(g78
g59
NtRp2389
(dp2390
g62
(dp2391
g89
g90
ssg71
g2380
sg64
(lp2392
S':'
asbag57
(g78
g59
NtRp2393
(dp2394
g62
(dp2395
sg71
g2380
sg64
(lp2396
g57
(g58
g59
NtRp2397
(dp2398
g62
(dp2399
g70
I5
ssg71
g2393
sg64
(lp2400
g1878
asbasbasbag57
(g73
g59
NtRp2401
(dp2402
g62
(dp2403
sg71
g67
sg64
(lp2404
g57
(g78
g59
NtRp2405
(dp2406
g62
(dp2407
g82
g83
ssg71
g2401
sg64
(lp2408
S'is_restful'
p2409
asbag57
(g78
g59
NtRp2410
(dp2411
g62
(dp2412
g89
g90
ssg71
g2401
sg64
(lp2413
S':'
asbag57
(g78
g59
NtRp2414
(dp2415
g62
(dp2416
sg71
g2401
sg64
(lp2417
g57
(g58
g59
NtRp2418
(dp2419
g62
(dp2420
g70
I5
ssg71
g2414
sg64
(lp2421
g100
asbasbasbag57
(g73
g59
NtRp2422
(dp2423
g62
(dp2424
sg71
g67
sg64
(lp2425
g57
(g78
g59
NtRp2426
(dp2427
g62
(dp2428
g82
g83
ssg71
g2422
sg64
(lp2429
S'now'
p2430
asbag57
(g78
g59
NtRp2431
(dp2432
g62
(dp2433
g89
g90
ssg71
g2422
sg64
(lp2434
S':'
asbag57
(g78
g59
NtRp2435
(dp2436
g62
(dp2437
sg71
g2422
sg64
(lp2438
g57
(g58
g59
NtRp2439
(dp2440
g62
(dp2441
g70
I5
ssg71
g2435
sg64
(lp2442
S'datetime.datetime(2012, 8, 12, 13, 29, 33, 767000)'
p2443
asbasbasbag57
(g73
g59
NtRp2444
(dp2445
g62
(dp2446
sg71
g67
sg64
(lp2447
g57
(g78
g59
NtRp2448
(dp2449
g62
(dp2450
g82
g83
ssg71
g2444
sg64
(lp2451
S'post_vars'
p2452
asbag57
(g78
g59
NtRp2453
(dp2454
g62
(dp2455
g89
g90
ssg71
g2444
sg64
(lp2456
S':'
asbag57
(g78
g59
NtRp2457
(dp2458
g62
(dp2459
sg71
g2444
sg64
(lp2460
g57
(g58
g59
NtRp2461
(dp2462
g62
(dp2463
g70
I5
ssg71
g2457
sg64
(lp2464
g57
(g66
g59
NtRp2465
(dp2466
g62
(dp2467
g70
I4
ssg71
Nsg64
(lp2468
sbasbasbasbag57
(g73
g59
NtRp2469
(dp2470
g62
(dp2471
sg71
g67
sg64
(lp2472
g57
(g78
g59
NtRp2473
(dp2474
g62
(dp2475
g82
g83
ssg71
g2469
sg64
(lp2476
S'url'
p2477
asbag57
(g78
g59
NtRp2478
(dp2479
g62
(dp2480
g89
g90
ssg71
g2469
sg64
(lp2481
S':'
asbag57
(g78
g59
NtRp2482
(dp2483
g62
(dp2484
sg71
g2469
sg64
(lp2485
g57
(g58
g59
NtRp2486
(dp2487
g62
(dp2488
g70
I5
ssg71
g2482
sg64
(lp2489
S'/user/register'
p2490
asbasbasbag57
(g73
g59
NtRp2491
(dp2492
g62
(dp2493
sg71
g67
sg64
(lp2494
g57
(g78
g59
NtRp2495
(dp2496
g62
(dp2497
g82
g83
ssg71
g2491
sg64
(lp2498
S'utcnow'
p2499
asbag57
(g78
g59
NtRp2500
(dp2501
g62
(dp2502
g89
g90
ssg71
g2491
sg64
(lp2503
S':'
asbag57
(g78
g59
NtRp2504
(dp2505
g62
(dp2506
sg71
g2491
sg64
(lp2507
g57
(g58
g59
NtRp2508
(dp2509
g62
(dp2510
g70
I5
ssg71
g2504
sg64
(lp2511
S'datetime.datetime(2012, 8, 12, 16, 29, 33, 767000)'
p2512
asbasbasbag57
(g73
g59
NtRp2513
(dp2514
g62
(dp2515
sg71
g67
sg64
(lp2516
g57
(g78
g59
NtRp2517
(dp2518
g62
(dp2519
g82
g83
ssg71
g2513
sg64
(lp2520
S'uuid'
p2521
asbag57
(g78
g59
NtRp2522
(dp2523
g62
(dp2524
g89
g90
ssg71
g2513
sg64
(lp2525
S':'
asbag57
(g78
g59
NtRp2526
(dp2527
g62
(dp2528
sg71
g2513
sg64
(lp2529
g57
(g58
g59
NtRp2530
(dp2531
g62
(dp2532
g70
I5
ssg71
g2526
sg64
(lp2533
S'ecommerce/127.0.0.1.2012-08-12.13-29-33.6fe55e59-3289-4afd-9413-357c62635f78'
p2534
asbasbasbag57
(g73
g59
NtRp2535
(dp2536
g62
(dp2537
sg71
g67
sg64
(lp2538
g57
(g78
g59
NtRp2539
(dp2540
g62
(dp2541
g82
g83
ssg71
g2535
sg64
(lp2542
S'vars'
p2543
asbag57
(g78
g59
NtRp2544
(dp2545
g62
(dp2546
g89
g90
ssg71
g2535
sg64
(lp2547
S':'
asbag57
(g78
g59
NtRp2548
(dp2549
g62
(dp2550
sg71
g2535
sg64
(lp2551
g57
(g58
g59
NtRp2552
(dp2553
g62
(dp2554
g70
I5
ssg71
g2548
sg64
(lp2555
g57
(g66
g59
NtRp2556
(dp2557
g62
(dp2558
g70
I4
ssg71
Nsg64
(lp2559
sbasbasbasbag57
(g73
g59
NtRp2560
(dp2561
g62
(dp2562
sg71
g67
sg64
(lp2563
g57
(g78
g59
NtRp2564
(dp2565
g62
(dp2566
g82
g83
ssg71
g2560
sg64
(lp2567
S'wsgi'
p2568
asbag57
(g78
g59
NtRp2569
(dp2570
g62
(dp2571
g89
g90
ssg71
g2560
sg64
(lp2572
S':'
asbag57
(g78
g59
NtRp2573
(dp2574
g62
(dp2575
sg71
g2560
sg64
(lp2576
g57
(g58
g59
NtRp2577
(dp2578
g62
(dp2579
g70
I5
ssg71
g2573
sg64
(lp2580
g57
(g66
g59
NtRp2581
(dp2582
g62
(dp2583
g70
I4
ssg71
Nsg64
(lp2584
g57
(g73
g59
NtRp2585
(dp2586
g62
(dp2587
sg71
g2581
sg64
(lp2588
g57
(g78
g59
NtRp2589
(dp2590
g62
(dp2591
g82
g83
ssg71
g2585
sg64
(lp2592
S'environ'
p2593
asbag57
(g78
g59
NtRp2594
(dp2595
g62
(dp2596
g89
g90
ssg71
g2585
sg64
(lp2597
S':'
asbag57
(g78
g59
NtRp2598
(dp2599
g62
(dp2600
sg71
g2585
sg64
(lp2601
g57
(g58
g59
NtRp2602
(dp2603
g62
(dp2604
g70
I4
ssg71
g2598
sg64
(lp2605
g57
(g66
g59
NtRp2606
(dp2607
g62
(dp2608
g70
I3
ssg71
Nsg64
(lp2609
g57
(g73
g59
NtRp2610
(dp2611
g62
(dp2612
sg71
g2606
sg64
(lp2613
g57
(g78
g59
NtRp2614
(dp2615
g62
(dp2616
g82
g83
ssg71
g2610
sg64
(lp2617
S'HTTP_ACCEPT'
p2618
asbag57
(g78
g59
NtRp2619
(dp2620
g62
(dp2621
g89
g90
ssg71
g2610
sg64
(lp2622
S':'
asbag57
(g78
g59
NtRp2623
(dp2624
g62
(dp2625
sg71
g2610
sg64
(lp2626
g57
(g58
g59
NtRp2627
(dp2628
g62
(dp2629
g70
I3
ssg71
g2623
sg64
(lp2630
g1205
asbasbasbag57
(g73
g59
NtRp2631
(dp2632
g62
(dp2633
sg71
g2606
sg64
(lp2634
g57
(g78
g59
NtRp2635
(dp2636
g62
(dp2637
g82
g83
ssg71
g2631
sg64
(lp2638
S'HTTP_ACCEPT_ENCODING'
p2639
asbag57
(g78
g59
NtRp2640
(dp2641
g62
(dp2642
g89
g90
ssg71
g2631
sg64
(lp2643
S':'
asbag57
(g78
g59
NtRp2644
(dp2645
g62
(dp2646
sg71
g2631
sg64
(lp2647
g57
(g58
g59
NtRp2648
(dp2649
g62
(dp2650
g70
I3
ssg71
g2644
sg64
(lp2651
g1227
asbasbasbag57
(g73
g59
NtRp2652
(dp2653
g62
(dp2654
sg71
g2606
sg64
(lp2655
g57
(g78
g59
NtRp2656
(dp2657
g62
(dp2658
g82
g83
ssg71
g2652
sg64
(lp2659
S'HTTP_ACCEPT_LANGUAGE'
p2660
asbag57
(g78
g59
NtRp2661
(dp2662
g62
(dp2663
g89
g90
ssg71
g2652
sg64
(lp2664
S':'
asbag57
(g78
g59
NtRp2665
(dp2666
g62
(dp2667
sg71
g2652
sg64
(lp2668
g57
(g58
g59
NtRp2669
(dp2670
g62
(dp2671
g70
I3
ssg71
g2665
sg64
(lp2672
g1249
asbasbasbag57
(g73
g59
NtRp2673
(dp2674
g62
(dp2675
sg71
g2606
sg64
(lp2676
g57
(g78
g59
NtRp2677
(dp2678
g62
(dp2679
g82
g83
ssg71
g2673
sg64
(lp2680
S'HTTP_CACHE_CONTROL'
p2681
asbag57
(g78
g59
NtRp2682
(dp2683
g62
(dp2684
g89
g90
ssg71
g2673
sg64
(lp2685
S':'
asbag57
(g78
g59
NtRp2686
(dp2687
g62
(dp2688
sg71
g2673
sg64
(lp2689
g57
(g58
g59
NtRp2690
(dp2691
g62
(dp2692
g70
I3
ssg71
g2686
sg64
(lp2693
g1271
asbasbasbag57
(g73
g59
NtRp2694
(dp2695
g62
(dp2696
sg71
g2606
sg64
(lp2697
g57
(g78
g59
NtRp2698
(dp2699
g62
(dp2700
g82
g83
ssg71
g2694
sg64
(lp2701
S'HTTP_CONNECTION'
p2702
asbag57
(g78
g59
NtRp2703
(dp2704
g62
(dp2705
g89
g90
ssg71
g2694
sg64
(lp2706
S':'
asbag57
(g78
g59
NtRp2707
(dp2708
g62
(dp2709
sg71
g2694
sg64
(lp2710
g57
(g58
g59
NtRp2711
(dp2712
g62
(dp2713
g70
I3
ssg71
g2707
sg64
(lp2714
g1293
asbasbasbag57
(g73
g59
NtRp2715
(dp2716
g62
(dp2717
sg71
g2606
sg64
(lp2718
g57
(g78
g59
NtRp2719
(dp2720
g62
(dp2721
g82
g83
ssg71
g2715
sg64
(lp2722
S'HTTP_COOKIE'
p2723
asbag57
(g78
g59
NtRp2724
(dp2725
g62
(dp2726
g89
g90
ssg71
g2715
sg64
(lp2727
S':'
asbag57
(g78
g59
NtRp2728
(dp2729
g62
(dp2730
sg71
g2715
sg64
(lp2731
g57
(g58
g59
NtRp2732
(dp2733
g62
(dp2734
g70
I3
ssg71
g2728
sg64
(lp2735
g1315
asbasbasbag57
(g73
g59
NtRp2736
(dp2737
g62
(dp2738
sg71
g2606
sg64
(lp2739
g57
(g78
g59
NtRp2740
(dp2741
g62
(dp2742
g82
g83
ssg71
g2736
sg64
(lp2743
S'HTTP_HOST'
p2744
asbag57
(g78
g59
NtRp2745
(dp2746
g62
(dp2747
g89
g90
ssg71
g2736
sg64
(lp2748
S':'
asbag57
(g78
g59
NtRp2749
(dp2750
g62
(dp2751
sg71
g2736
sg64
(lp2752
g57
(g58
g59
NtRp2753
(dp2754
g62
(dp2755
g70
I3
ssg71
g2749
sg64
(lp2756
g1337
asbasbasbag57
(g73
g59
NtRp2757
(dp2758
g62
(dp2759
sg71
g2606
sg64
(lp2760
g57
(g78
g59
NtRp2761
(dp2762
g62
(dp2763
g82
g83
ssg71
g2757
sg64
(lp2764
S'HTTP_USER_AGENT'
p2765
asbag57
(g78
g59
NtRp2766
(dp2767
g62
(dp2768
g89
g90
ssg71
g2757
sg64
(lp2769
S':'
asbag57
(g78
g59
NtRp2770
(dp2771
g62
(dp2772
sg71
g2757
sg64
(lp2773
g57
(g58
g59
NtRp2774
(dp2775
g62
(dp2776
g70
I3
ssg71
g2770
sg64
(lp2777
g1359
asbasbasbag57
(g73
g59
NtRp2778
(dp2779
g62
(dp2780
sg71
g2606
sg64
(lp2781
g57
(g78
g59
NtRp2782
(dp2783
g62
(dp2784
g82
g83
ssg71
g2778
sg64
(lp2785
S'PATH_INFO'
p2786
asbag57
(g78
g59
NtRp2787
(dp2788
g62
(dp2789
g89
g90
ssg71
g2778
sg64
(lp2790
S':'
asbag57
(g78
g59
NtRp2791
(dp2792
g62
(dp2793
sg71
g2778
sg64
(lp2794
g57
(g58
g59
NtRp2795
(dp2796
g62
(dp2797
g70
I3
ssg71
g2791
sg64
(lp2798
g1423
asbasbasbag57
(g73
g59
NtRp2799
(dp2800
g62
(dp2801
sg71
g2606
sg64
(lp2802
g57
(g78
g59
NtRp2803
(dp2804
g62
(dp2805
g82
g83
ssg71
g2799
sg64
(lp2806
S'QUERY_STRING'
p2807
asbag57
(g78
g59
NtRp2808
(dp2809
g62
(dp2810
g89
g90
ssg71
g2799
sg64
(lp2811
S':'
asbag57
(g78
g59
NtRp2812
(dp2813
g62
(dp2814
sg71
g2799
sg64
(lp2815
g57
(g58
g59
NtRp2816
(dp2817
g62
(dp2818
g70
I3
ssg71
g2812
sg64
(lp2819
S''
asbasbasbag57
(g73
g59
NtRp2820
(dp2821
g62
(dp2822
sg71
g2606
sg64
(lp2823
g57
(g78
g59
NtRp2824
(dp2825
g62
(dp2826
g82
g83
ssg71
g2820
sg64
(lp2827
S'REMOTE_ADDR'
p2828
asbag57
(g78
g59
NtRp2829
(dp2830
g62
(dp2831
g89
g90
ssg71
g2820
sg64
(lp2832
S':'
asbag57
(g78
g59
NtRp2833
(dp2834
g62
(dp2835
sg71
g2820
sg64
(lp2836
g57
(g58
g59
NtRp2837
(dp2838
g62
(dp2839
g70
I3
ssg71
g2833
sg64
(lp2840
g203
asbasbasbag57
(g73
g59
NtRp2841
(dp2842
g62
(dp2843
sg71
g2606
sg64
(lp2844
g57
(g78
g59
NtRp2845
(dp2846
g62
(dp2847
g82
g83
ssg71
g2841
sg64
(lp2848
S'REMOTE_PORT'
p2849
asbag57
(g78
g59
NtRp2850
(dp2851
g62
(dp2852
g89
g90
ssg71
g2841
sg64
(lp2853
S':'
asbag57
(g78
g59
NtRp2854
(dp2855
g62
(dp2856
sg71
g2841
sg64
(lp2857
g57
(g58
g59
NtRp2858
(dp2859
g62
(dp2860
g70
I3
ssg71
g2854
sg64
(lp2861
g1487
asbasbasbag57
(g73
g59
NtRp2862
(dp2863
g62
(dp2864
sg71
g2606
sg64
(lp2865
g57
(g78
g59
NtRp2866
(dp2867
g62
(dp2868
g82
g83
ssg71
g2862
sg64
(lp2869
S'REQUEST_METHOD'
p2870
asbag57
(g78
g59
NtRp2871
(dp2872
g62
(dp2873
g89
g90
ssg71
g2862
sg64
(lp2874
S':'
asbag57
(g78
g59
NtRp2875
(dp2876
g62
(dp2877
sg71
g2862
sg64
(lp2878
g57
(g58
g59
NtRp2879
(dp2880
g62
(dp2881
g70
I3
ssg71
g2875
sg64
(lp2882
g1509
asbasbasbag57
(g73
g59
NtRp2883
(dp2884
g62
(dp2885
sg71
g2606
sg64
(lp2886
g57
(g78
g59
NtRp2887
(dp2888
g62
(dp2889
g82
g83
ssg71
g2883
sg64
(lp2890
S'REQUEST_URI'
p2891
asbag57
(g78
g59
NtRp2892
(dp2893
g62
(dp2894
g89
g90
ssg71
g2883
sg64
(lp2895
S':'
asbag57
(g78
g59
NtRp2896
(dp2897
g62
(dp2898
sg71
g2883
sg64
(lp2899
g57
(g58
g59
NtRp2900
(dp2901
g62
(dp2902
g70
I3
ssg71
g2896
sg64
(lp2903
g1531
asbasbasbag57
(g73
g59
NtRp2904
(dp2905
g62
(dp2906
sg71
g2606
sg64
(lp2907
g57
(g78
g59
NtRp2908
(dp2909
g62
(dp2910
g82
g83
ssg71
g2904
sg64
(lp2911
S'SCRIPT_NAME'
p2912
asbag57
(g78
g59
NtRp2913
(dp2914
g62
(dp2915
g89
g90
ssg71
g2904
sg64
(lp2916
S':'
asbag57
(g78
g59
NtRp2917
(dp2918
g62
(dp2919
sg71
g2904
sg64
(lp2920
g57
(g58
g59
NtRp2921
(dp2922
g62
(dp2923
g70
I3
ssg71
g2917
sg64
(lp2924
S''
asbasbasbag57
(g73
g59
NtRp2925
(dp2926
g62
(dp2927
sg71
g2606
sg64
(lp2928
g57
(g78
g59
NtRp2929
(dp2930
g62
(dp2931
g82
g83
ssg71
g2925
sg64
(lp2932
S'SERVER_NAME'
p2933
asbag57
(g78
g59
NtRp2934
(dp2935
g62
(dp2936
g89
g90
ssg71
g2925
sg64
(lp2937
S':'
asbag57
(g78
g59
NtRp2938
(dp2939
g62
(dp2940
sg71
g2925
sg64
(lp2941
g57
(g58
g59
NtRp2942
(dp2943
g62
(dp2944
g70
I3
ssg71
g2938
sg64
(lp2945
g1574
asbasbasbag57
(g73
g59
NtRp2946
(dp2947
g62
(dp2948
sg71
g2606
sg64
(lp2949
g57
(g78
g59
NtRp2950
(dp2951
g62
(dp2952
g82
g83
ssg71
g2946
sg64
(lp2953
S'SERVER_PORT'
p2954
asbag57
(g78
g59
NtRp2955
(dp2956
g62
(dp2957
g89
g90
ssg71
g2946
sg64
(lp2958
S':'
asbag57
(g78
g59
NtRp2959
(dp2960
g62
(dp2961
sg71
g2946
sg64
(lp2962
g57
(g58
g59
NtRp2963
(dp2964
g62
(dp2965
g70
I3
ssg71
g2959
sg64
(lp2966
g1596
asbasbasbag57
(g73
g59
NtRp2967
(dp2968
g62
(dp2969
sg71
g2606
sg64
(lp2970
g57
(g78
g59
NtRp2971
(dp2972
g62
(dp2973
g82
g83
ssg71
g2967
sg64
(lp2974
S'SERVER_PROTOCOL'
p2975
asbag57
(g78
g59
NtRp2976
(dp2977
g62
(dp2978
g89
g90
ssg71
g2967
sg64
(lp2979
S':'
asbag57
(g78
g59
NtRp2980
(dp2981
g62
(dp2982
sg71
g2967
sg64
(lp2983
g57
(g58
g59
NtRp2984
(dp2985
g62
(dp2986
g70
I3
ssg71
g2980
sg64
(lp2987
g1618
asbasbasbag57
(g73
g59
NtRp2988
(dp2989
g62
(dp2990
sg71
g2606
sg64
(lp2991
g57
(g78
g59
NtRp2992
(dp2993
g62
(dp2994
g82
g83
ssg71
g2988
sg64
(lp2995
S'SERVER_SOFTWARE'
p2996
asbag57
(g78
g59
NtRp2997
(dp2998
g62
(dp2999
g89
g90
ssg71
g2988
sg64
(lp3000
S':'
asbag57
(g78
g59
NtRp3001
(dp3002
g62
(dp3003
sg71
g2988
sg64
(lp3004
g57
(g58
g59
NtRp3005
(dp3006
g62
(dp3007
g70
I3
ssg71
g3001
sg64
(lp3008
g1640
asbasbasbag57
(g73
g59
NtRp3009
(dp3010
g62
(dp3011
sg71
g2606
sg64
(lp3012
g57
(g78
g59
NtRp3013
(dp3014
g62
(dp3015
g82
g83
ssg71
g3009
sg64
(lp3016
S'WEB2PY_ORIGINAL_URI'
p3017
asbag57
(g78
g59
NtRp3018
(dp3019
g62
(dp3020
g89
g90
ssg71
g3009
sg64
(lp3021
S':'
asbag57
(g78
g59
NtRp3022
(dp3023
g62
(dp3024
sg71
g3009
sg64
(lp3025
g57
(g58
g59
NtRp3026
(dp3027
g62
(dp3028
g70
I3
ssg71
g3022
sg64
(lp3029
g1423
asbasbasbag57
(g73
g59
NtRp3030
(dp3031
g62
(dp3032
sg71
g2606
sg64
(lp3033
g57
(g78
g59
NtRp3034
(dp3035
g62
(dp3036
g82
g83
ssg71
g3030
sg64
(lp3037
S'wsgi.errors'
p3038
asbag57
(g78
g59
NtRp3039
(dp3040
g62
(dp3041
g89
g90
ssg71
g3030
sg64
(lp3042
S':'
asbag57
(g78
g59
NtRp3043
(dp3044
g62
(dp3045
sg71
g3030
sg64
(lp3046
g57
(g58
g59
NtRp3047
(dp3048
g62
(dp3049
g70
I3
ssg71
g3043
sg64
(lp3050
S"<open file '<stderr>', mode 'w' at 0x012750D0>"
p3051
asbasbasbag57
(g73
g59
NtRp3052
(dp3053
g62
(dp3054
sg71
g2606
sg64
(lp3055
g57
(g78
g59
NtRp3056
(dp3057
g62
(dp3058
g82
g83
ssg71
g3052
sg64
(lp3059
S'wsgi.file_wrapper'
p3060
asbag57
(g78
g59
NtRp3061
(dp3062
g62
(dp3063
g89
g90
ssg71
g3052
sg64
(lp3064
S':'
asbag57
(g78
g59
NtRp3065
(dp3066
g62
(dp3067
sg71
g3052
sg64
(lp3068
g57
(g58
g59
NtRp3069
(dp3070
g62
(dp3071
g70
I3
ssg71
g3065
sg64
(lp3072
S'<class wsgiref.util.FileWrapper at 0x02A383B0>'
p3073
asbasbasbag57
(g73
g59
NtRp3074
(dp3075
g62
(dp3076
sg71
g2606
sg64
(lp3077
g57
(g78
g59
NtRp3078
(dp3079
g62
(dp3080
g82
g83
ssg71
g3074
sg64
(lp3081
S'wsgi.input'
p3082
asbag57
(g78
g59
NtRp3083
(dp3084
g62
(dp3085
g89
g90
ssg71
g3074
sg64
(lp3086
S':'
asbag57
(g78
g59
NtRp3087
(dp3088
g62
(dp3089
sg71
g3074
sg64
(lp3090
g57
(g58
g59
NtRp3091
(dp3092
g62
(dp3093
g70
I3
ssg71
g3087
sg64
(lp3094
S'<cStringIO.StringO object at 0x0585F760>'
p3095
asbasbasbag57
(g73
g59
NtRp3096
(dp3097
g62
(dp3098
sg71
g2606
sg64
(lp3099
g57
(g78
g59
NtRp3100
(dp3101
g62
(dp3102
g82
g83
ssg71
g3096
sg64
(lp3103
S'wsgi.multiprocess'
p3104
asbag57
(g78
g59
NtRp3105
(dp3106
g62
(dp3107
g89
g90
ssg71
g3096
sg64
(lp3108
S':'
asbag57
(g78
g59
NtRp3109
(dp3110
g62
(dp3111
sg71
g3096
sg64
(lp3112
g57
(g58
g59
NtRp3113
(dp3114
g62
(dp3115
g70
I3
ssg71
g3109
sg64
(lp3116
g100
asbasbasbag57
(g73
g59
NtRp3117
(dp3118
g62
(dp3119
sg71
g2606
sg64
(lp3120
g57
(g78
g59
NtRp3121
(dp3122
g62
(dp3123
g82
g83
ssg71
g3117
sg64
(lp3124
S'wsgi.multithread'
p3125
asbag57
(g78
g59
NtRp3126
(dp3127
g62
(dp3128
g89
g90
ssg71
g3117
sg64
(lp3129
S':'
asbag57
(g78
g59
NtRp3130
(dp3131
g62
(dp3132
sg71
g3117
sg64
(lp3133
g57
(g58
g59
NtRp3134
(dp3135
g62
(dp3136
g70
I3
ssg71
g3130
sg64
(lp3137
g1878
asbasbasbag57
(g73
g59
NtRp3138
(dp3139
g62
(dp3140
sg71
g2606
sg64
(lp3141
g57
(g78
g59
NtRp3142
(dp3143
g62
(dp3144
g82
g83
ssg71
g3138
sg64
(lp3145
S'wsgi.run_once'
p3146
asbag57
(g78
g59
NtRp3147
(dp3148
g62
(dp3149
g89
g90
ssg71
g3138
sg64
(lp3150
S':'
asbag57
(g78
g59
NtRp3151
(dp3152
g62
(dp3153
sg71
g3138
sg64
(lp3154
g57
(g58
g59
NtRp3155
(dp3156
g62
(dp3157
g70
I3
ssg71
g3151
sg64
(lp3158
g100
asbasbasbag57
(g73
g59
NtRp3159
(dp3160
g62
(dp3161
sg71
g2606
sg64
(lp3162
g57
(g78
g59
NtRp3163
(dp3164
g62
(dp3165
g82
g83
ssg71
g3159
sg64
(lp3166
S'wsgi.url_scheme'
p3167
asbag57
(g78
g59
NtRp3168
(dp3169
g62
(dp3170
g89
g90
ssg71
g3159
sg64
(lp3171
S':'
asbag57
(g78
g59
NtRp3172
(dp3173
g62
(dp3174
sg71
g3159
sg64
(lp3175
g57
(g58
g59
NtRp3176
(dp3177
g62
(dp3178
g70
I3
ssg71
g3172
sg64
(lp3179
g1921
asbasbasbag57
(g73
g59
NtRp3180
(dp3181
g62
(dp3182
sg71
g2606
sg64
(lp3183
g57
(g78
g59
NtRp3184
(dp3185
g62
(dp3186
g82
g83
ssg71
g3180
sg64
(lp3187
S'wsgi.version'
p3188
asbag57
(g78
g59
NtRp3189
(dp3190
g62
(dp3191
g89
g90
ssg71
g3180
sg64
(lp3192
S':'
asbag57
(g78
g59
NtRp3193
(dp3194
g62
(dp3195
sg71
g3180
sg64
(lp3196
g57
(g58
g59
NtRp3197
(dp3198
g62
(dp3199
g70
I3
ssg71
g3193
sg64
(lp3200
S'1'
asbasbasbasbasbasbasbasbasbasbasbasbasbsS'frames'
p3201
(lp3202
(dp3203
S'file'
p3204
S'c:\\Users\\rochacbruno\\jul12\\cursojulho12\\web2py\\gluon\\restricted.py'
p3205
sS'dump'
p3206
(dp3207
S'environment'
p3208
S"{'A': <class 'gluon.html.A'>, 'Auth': <class 'gluon.tools.Auth'>, 'B': <class 'gluon.html.B'>, 'BEAUTIFY': <class 'gluon.html.BEAUTIFY'>, 'BODY': <class 'gluon.html.BODY'>, 'BR': <class 'gluon.html.BR'>, 'BUTTON': <class 'gluon.html.BUTTON'>, 'CAT': <class 'gluon.html.CAT'>, 'CENTER': <class 'gluon.html.CENTER'>, 'CLEANUP': <class 'gluon.validators.CLEANUP'>, ...}"
p3209
sS'ccode'
p3210
S'<code object <module> at 030BBB18, file "c:\\User...lications\\ecommerce\\controllers/home.py", line 3>'
p3211
ssS'lnum'
p3212
I205
sS'lines'
p3213
(dp3214
I200
S'    try:'
p3215
sI201
S'        if type(code) == types.CodeType:'
p3216
sI202
S'            ccode = code'
p3217
sI203
S'        else:'
p3218
sI204
S'            ccode = compile2(code,layer)'
p3219
sI205
S'        exec ccode in environment'
p3220
sI206
S'    except HTTP:'
p3221
sI207
S'        raise'
p3222
sI208
S'    except RestrictedError:'
p3223
sI209
S'        # do not encapsulate (obfuscate) the original RestrictedError'
p3224
ssS'call'
p3225
S"(code='# coding: utf-8\\n\\ndef contact():\\n    form =  FORM...quest,db)\\n\\nresponse._vars=response._caller(user)\\n', environment={'A': <class 'gluon.html.A'>, 'Auth': <class 'gluon.tools.Auth'>, 'B': <class 'gluon.html.B'>, 'BEAUTIFY': <class 'gluon.html.BEAUTIFY'>, 'BODY': <class 'gluon.html.BODY'>, 'BR': <class 'gluon.html.BR'>, 'BUTTON': <class 'gluon.html.BUTTON'>, 'CAT': <class 'gluon.html.CAT'>, 'CENTER': <class 'gluon.html.CENTER'>, 'CLEANUP': <class 'gluon.validators.CLEANUP'>, ...}, layer=r'c:\\Users\\rochacbruno\\jul12\\cursojulho12\\web2py\\applications\\ecommerce\\controllers/home.py')"
p3226
sS'func'
p3227
S'restricted'
p3228
sa(dp3229
g3204
S'c:\\Users\\rochacbruno\\jul12\\cursojulho12\\web2py\\applications\\ecommerce\\controllers\\home.py'
p3230
sg3206
(dp3231
sg3212
I63
sg3213
(dp3232
I52
S'        for field in hidden_fields:'
p3233
sI53
S'            db.auth_user[field].writable = b.auth_user[field].readable = False'
p3234
sI54
S'    return dict(form=auth())'
p3235
sI55
S''
sI56
S'def download():'
p3236
sI57
S'    """'
p3237
sI58
S'    allows downloading of uploaded files'
p3238
sI59
S'    http://..../[app]/default/download/[filename]'
p3239
sI60
S'    """'
p3240
sI61
S'    return response.download(request,db)'
p3241
ssg3225
S'()'
p3242
sg3227
S'<module>'
p3243
sa(dp3244
g3204
S'c:\\Users\\rochacbruno\\jul12\\cursojulho12\\web2py\\gluon\\globals.py'
p3245
sg3206
(dp3246
S'self'
p3247
S'undefined'
p3248
sS'f'
S'<function user>'
p3249
ssg3212
I182
sg3213
(dp3250
I177
S'        self.menu = []             # used by the default view layout'
p3251
sI178
S'        self.files = []            # used by web2py_ajax.html'
p3252
sI179
S'        self.generic_patterns = [] # patterns to allow generic views'
p3253
sI180
S"        self.delimiters = ('{{','}}')"
p3254
sI181
S'        self._vars = None'
p3255
sI182
S'        self._caller = lambda f: f()'
p3256
sI183
S'        self._view_environment = None'
p3257
sI184
S'        self._custom_commit = None'
p3258
sI185
S'        self._custom_rollback = None'
p3259
sI186
S''
ssg3225
S'(f=<function user>)'
p3260
sg3227
S'<lambda>'
p3261
sa(dp3262
g3204
S'c:\\Users\\rochacbruno\\jul12\\cursojulho12\\web2py\\applications\\ecommerce\\controllers\\home.py'
p3263
sg3206
(dp3264
S'field'
p3265
S"'zipcode'"
p3266
sS'b'
g3248
sS'builtinFalse'
p3267
g100
sS'].readable'
p3268
g3248
sS'db.auth_user'
p3269
S"<Table {'last_name': <gluon.dal.Field object at ...ield object at 0x056AED90>, '_after_insert': []}>"
p3270
sS'].writable'
p3271
g3248
sS'global db'
p3272
S"<DAL {'auth_event': <Table {'origin': <gluon.dal...6AED90>, '_after_insert': []}>, '_migrated': []}>"
p3273
ssg3212
I53
sg3213
(dp3274
I48
S'    to decorate functions that need access control'
p3275
sI49
S'    """'
p3276
sI50
S'    if request.args(0) == "register":'
p3277
sI51
S"        hidden_fields = ['zipcode', 'picture', 'address', 'house_number']"
p3278
sI52
S'        for field in hidden_fields:'
p3279
sI53
S'            db.auth_user[field].writable = b.auth_user[field].readable = False'
p3280
sI54
S'    return dict(form=auth())'
p3281
sI55
S''
sI56
S'def download():'
p3282
sI57
S'    """'
p3283
ssg3225
S'()'
p3284
sg3227
S'user'
p3285
sasS'pyver'
p3286
S'Python 2.7.2: c:\\Python27\\python.exe'
p3287
sS'session'
p3288
g57
(g58
g59
NtRp3289
(dp3290
g62
(dp3291
sg64
(lp3292
g57
(g66
g59
NtRp3293
(dp3294
g62
(dp3295
g70
I5
ssg71
Nsg64
(lp3296
sbasbsS'etype'
p3297
S"<type 'exceptions.NameError'>"
p3298
sS'date'
p3299
S'Sun Aug 12 13:29:33 2012'
p3300
sS'response'
p3301
g57
(g58
g59
NtRp3302
(dp3303
g62
(dp3304
sg64
(lp3305
g57
(g66
g59
NtRp3306
(dp3307
g62
(dp3308
g70
I5
ssg71
Nsg64
(lp3309
g57
(g73
g59
NtRp3310
(dp3311
g62
(dp3312
sg71
g3306
sg64
(lp3313
g57
(g78
g59
NtRp3314
(dp3315
g62
(dp3316
g82
g83
ssg71
g3310
sg64
(lp3317
g168
asbag57
(g78
g59
NtRp3318
(dp3319
g62
(dp3320
g89
g90
ssg71
g3310
sg64
(lp3321
S':'
asbag57
(g78
g59
NtRp3322
(dp3323
g62
(dp3324
sg71
g3310
sg64
(lp3325
g57
(g58
g59
NtRp3326
(dp3327
g62
(dp3328
g70
I5
ssg71
g3322
sg64
(lp3329
S'<cStringIO.StringO object at 0x0585F1A0>'
p3330
asbasbasbag57
(g73
g59
NtRp3331
(dp3332
g62
(dp3333
sg71
g3306
sg64
(lp3334
g57
(g78
g59
NtRp3335
(dp3336
g62
(dp3337
g82
g83
ssg71
g3331
sg64
(lp3338
g234
asbag57
(g78
g59
NtRp3339
(dp3340
g62
(dp3341
g89
g90
ssg71
g3331
sg64
(lp3342
S':'
asbag57
(g78
g59
NtRp3343
(dp3344
g62
(dp3345
sg71
g3331
sg64
(lp3346
g57
(g58
g59
NtRp3347
(dp3348
g62
(dp3349
g70
I5
ssg71
g3343
sg64
(lp3350
g57
(g66
g59
NtRp3351
(dp3352
g62
(dp3353
g70
I4
ssg71
Nsg64
(lp3354
g57
(g73
g59
NtRp3355
(dp3356
g62
(dp3357
sg71
g3351
sg64
(lp3358
g57
(g78
g59
NtRp3359
(dp3360
g62
(dp3361
g82
g83
ssg71
g3355
sg64
(lp3362
S'session_id_ecommerce'
p3363
asbag57
(g78
g59
NtRp3364
(dp3365
g62
(dp3366
g89
g90
ssg71
g3355
sg64
(lp3367
S':'
asbag57
(g78
g59
NtRp3368
(dp3369
g62
(dp3370
sg71
g3355
sg64
(lp3371
g57
(g58
g59
NtRp3372
(dp3373
g62
(dp3374
g70
I4
ssg71
g3368
sg64
(lp3375
g466
ag57
(g66
g59
NtRp3376
(dp3377
g62
(dp3378
g70
I3
ssg71
Nsg64
(lp3379
g57
(g73
g59
NtRp3380
(dp3381
g62
(dp3382
sg71
g3376
sg64
(lp3383
g57
(g78
g59
NtRp3384
(dp3385
g62
(dp3386
g82
g83
ssg71
g3380
sg64
(lp3387
g285
asbag57
(g78
g59
NtRp3388
(dp3389
g62
(dp3390
g89
g90
ssg71
g3380
sg64
(lp3391
S':'
asbag57
(g78
g59
NtRp3392
(dp3393
g62
(dp3394
sg71
g3380
sg64
(lp3395
g57
(g58
g59
NtRp3396
(dp3397
g62
(dp3398
g70
I3
ssg71
g3392
sg64
(lp3399
S''
asbasbasbag57
(g73
g59
NtRp3400
(dp3401
g62
(dp3402
sg71
g3376
sg64
(lp3403
g57
(g78
g59
NtRp3404
(dp3405
g62
(dp3406
g82
g83
ssg71
g3400
sg64
(lp3407
g306
asbag57
(g78
g59
NtRp3408
(dp3409
g62
(dp3410
g89
g90
ssg71
g3400
sg64
(lp3411
S':'
asbag57
(g78
g59
NtRp3412
(dp3413
g62
(dp3414
sg71
g3400
sg64
(lp3415
g57
(g58
g59
NtRp3416
(dp3417
g62
(dp3418
g70
I3
ssg71
g3412
sg64
(lp3419
S''
asbasbasbag57
(g73
g59
NtRp3420
(dp3421
g62
(dp3422
sg71
g3376
sg64
(lp3423
g57
(g78
g59
NtRp3424
(dp3425
g62
(dp3426
g82
g83
ssg71
g3420
sg64
(lp3427
g327
asbag57
(g78
g59
NtRp3428
(dp3429
g62
(dp3430
g89
g90
ssg71
g3420
sg64
(lp3431
S':'
asbag57
(g78
g59
NtRp3432
(dp3433
g62
(dp3434
sg71
g3420
sg64
(lp3435
g57
(g58
g59
NtRp3436
(dp3437
g62
(dp3438
g70
I3
ssg71
g3432
sg64
(lp3439
S''
asbasbasbag57
(g73
g59
NtRp3440
(dp3441
g62
(dp3442
sg71
g3376
sg64
(lp3443
g57
(g78
g59
NtRp3444
(dp3445
g62
(dp3446
g82
g83
ssg71
g3440
sg64
(lp3447
g348
asbag57
(g78
g59
NtRp3448
(dp3449
g62
(dp3450
g89
g90
ssg71
g3440
sg64
(lp3451
S':'
asbag57
(g78
g59
NtRp3452
(dp3453
g62
(dp3454
sg71
g3440
sg64
(lp3455
g57
(g58
g59
NtRp3456
(dp3457
g62
(dp3458
g70
I3
ssg71
g3452
sg64
(lp3459
S''
asbasbasbag57
(g73
g59
NtRp3460
(dp3461
g62
(dp3462
sg71
g3376
sg64
(lp3463
g57
(g78
g59
NtRp3464
(dp3465
g62
(dp3466
g82
g83
ssg71
g3460
sg64
(lp3467
g369
asbag57
(g78
g59
NtRp3468
(dp3469
g62
(dp3470
g89
g90
ssg71
g3460
sg64
(lp3471
S':'
asbag57
(g78
g59
NtRp3472
(dp3473
g62
(dp3474
sg71
g3460
sg64
(lp3475
g57
(g58
g59
NtRp3476
(dp3477
g62
(dp3478
g70
I3
ssg71
g3472
sg64
(lp3479
S''
asbasbasbag57
(g73
g59
NtRp3480
(dp3481
g62
(dp3482
sg71
g3376
sg64
(lp3483
g57
(g78
g59
NtRp3484
(dp3485
g62
(dp3486
g82
g83
ssg71
g3480
sg64
(lp3487
g390
asbag57
(g78
g59
NtRp3488
(dp3489
g62
(dp3490
g89
g90
ssg71
g3480
sg64
(lp3491
S':'
asbag57
(g78
g59
NtRp3492
(dp3493
g62
(dp3494
sg71
g3480
sg64
(lp3495
g57
(g58
g59
NtRp3496
(dp3497
g62
(dp3498
g70
I3
ssg71
g3492
sg64
(lp3499
S'/'
asbasbasbag57
(g73
g59
NtRp3500
(dp3501
g62
(dp3502
sg71
g3376
sg64
(lp3503
g57
(g78
g59
NtRp3504
(dp3505
g62
(dp3506
g82
g83
ssg71
g3500
sg64
(lp3507
g411
asbag57
(g78
g59
NtRp3508
(dp3509
g62
(dp3510
g89
g90
ssg71
g3500
sg64
(lp3511
S':'
asbag57
(g78
g59
NtRp3512
(dp3513
g62
(dp3514
sg71
g3500
sg64
(lp3515
g57
(g58
g59
NtRp3516
(dp3517
g62
(dp3518
g70
I3
ssg71
g3512
sg64
(lp3519
S''
asbasbasbag57
(g73
g59
NtRp3520
(dp3521
g62
(dp3522
sg71
g3376
sg64
(lp3523
g57
(g78
g59
NtRp3524
(dp3525
g62
(dp3526
g82
g83
ssg71
g3520
sg64
(lp3527
g432
asbag57
(g78
g59
NtRp3528
(dp3529
g62
(dp3530
g89
g90
ssg71
g3520
sg64
(lp3531
S':'
asbag57
(g78
g59
NtRp3532
(dp3533
g62
(dp3534
sg71
g3520
sg64
(lp3535
g57
(g58
g59
NtRp3536
(dp3537
g62
(dp3538
g70
I3
ssg71
g3532
sg64
(lp3539
S''
asbasbasbasbasbasbasbasbasbasbasbag57
(g73
g59
NtRp3540
(dp3541
g62
(dp3542
sg71
g3306
sg64
(lp3543
g57
(g78
g59
NtRp3544
(dp3545
g62
(dp3546
g82
g83
ssg71
g3540
sg64
(lp3547
S'delimiters'
p3548
asbag57
(g78
g59
NtRp3549
(dp3550
g62
(dp3551
g89
g90
ssg71
g3540
sg64
(lp3552
S':'
asbag57
(g78
g59
NtRp3553
(dp3554
g62
(dp3555
sg71
g3540
sg64
(lp3556
g57
(g58
g59
NtRp3557
(dp3558
g62
(dp3559
g70
I5
ssg71
g3553
sg64
(lp3560
g57
(g66
g59
NtRp3561
(dp3562
g62
(dp3563
g70
I4
ssg71
Nsg64
(lp3564
g57
(g73
g59
NtRp3565
(dp3566
g62
(dp3567
sg71
g3561
sg64
(lp3568
g57
(g78
g59
NtRp3569
(dp3570
g62
(dp3571
sg71
g3565
sg64
(lp3572
g57
(g58
g59
NtRp3573
(dp3574
g62
(dp3575
g70
I4
ssg71
g3569
sg64
(lp3576
S'{{'
p3577
asbasbasbag57
(g73
g59
NtRp3578
(dp3579
g62
(dp3580
sg71
g3561
sg64
(lp3581
g57
(g78
g59
NtRp3582
(dp3583
g62
(dp3584
sg71
g3578
sg64
(lp3585
g57
(g58
g59
NtRp3586
(dp3587
g62
(dp3588
g70
I4
ssg71
g3582
sg64
(lp3589
S'}}'
p3590
asbasbasbasbasbasbasbag57
(g73
g59
NtRp3591
(dp3592
g62
(dp3593
sg71
g3306
sg64
(lp3594
g57
(g78
g59
NtRp3595
(dp3596
g62
(dp3597
g82
g83
ssg71
g3591
sg64
(lp3598
S'description'
p3599
asbag57
(g78
g59
NtRp3600
(dp3601
g62
(dp3602
g89
g90
ssg71
g3591
sg64
(lp3603
S':'
asbag57
(g78
g59
NtRp3604
(dp3605
g62
(dp3606
sg71
g3591
sg64
(lp3607
g57
(g58
g59
NtRp3608
(dp3609
g62
(dp3610
g70
I5
ssg71
g3604
sg64
(lp3611
S'Ecommerce'
p3612
asbasbasbag57
(g73
g59
NtRp3613
(dp3614
g62
(dp3615
sg71
g3306
sg64
(lp3616
g57
(g78
g59
NtRp3617
(dp3618
g62
(dp3619
g82
g83
ssg71
g3613
sg64
(lp3620
S'files'
p3621
asbag57
(g78
g59
NtRp3622
(dp3623
g62
(dp3624
g89
g90
ssg71
g3613
sg64
(lp3625
S':'
asbag57
(g78
g59
NtRp3626
(dp3627
g62
(dp3628
sg71
g3613
sg64
(lp3629
g57
(g58
g59
NtRp3630
(dp3631
g62
(dp3632
g70
I5
ssg71
g3626
sg64
(lp3633
g57
(g66
g59
NtRp3634
(dp3635
g62
(dp3636
g70
I4
ssg71
Nsg64
(lp3637
sbasbasbasbag57
(g73
g59
NtRp3638
(dp3639
g62
(dp3640
sg71
g3306
sg64
(lp3641
g57
(g78
g59
NtRp3642
(dp3643
g62
(dp3644
g82
g83
ssg71
g3638
sg64
(lp3645
S'flash'
p3646
asbag57
(g78
g59
NtRp3647
(dp3648
g62
(dp3649
g89
g90
ssg71
g3638
sg64
(lp3650
S':'
asbag57
(g78
g59
NtRp3651
(dp3652
g62
(dp3653
sg71
g3638
sg64
(lp3654
g57
(g58
g59
NtRp3655
(dp3656
g62
(dp3657
g70
I5
ssg71
g3651
sg64
(lp3658
S''
asbasbasbag57
(g73
g59
NtRp3659
(dp3660
g62
(dp3661
sg71
g3306
sg64
(lp3662
g57
(g78
g59
NtRp3663
(dp3664
g62
(dp3665
g82
g83
ssg71
g3659
sg64
(lp3666
S'generic_patterns'
p3667
asbag57
(g78
g59
NtRp3668
(dp3669
g62
(dp3670
g89
g90
ssg71
g3659
sg64
(lp3671
S':'
asbag57
(g78
g59
NtRp3672
(dp3673
g62
(dp3674
sg71
g3659
sg64
(lp3675
g57
(g58
g59
NtRp3676
(dp3677
g62
(dp3678
g70
I5
ssg71
g3672
sg64
(lp3679
g57
(g66
g59
NtRp3680
(dp3681
g62
(dp3682
g70
I4
ssg71
Nsg64
(lp3683
g57
(g73
g59
NtRp3684
(dp3685
g62
(dp3686
sg71
g3680
sg64
(lp3687
g57
(g78
g59
NtRp3688
(dp3689
g62
(dp3690
sg71
g3684
sg64
(lp3691
g57
(g58
g59
NtRp3692
(dp3693
g62
(dp3694
g70
I4
ssg71
g3688
sg64
(lp3695
S'*'
asbasbasbasbasbasbasbag57
(g73
g59
NtRp3696
(dp3697
g62
(dp3698
sg71
g3306
sg64
(lp3699
g57
(g78
g59
NtRp3700
(dp3701
g62
(dp3702
g82
g83
ssg71
g3696
sg64
(lp3703
S'headers'
p3704
asbag57
(g78
g59
NtRp3705
(dp3706
g62
(dp3707
g89
g90
ssg71
g3696
sg64
(lp3708
S':'
asbag57
(g78
g59
NtRp3709
(dp3710
g62
(dp3711
sg71
g3696
sg64
(lp3712
g57
(g58
g59
NtRp3713
(dp3714
g62
(dp3715
g70
I5
ssg71
g3709
sg64
(lp3716
g57
(g66
g59
NtRp3717
(dp3718
g62
(dp3719
g70
I4
ssg71
Nsg64
(lp3720
g57
(g73
g59
NtRp3721
(dp3722
g62
(dp3723
sg71
g3717
sg64
(lp3724
g57
(g78
g59
NtRp3725
(dp3726
g62
(dp3727
g82
g83
ssg71
g3721
sg64
(lp3728
S'Cache-Control'
p3729
asbag57
(g78
g59
NtRp3730
(dp3731
g62
(dp3732
g89
g90
ssg71
g3721
sg64
(lp3733
S':'
asbag57
(g78
g59
NtRp3734
(dp3735
g62
(dp3736
sg71
g3721
sg64
(lp3737
g57
(g58
g59
NtRp3738
(dp3739
g62
(dp3740
g70
I4
ssg71
g3734
sg64
(lp3741
S'no-store, no-cache, must-revalidate, post-check=0, pre-check=0'
p3742
asbasbasbag57
(g73
g59
NtRp3743
(dp3744
g62
(dp3745
sg71
g3717
sg64
(lp3746
g57
(g78
g59
NtRp3747
(dp3748
g62
(dp3749
g82
g83
ssg71
g3743
sg64
(lp3750
S'Content-Type'
p3751
asbag57
(g78
g59
NtRp3752
(dp3753
g62
(dp3754
g89
g90
ssg71
g3743
sg64
(lp3755
S':'
asbag57
(g78
g59
NtRp3756
(dp3757
g62
(dp3758
sg71
g3743
sg64
(lp3759
g57
(g58
g59
NtRp3760
(dp3761
g62
(dp3762
g70
I4
ssg71
g3756
sg64
(lp3763
S'text/html; charset=utf-8'
p3764
asbasbasbag57
(g73
g59
NtRp3765
(dp3766
g62
(dp3767
sg71
g3717
sg64
(lp3768
g57
(g78
g59
NtRp3769
(dp3770
g62
(dp3771
g82
g83
ssg71
g3765
sg64
(lp3772
S'Expires'
p3773
asbag57
(g78
g59
NtRp3774
(dp3775
g62
(dp3776
g89
g90
ssg71
g3765
sg64
(lp3777
S':'
asbag57
(g78
g59
NtRp3778
(dp3779
g62
(dp3780
sg71
g3765
sg64
(lp3781
g57
(g58
g59
NtRp3782
(dp3783
g62
(dp3784
g70
I4
ssg71
g3778
sg64
(lp3785
S'Sun, 12 Aug 2012 16:29:33 GMT'
p3786
asbasbasbag57
(g73
g59
NtRp3787
(dp3788
g62
(dp3789
sg71
g3717
sg64
(lp3790
g57
(g78
g59
NtRp3791
(dp3792
g62
(dp3793
g82
g83
ssg71
g3787
sg64
(lp3794
S'Pragma'
p3795
asbag57
(g78
g59
NtRp3796
(dp3797
g62
(dp3798
g89
g90
ssg71
g3787
sg64
(lp3799
S':'
asbag57
(g78
g59
NtRp3800
(dp3801
g62
(dp3802
sg71
g3787
sg64
(lp3803
g57
(g58
g59
NtRp3804
(dp3805
g62
(dp3806
g70
I4
ssg71
g3800
sg64
(lp3807
S'no-cache'
p3808
asbasbasbag57
(g73
g59
NtRp3809
(dp3810
g62
(dp3811
sg71
g3717
sg64
(lp3812
g57
(g78
g59
NtRp3813
(dp3814
g62
(dp3815
g82
g83
ssg71
g3809
sg64
(lp3816
S'X-Powered-By'
p3817
asbag57
(g78
g59
NtRp3818
(dp3819
g62
(dp3820
g89
g90
ssg71
g3809
sg64
(lp3821
S':'
asbag57
(g78
g59
NtRp3822
(dp3823
g62
(dp3824
sg71
g3809
sg64
(lp3825
g57
(g58
g59
NtRp3826
(dp3827
g62
(dp3828
g70
I4
ssg71
g3822
sg64
(lp3829
S'web2py'
p3830
asbasbasbasbasbasbasbag57
(g73
g59
NtRp3831
(dp3832
g62
(dp3833
sg71
g3306
sg64
(lp3834
g57
(g78
g59
NtRp3835
(dp3836
g62
(dp3837
g82
g83
ssg71
g3831
sg64
(lp3838
S'menu'
p3839
asbag57
(g78
g59
NtRp3840
(dp3841
g62
(dp3842
g89
g90
ssg71
g3831
sg64
(lp3843
S':'
asbag57
(g78
g59
NtRp3844
(dp3845
g62
(dp3846
sg71
g3831
sg64
(lp3847
g57
(g58
g59
NtRp3848
(dp3849
g62
(dp3850
g70
I5
ssg71
g3844
sg64
(lp3851
g57
(g66
g59
NtRp3852
(dp3853
g62
(dp3854
g70
I4
ssg71
Nsg64
(lp3855
sbasbasbasbag57
(g73
g59
NtRp3856
(dp3857
g62
(dp3858
sg71
g3306
sg64
(lp3859
g57
(g78
g59
NtRp3860
(dp3861
g62
(dp3862
g82
g83
ssg71
g3856
sg64
(lp3863
S'meta'
p3864
asbag57
(g78
g59
NtRp3865
(dp3866
g62
(dp3867
g89
g90
ssg71
g3856
sg64
(lp3868
S':'
asbag57
(g78
g59
NtRp3869
(dp3870
g62
(dp3871
sg71
g3856
sg64
(lp3872
g57
(g58
g59
NtRp3873
(dp3874
g62
(dp3875
g70
I5
ssg71
g3869
sg64
(lp3876
g57
(g66
g59
NtRp3877
(dp3878
g62
(dp3879
g70
I4
ssg71
Nsg64
(lp3880
sbasbasbasbag57
(g73
g59
NtRp3881
(dp3882
g62
(dp3883
sg71
g3306
sg64
(lp3884
g57
(g78
g59
NtRp3885
(dp3886
g62
(dp3887
g82
g83
ssg71
g3881
sg64
(lp3888
S'postprocessing'
p3889
asbag57
(g78
g59
NtRp3890
(dp3891
g62
(dp3892
g89
g90
ssg71
g3881
sg64
(lp3893
S':'
asbag57
(g78
g59
NtRp3894
(dp3895
g62
(dp3896
sg71
g3881
sg64
(lp3897
g57
(g58
g59
NtRp3898
(dp3899
g62
(dp3900
g70
I5
ssg71
g3894
sg64
(lp3901
g57
(g66
g59
NtRp3902
(dp3903
g62
(dp3904
g70
I4
ssg71
Nsg64
(lp3905
sbasbasbasbag57
(g73
g59
NtRp3906
(dp3907
g62
(dp3908
sg71
g3306
sg64
(lp3909
g57
(g78
g59
NtRp3910
(dp3911
g62
(dp3912
g82
g83
ssg71
g3906
sg64
(lp3913
S'session_file'
p3914
asbag57
(g78
g59
NtRp3915
(dp3916
g62
(dp3917
g89
g90
ssg71
g3906
sg64
(lp3918
S':'
asbag57
(g78
g59
NtRp3919
(dp3920
g62
(dp3921
sg71
g3906
sg64
(lp3922
g57
(g58
g59
NtRp3923
(dp3924
g62
(dp3925
g70
I5
ssg71
g3919
sg64
(lp3926
S"<open file 'c:\\Users\\rochacbruno\\jul12\\cursojulho12\\web2py\\applications\\ecommerce\\sessions\\127.0.0.1-0fe94d39-4aae-427f-bfbc-597a65cd32c1', mode 'rb+' at 0x05A5C5A0>"
p3927
asbasbasbag57
(g73
g59
NtRp3928
(dp3929
g62
(dp3930
sg71
g3306
sg64
(lp3931
g57
(g78
g59
NtRp3932
(dp3933
g62
(dp3934
g82
g83
ssg71
g3928
sg64
(lp3935
S'session_filename'
p3936
asbag57
(g78
g59
NtRp3937
(dp3938
g62
(dp3939
g89
g90
ssg71
g3928
sg64
(lp3940
S':'
asbag57
(g78
g59
NtRp3941
(dp3942
g62
(dp3943
sg71
g3928
sg64
(lp3944
g57
(g58
g59
NtRp3945
(dp3946
g62
(dp3947
g70
I5
ssg71
g3941
sg64
(lp3948
S'c:\\Users\\rochacbruno\\jul12\\cursojulho12\\web2py\\applications\\ecommerce\\sessions\\127.0.0.1-0fe94d39-4aae-427f-bfbc-597a65cd32c1'
p3949
asbasbasbag57
(g73
g59
NtRp3950
(dp3951
g62
(dp3952
sg71
g3306
sg64
(lp3953
g57
(g78
g59
NtRp3954
(dp3955
g62
(dp3956
g82
g83
ssg71
g3950
sg64
(lp3957
S'session_id'
p3958
asbag57
(g78
g59
NtRp3959
(dp3960
g62
(dp3961
g89
g90
ssg71
g3950
sg64
(lp3962
S':'
asbag57
(g78
g59
NtRp3963
(dp3964
g62
(dp3965
sg71
g3950
sg64
(lp3966
g57
(g58
g59
NtRp3967
(dp3968
g62
(dp3969
g70
I5
ssg71
g3963
sg64
(lp3970
g466
asbasbasbag57
(g73
g59
NtRp3971
(dp3972
g62
(dp3973
sg71
g3306
sg64
(lp3974
g57
(g78
g59
NtRp3975
(dp3976
g62
(dp3977
g82
g83
ssg71
g3971
sg64
(lp3978
S'session_id_name'
p3979
asbag57
(g78
g59
NtRp3980
(dp3981
g62
(dp3982
g89
g90
ssg71
g3971
sg64
(lp3983
S':'
asbag57
(g78
g59
NtRp3984
(dp3985
g62
(dp3986
sg71
g3971
sg64
(lp3987
g57
(g58
g59
NtRp3988
(dp3989
g62
(dp3990
g70
I5
ssg71
g3984
sg64
(lp3991
g3363
asbasbasbag57
(g73
g59
NtRp3992
(dp3993
g62
(dp3994
sg71
g3306
sg64
(lp3995
g57
(g78
g59
NtRp3996
(dp3997
g62
(dp3998
g82
g83
ssg71
g3992
sg64
(lp3999
S'session_locked'
p4000
asbag57
(g78
g59
NtRp4001
(dp4002
g62
(dp4003
g89
g90
ssg71
g3992
sg64
(lp4004
S':'
asbag57
(g78
g59
NtRp4005
(dp4006
g62
(dp4007
sg71
g3992
sg64
(lp4008
g57
(g58
g59
NtRp4009
(dp4010
g62
(dp4011
g70
I5
ssg71
g4005
sg64
(lp4012
g1878
asbasbasbag57
(g73
g59
NtRp4013
(dp4014
g62
(dp4015
sg71
g3306
sg64
(lp4016
g57
(g78
g59
NtRp4017
(dp4018
g62
(dp4019
g82
g83
ssg71
g4013
sg64
(lp4020
S'session_new'
p4021
asbag57
(g78
g59
NtRp4022
(dp4023
g62
(dp4024
g89
g90
ssg71
g4013
sg64
(lp4025
S':'
asbag57
(g78
g59
NtRp4026
(dp4027
g62
(dp4028
sg71
g4013
sg64
(lp4029
g57
(g58
g59
NtRp4030
(dp4031
g62
(dp4032
g70
I5
ssg71
g4026
sg64
(lp4033
g100
asbasbasbag57
(g73
g59
NtRp4034
(dp4035
g62
(dp4036
sg71
g3306
sg64
(lp4037
g57
(g78
g59
NtRp4038
(dp4039
g62
(dp4040
g82
g83
ssg71
g4034
sg64
(lp4041
S'status'
p4042
asbag57
(g78
g59
NtRp4043
(dp4044
g62
(dp4045
g89
g90
ssg71
g4034
sg64
(lp4046
S':'
asbag57
(g78
g59
NtRp4047
(dp4048
g62
(dp4049
sg71
g4034
sg64
(lp4050
g57
(g58
g59
NtRp4051
(dp4052
g62
(dp4053
g70
I5
ssg71
g4047
sg64
(lp4054
S'200'
p4055
asbasbasbag57
(g73
g59
NtRp4056
(dp4057
g62
(dp4058
sg71
g3306
sg64
(lp4059
g57
(g78
g59
NtRp4060
(dp4061
g62
(dp4062
g82
g83
ssg71
g4056
sg64
(lp4063
S'title'
p4064
asbag57
(g78
g59
NtRp4065
(dp4066
g62
(dp4067
g89
g90
ssg71
g4056
sg64
(lp4068
S':'
asbag57
(g78
g59
NtRp4069
(dp4070
g62
(dp4071
sg71
g4056
sg64
(lp4072
g57
(g58
g59
NtRp4073
(dp4074
g62
(dp4075
g70
I5
ssg71
g4069
sg64
(lp4076
S'Ecommerce do Bruno | CursodePython.com.br'
p4077
asbasbasbag57
(g73
g59
NtRp4078
(dp4079
g62
(dp4080
sg71
g3306
sg64
(lp4081
g57
(g78
g59
NtRp4082
(dp4083
g62
(dp4084
g82
g83
ssg71
g4078
sg64
(lp4085
g2521
asbag57
(g78
g59
NtRp4086
(dp4087
g62
(dp4088
g89
g90
ssg71
g4078
sg64
(lp4089
S':'
asbag57
(g78
g59
NtRp4090
(dp4091
g62
(dp4092
sg71
g4078
sg64
(lp4093
g57
(g58
g59
NtRp4094
(dp4095
g62
(dp4096
g70
I5
ssg71
g4090
sg64
(lp4097
g2534
asbasbasbag57
(g73
g59
NtRp4098
(dp4099
g62
(dp4100
sg71
g3306
sg64
(lp4101
g57
(g78
g59
NtRp4102
(dp4103
g62
(dp4104
g82
g83
ssg71
g4098
sg64
(lp4105
S'view'
p4106
asbag57
(g78
g59
NtRp4107
(dp4108
g62
(dp4109
g89
g90
ssg71
g4098
sg64
(lp4110
S':'
asbag57
(g78
g59
NtRp4111
(dp4112
g62
(dp4113
sg71
g4098
sg64
(lp4114
g57
(g58
g59
NtRp4115
(dp4116
g62
(dp4117
g70
I5
ssg71
g4111
sg64
(lp4118
S'home/user.html'
p4119
asbasbasbasbasbsS'locals'
p4120
(dp4121
S'field'
p4122
S"'zipcode'"
p4123
sS'hidden_fields'
p4124
S"['zipcode', 'picture', 'address', 'house_number']"
p4125
sssS'traceback'
p4126
S'Traceback (most recent call last):\n  File "c:\\Users\\rochacbruno\\jul12\\cursojulho12\\web2py\\gluon\\restricted.py", line 205, in restricted\n    exec ccode in environment\n  File "c:\\Users\\rochacbruno\\jul12\\cursojulho12\\web2py\\applications\\ecommerce\\controllers/home.py", line 63, in <module>\n  File "c:\\Users\\rochacbruno\\jul12\\cursojulho12\\web2py\\gluon\\globals.py", line 182, in <lambda>\n    self._caller = lambda f: f()\n  File "c:\\Users\\rochacbruno\\jul12\\cursojulho12\\web2py\\applications\\ecommerce\\controllers/home.py", line 53, in user\n    db.auth_user[field].writable = b.auth_user[field].readable = False\nNameError: global name \'b\' is not defined\n'
p4127
s.