(dp1
S'output'
p2
S"<type 'exceptions.SyntaxError'> user is tampering with form's record_id: ['11', '11'] != 11"
p3
sS'layer'
p4
S'c:\\Users\\rochacbruno\\jul12\\cursojulho12\\web2py\\applications\\ecommerce\\controllers/product.py'
p5
sS'code'
p6
S'# coding: utf-8\n\ndef show():\n    # pegar produto no banco de dados\n    # buscar pelo slug\n    # acessar api do twitter\n    pass\n\n\ndef search():\n    # receber parametros e efetuar busca\n    pass\n\n# @auth.requires_login()\ndef list():\n    # exibir todos os produtos\n    # apenas para admin\n\n    # DEFINITION OF FIELDS AND VIRTUAL FIELDS\n    db.product.tax_price = Field.Virtual(lambda row: row.product.unit_price * origins.get(row.product.origin, 1))\n    db.product.edit = Field.Virtual(lambda row: A("Edit", _href=URL(\'edit\', args=row.product.id)))\n    query = db.product.id > 2\n    rows = db(query).select()\n    headers = ["Name", "Unit Price", "Tax", "Edit"]\n    fields = [\'name\', \'unit_price\', \'tax_price\', "edit"]\n\n    #  HARD WAY\n    table = TABLE()\n\n    thead = THEAD(TR())\n    for header in headers:\n        thead[0].append(TD(B(header)))\n    table.append(thead)\n\n    for row in rows:\n        tr = TR()\n        for field in fields:\n            tr.append(row[field])\n        table.append(tr)\n    table["_class"] = "table table-striped table-bordered table-condensed"\n\n    # table.append(TR(TD(*[A(p, _href=URL(), _class="btn") for p in xrange(pages)], _colspan=4)))\n\n    # # EASY WAY\n    # table = TABLE(THEAD(TR(*[B(header) for header in headers])),\n    #           TBODY(*[TR(*[TD(row[field]) for field in fields]) for row in rows]))\n    # table["_class"] = "table table-striped table-bordered table-condensed"\n\n    # # MAGIC WAY\n    # db.product.category.represent = lambda value, row: value.name\n    # tax_price = lambda row: row.unit_price * origins.get(row.origin, 1)\n    # links = [dict(header=\'Tax\', body=tax_price)]\n    # table = SQLFORM.grid(query,\n    #                      user_signature=False,\n    #                      links=links\n    #                      )\n\n    return dict(table=table)\n\ndef log_edit_form(form):\n    if "apple" in form.vars.description:\n        form.errors.name = "Voce nao pode editar este produto"\n    print "formulario editado", form.vars\n\n\ndef edit():\n    response.view = \'product/new.html\'\n    # pegar produto pelo id ou slug\n    # criar formulario de edicao\n    # apenas para admin\n    pid = request.args(0) or redirect(URL(\'home\', \'index\'))\n    form = SQLFORM(db.product, pid, formstyle="divs")\n    form.append(INPUT(_type="hidden", _value=str(pid), _id="id", _name="id"))\n    message = ""\n    form.process(onvalidation=log_edit_form)\n    return dict(form=form, message=message)\n    \n    # pid = request.args(0)\n    # form = SQLFORM(db.product, pid, formstyle="divs")\n    # button = form.elements(\'input[type=submit]\')[0]\n    # button["_value"] = "banana"\n    # if form.process().accepted:\n    #     redirect(URL(\'list\'))\n    # return form\n\n\n@auth.requires_login()\n@auth.requires_membership("admin")\ndef new():\n    # if request.vars:\n    #     name = request.vars.name\n    #     description = request.vars.description\n    #     db.product.description.requires = IS_NOT_EMPTY()\n    #     print db.product.validate_and_insert(name=name, description=description, qtd=1)\n    #     db.commit()   \n    # form para add novo produto\n    # apenas para admin\n\n    hide_fields("product", ["total_price"])\n    message = None\n    form = SQLFORM(db.product, formstyle="divs")\n    if form.process().accepted:\n        message = T("Product registered")\n    elif form.errors:\n        message = T("Error in form")\n\n    return dict(form=form, message=message)\n\n\n\n\n# def grid(query,\n#          fields=None,\n#          field_id=None,\n#          left=None,\n#          headers={},\n#          orderby=None,\n#          groupby=None,\n#          searchable=True,\n#          sortable=True,\n#          paginate=20,\n#          deletable=True,\n#          editable=True,\n#          details=True,\n#          selectable=None,\n#          create=True,\n#          csv=True,\n#          links=None,\n#          links_in_grid=True,\n#          upload = \'<default>\',\n#          args=[],\n#          user_signature = True,\n#          maxtextlengths={},\n#          maxtextlength=20,\n#          onvalidation=None,\n#          oncreate=None,\n#          onupdate=None,\n#          ondelete=None,\n#          sorter_icons=(XML(\'&#x2191;\'),XML(\'&#x2193;\')),\n#          ui = \'web2py\',\n#          showbuttontext=True,\n#          _class="web2py_grid",\n#          formname=\'web2py_grid\',\n#          search_widget=\'default\',\n#          ignore_rw = False,\n#          formstyle = \'table3cols\',\n#          exportclasses = None,\n#          formargs={},\n#          createargs={},\n#          editargs={},\n#          viewargs={},\n#         ):\nresponse._vars=response._caller(edit)\n'
p7
sS'snapshot'
p8
(dp9
S'exception'
p10
(dp11
S'__getslice__'
p12
S"<method-wrapper '__getslice__' of exceptions.SyntaxError object>"
p13
sS'text'
p14
S'None'
p15
sS'__str__'
p16
S"<method-wrapper '__str__' of exceptions.SyntaxError object>"
p17
sS'__reduce__'
p18
S'<built-in method __reduce__ of exceptions.SyntaxError object>'
p19
sS'__dict__'
p20
S'{}'
p21
sS'__sizeof__'
p22
S'<built-in method __sizeof__ of exceptions.SyntaxError object>'
p23
sS'__init__'
p24
S"<method-wrapper '__init__' of exceptions.SyntaxError object>"
p25
sS'__setattr__'
p26
S"<method-wrapper '__setattr__' of exceptions.SyntaxError object>"
p27
sS'__reduce_ex__'
p28
S'<built-in method __reduce_ex__ of exceptions.SyntaxError object>'
p29
sS'__new__'
p30
S'<built-in method __new__ of type object>'
p31
sS'__format__'
p32
S'<built-in method __format__ of exceptions.SyntaxError object>'
p33
sS'__class__'
p34
S"<type 'exceptions.SyntaxError'>"
p35
sS'filename'
p36
S'None'
p37
sS'lineno'
p38
S'None'
p39
sS'msg'
p40
S'"user is tampering with form\'s record_id: [\'11\', \'11\'] != 11"'
p41
sS'__doc__'
p42
S"'Invalid syntax.'"
p43
sS'__getitem__'
p44
S"<method-wrapper '__getitem__' of exceptions.SyntaxError object>"
p45
sS'__setstate__'
p46
S'<built-in method __setstate__ of exceptions.SyntaxError object>'
p47
sS'__getattribute__'
p48
S"<method-wrapper '__getattribute__' of exceptions.SyntaxError object>"
p49
sS'print_file_and_line'
p50
S'None'
p51
sS'args'
p52
S'("user is tampering with form\'s record_id: [\'11\', \'11\'] != 11",)'
p53
sS'__subclasshook__'
p54
S'<built-in method __subclasshook__ of type object>'
p55
sS'offset'
p56
S'None'
p57
sS'__unicode__'
p58
S'<built-in method __unicode__ of exceptions.SyntaxError object>'
p59
sS'__delattr__'
p60
S"<method-wrapper '__delattr__' of exceptions.SyntaxError object>"
p61
sS'__repr__'
p62
S"<method-wrapper '__repr__' of exceptions.SyntaxError object>"
p63
sS'__hash__'
p64
S"<method-wrapper '__hash__' of exceptions.SyntaxError object>"
p65
ssS'evalue'
p66
S"user is tampering with form's record_id: ['11', '11'] != 11"
p67
sS'request'
p68
ccopy_reg
_reconstructor
p69
(cgluon.html
BEAUTIFY
p70
c__builtin__
object
p71
NtRp72
(dp73
S'attributes'
p74
(dp75
sS'components'
p76
(lp77
g69
(cgluon.html
TABLE
p78
g71
NtRp79
(dp80
g74
(dp81
S'level'
p82
I5
ssS'parent'
p83
Nsg76
(lp84
g69
(cgluon.html
TR
p85
g71
NtRp86
(dp87
g74
(dp88
sg83
g79
sg76
(lp89
g69
(cgluon.html
TD
p90
g71
NtRp91
(dp92
g74
(dp93
S'_style'
p94
S'font-weight:bold;vertical-align:top'
p95
ssg83
g86
sg76
(lp96
S'ajax'
p97
asbag69
(g90
g71
NtRp98
(dp99
g74
(dp100
S'_valign'
p101
S'top'
p102
ssg83
g86
sg76
(lp103
S':'
asbag69
(g90
g71
NtRp104
(dp105
g74
(dp106
sg83
g86
sg76
(lp107
g69
(g70
g71
NtRp108
(dp109
g74
(dp110
g82
I5
ssg83
g104
sg76
(lp111
S'False'
p112
asbasbasbag69
(g85
g71
NtRp113
(dp114
g74
(dp115
sg83
g79
sg76
(lp116
g69
(g90
g71
NtRp117
(dp118
g74
(dp119
g94
g95
ssg83
g113
sg76
(lp120
S'application'
p121
asbag69
(g90
g71
NtRp122
(dp123
g74
(dp124
g101
g102
ssg83
g113
sg76
(lp125
S':'
asbag69
(g90
g71
NtRp126
(dp127
g74
(dp128
sg83
g113
sg76
(lp129
g69
(g70
g71
NtRp130
(dp131
g74
(dp132
g82
I5
ssg83
g126
sg76
(lp133
S'ecommerce'
p134
asbasbasbag69
(g85
g71
NtRp135
(dp136
g74
(dp137
sg83
g79
sg76
(lp138
g69
(g90
g71
NtRp139
(dp140
g74
(dp141
g94
g95
ssg83
g135
sg76
(lp142
g52
asbag69
(g90
g71
NtRp143
(dp144
g74
(dp145
g101
g102
ssg83
g135
sg76
(lp146
S':'
asbag69
(g90
g71
NtRp147
(dp148
g74
(dp149
sg83
g135
sg76
(lp150
g69
(g70
g71
NtRp151
(dp152
g74
(dp153
g82
I5
ssg83
g147
sg76
(lp154
g69
(g78
g71
NtRp155
(dp156
g74
(dp157
g82
I4
ssg83
Nsg76
(lp158
g69
(g85
g71
NtRp159
(dp160
g74
(dp161
sg83
g155
sg76
(lp162
g69
(g90
g71
NtRp163
(dp164
g74
(dp165
sg83
g159
sg76
(lp166
g69
(g70
g71
NtRp167
(dp168
g74
(dp169
g82
I4
ssg83
g163
sg76
(lp170
S'11'
p171
asbasbasbasbasbasbasbag69
(g85
g71
NtRp172
(dp173
g74
(dp174
sg83
g79
sg76
(lp175
g69
(g90
g71
NtRp176
(dp177
g74
(dp178
g94
g95
ssg83
g172
sg76
(lp179
S'body'
p180
asbag69
(g90
g71
NtRp181
(dp182
g74
(dp183
g101
g102
ssg83
g172
sg76
(lp184
S':'
asbag69
(g90
g71
NtRp185
(dp186
g74
(dp187
sg83
g172
sg76
(lp188
g69
(g70
g71
NtRp189
(dp190
g74
(dp191
g82
I5
ssg83
g185
sg76
(lp192
S"<open file '<fdopen>', mode 'w+b' at 0x0295B758>"
p193
asbasbasbag69
(g85
g71
NtRp194
(dp195
g74
(dp196
sg83
g79
sg76
(lp197
g69
(g90
g71
NtRp198
(dp199
g74
(dp200
g94
g95
ssg83
g194
sg76
(lp201
S'client'
p202
asbag69
(g90
g71
NtRp203
(dp204
g74
(dp205
g101
g102
ssg83
g194
sg76
(lp206
S':'
asbag69
(g90
g71
NtRp207
(dp208
g74
(dp209
sg83
g194
sg76
(lp210
g69
(g70
g71
NtRp211
(dp212
g74
(dp213
g82
I5
ssg83
g207
sg76
(lp214
S'127.0.0.1'
p215
asbasbasbag69
(g85
g71
NtRp216
(dp217
g74
(dp218
sg83
g79
sg76
(lp219
g69
(g90
g71
NtRp220
(dp221
g74
(dp222
g94
g95
ssg83
g216
sg76
(lp223
S'controller'
p224
asbag69
(g90
g71
NtRp225
(dp226
g74
(dp227
g101
g102
ssg83
g216
sg76
(lp228
S':'
asbag69
(g90
g71
NtRp229
(dp230
g74
(dp231
sg83
g216
sg76
(lp232
g69
(g70
g71
NtRp233
(dp234
g74
(dp235
g82
I5
ssg83
g229
sg76
(lp236
S'product'
p237
asbasbasbag69
(g85
g71
NtRp238
(dp239
g74
(dp240
sg83
g79
sg76
(lp241
g69
(g90
g71
NtRp242
(dp243
g74
(dp244
g94
g95
ssg83
g238
sg76
(lp245
S'cookies'
p246
asbag69
(g90
g71
NtRp247
(dp248
g74
(dp249
g101
g102
ssg83
g238
sg76
(lp250
S':'
asbag69
(g90
g71
NtRp251
(dp252
g74
(dp253
sg83
g238
sg76
(lp254
g69
(g70
g71
NtRp255
(dp256
g74
(dp257
g82
I5
ssg83
g251
sg76
(lp258
g69
(g78
g71
NtRp259
(dp260
g74
(dp261
g82
I4
ssg83
Nsg76
(lp262
g69
(g85
g71
NtRp263
(dp264
g74
(dp265
sg83
g259
sg76
(lp266
g69
(g90
g71
NtRp267
(dp268
g74
(dp269
g94
g95
ssg83
g263
sg76
(lp270
S'scayt_verLang'
p271
asbag69
(g90
g71
NtRp272
(dp273
g74
(dp274
g101
g102
ssg83
g263
sg76
(lp275
S':'
asbag69
(g90
g71
NtRp276
(dp277
g74
(dp278
sg83
g263
sg76
(lp279
g69
(g70
g71
NtRp280
(dp281
g74
(dp282
g82
I4
ssg83
g276
sg76
(lp283
S'5'
ag69
(g78
g71
NtRp284
(dp285
g74
(dp286
g82
I3
ssg83
Nsg76
(lp287
g69
(g85
g71
NtRp288
(dp289
g74
(dp290
sg83
g284
sg76
(lp291
g69
(g90
g71
NtRp292
(dp293
g74
(dp294
g94
g95
ssg83
g288
sg76
(lp295
S'comment'
p296
asbag69
(g90
g71
NtRp297
(dp298
g74
(dp299
g101
g102
ssg83
g288
sg76
(lp300
S':'
asbag69
(g90
g71
NtRp301
(dp302
g74
(dp303
sg83
g288
sg76
(lp304
g69
(g70
g71
NtRp305
(dp306
g74
(dp307
g82
I3
ssg83
g301
sg76
(lp308
S''
asbasbasbag69
(g85
g71
NtRp309
(dp310
g74
(dp311
sg83
g284
sg76
(lp312
g69
(g90
g71
NtRp313
(dp314
g74
(dp315
g94
g95
ssg83
g309
sg76
(lp316
S'domain'
p317
asbag69
(g90
g71
NtRp318
(dp319
g74
(dp320
g101
g102
ssg83
g309
sg76
(lp321
S':'
asbag69
(g90
g71
NtRp322
(dp323
g74
(dp324
sg83
g309
sg76
(lp325
g69
(g70
g71
NtRp326
(dp327
g74
(dp328
g82
I3
ssg83
g322
sg76
(lp329
S''
asbasbasbag69
(g85
g71
NtRp330
(dp331
g74
(dp332
sg83
g284
sg76
(lp333
g69
(g90
g71
NtRp334
(dp335
g74
(dp336
g94
g95
ssg83
g330
sg76
(lp337
S'expires'
p338
asbag69
(g90
g71
NtRp339
(dp340
g74
(dp341
g101
g102
ssg83
g330
sg76
(lp342
S':'
asbag69
(g90
g71
NtRp343
(dp344
g74
(dp345
sg83
g330
sg76
(lp346
g69
(g70
g71
NtRp347
(dp348
g74
(dp349
g82
I3
ssg83
g343
sg76
(lp350
S''
asbasbasbag69
(g85
g71
NtRp351
(dp352
g74
(dp353
sg83
g284
sg76
(lp354
g69
(g90
g71
NtRp355
(dp356
g74
(dp357
g94
g95
ssg83
g351
sg76
(lp358
S'httponly'
p359
asbag69
(g90
g71
NtRp360
(dp361
g74
(dp362
g101
g102
ssg83
g351
sg76
(lp363
S':'
asbag69
(g90
g71
NtRp364
(dp365
g74
(dp366
sg83
g351
sg76
(lp367
g69
(g70
g71
NtRp368
(dp369
g74
(dp370
g82
I3
ssg83
g364
sg76
(lp371
S''
asbasbasbag69
(g85
g71
NtRp372
(dp373
g74
(dp374
sg83
g284
sg76
(lp375
g69
(g90
g71
NtRp376
(dp377
g74
(dp378
g94
g95
ssg83
g372
sg76
(lp379
S'max-age'
p380
asbag69
(g90
g71
NtRp381
(dp382
g74
(dp383
g101
g102
ssg83
g372
sg76
(lp384
S':'
asbag69
(g90
g71
NtRp385
(dp386
g74
(dp387
sg83
g372
sg76
(lp388
g69
(g70
g71
NtRp389
(dp390
g74
(dp391
g82
I3
ssg83
g385
sg76
(lp392
S''
asbasbasbag69
(g85
g71
NtRp393
(dp394
g74
(dp395
sg83
g284
sg76
(lp396
g69
(g90
g71
NtRp397
(dp398
g74
(dp399
g94
g95
ssg83
g393
sg76
(lp400
S'path'
p401
asbag69
(g90
g71
NtRp402
(dp403
g74
(dp404
g101
g102
ssg83
g393
sg76
(lp405
S':'
asbag69
(g90
g71
NtRp406
(dp407
g74
(dp408
sg83
g393
sg76
(lp409
g69
(g70
g71
NtRp410
(dp411
g74
(dp412
g82
I3
ssg83
g406
sg76
(lp413
S''
asbasbasbag69
(g85
g71
NtRp414
(dp415
g74
(dp416
sg83
g284
sg76
(lp417
g69
(g90
g71
NtRp418
(dp419
g74
(dp420
g94
g95
ssg83
g414
sg76
(lp421
S'secure'
p422
asbag69
(g90
g71
NtRp423
(dp424
g74
(dp425
g101
g102
ssg83
g414
sg76
(lp426
S':'
asbag69
(g90
g71
NtRp427
(dp428
g74
(dp429
sg83
g414
sg76
(lp430
g69
(g70
g71
NtRp431
(dp432
g74
(dp433
g82
I3
ssg83
g427
sg76
(lp434
S''
asbasbasbag69
(g85
g71
NtRp435
(dp436
g74
(dp437
sg83
g284
sg76
(lp438
g69
(g90
g71
NtRp439
(dp440
g74
(dp441
g94
g95
ssg83
g435
sg76
(lp442
S'version'
p443
asbag69
(g90
g71
NtRp444
(dp445
g74
(dp446
g101
g102
ssg83
g435
sg76
(lp447
S':'
asbag69
(g90
g71
NtRp448
(dp449
g74
(dp450
sg83
g435
sg76
(lp451
g69
(g70
g71
NtRp452
(dp453
g74
(dp454
g82
I3
ssg83
g448
sg76
(lp455
S''
asbasbasbasbasbasbasbag69
(g85
g71
NtRp456
(dp457
g74
(dp458
sg83
g259
sg76
(lp459
g69
(g90
g71
NtRp460
(dp461
g74
(dp462
g94
g95
ssg83
g456
sg76
(lp463
S'session_id_admin'
p464
asbag69
(g90
g71
NtRp465
(dp466
g74
(dp467
g101
g102
ssg83
g456
sg76
(lp468
S':'
asbag69
(g90
g71
NtRp469
(dp470
g74
(dp471
sg83
g456
sg76
(lp472
g69
(g70
g71
NtRp473
(dp474
g74
(dp475
g82
I4
ssg83
g469
sg76
(lp476
S'127.0.0.1-b76660bc-c2e2-49e9-9b6d-dce1fea2551e'
p477
ag69
(g78
g71
NtRp478
(dp479
g74
(dp480
g82
I3
ssg83
Nsg76
(lp481
g69
(g85
g71
NtRp482
(dp483
g74
(dp484
sg83
g478
sg76
(lp485
g69
(g90
g71
NtRp486
(dp487
g74
(dp488
g94
g95
ssg83
g482
sg76
(lp489
g296
asbag69
(g90
g71
NtRp490
(dp491
g74
(dp492
g101
g102
ssg83
g482
sg76
(lp493
S':'
asbag69
(g90
g71
NtRp494
(dp495
g74
(dp496
sg83
g482
sg76
(lp497
g69
(g70
g71
NtRp498
(dp499
g74
(dp500
g82
I3
ssg83
g494
sg76
(lp501
S''
asbasbasbag69
(g85
g71
NtRp502
(dp503
g74
(dp504
sg83
g478
sg76
(lp505
g69
(g90
g71
NtRp506
(dp507
g74
(dp508
g94
g95
ssg83
g502
sg76
(lp509
g317
asbag69
(g90
g71
NtRp510
(dp511
g74
(dp512
g101
g102
ssg83
g502
sg76
(lp513
S':'
asbag69
(g90
g71
NtRp514
(dp515
g74
(dp516
sg83
g502
sg76
(lp517
g69
(g70
g71
NtRp518
(dp519
g74
(dp520
g82
I3
ssg83
g514
sg76
(lp521
S''
asbasbasbag69
(g85
g71
NtRp522
(dp523
g74
(dp524
sg83
g478
sg76
(lp525
g69
(g90
g71
NtRp526
(dp527
g74
(dp528
g94
g95
ssg83
g522
sg76
(lp529
g338
asbag69
(g90
g71
NtRp530
(dp531
g74
(dp532
g101
g102
ssg83
g522
sg76
(lp533
S':'
asbag69
(g90
g71
NtRp534
(dp535
g74
(dp536
sg83
g522
sg76
(lp537
g69
(g70
g71
NtRp538
(dp539
g74
(dp540
g82
I3
ssg83
g534
sg76
(lp541
S''
asbasbasbag69
(g85
g71
NtRp542
(dp543
g74
(dp544
sg83
g478
sg76
(lp545
g69
(g90
g71
NtRp546
(dp547
g74
(dp548
g94
g95
ssg83
g542
sg76
(lp549
g359
asbag69
(g90
g71
NtRp550
(dp551
g74
(dp552
g101
g102
ssg83
g542
sg76
(lp553
S':'
asbag69
(g90
g71
NtRp554
(dp555
g74
(dp556
sg83
g542
sg76
(lp557
g69
(g70
g71
NtRp558
(dp559
g74
(dp560
g82
I3
ssg83
g554
sg76
(lp561
S''
asbasbasbag69
(g85
g71
NtRp562
(dp563
g74
(dp564
sg83
g478
sg76
(lp565
g69
(g90
g71
NtRp566
(dp567
g74
(dp568
g94
g95
ssg83
g562
sg76
(lp569
g380
asbag69
(g90
g71
NtRp570
(dp571
g74
(dp572
g101
g102
ssg83
g562
sg76
(lp573
S':'
asbag69
(g90
g71
NtRp574
(dp575
g74
(dp576
sg83
g562
sg76
(lp577
g69
(g70
g71
NtRp578
(dp579
g74
(dp580
g82
I3
ssg83
g574
sg76
(lp581
S''
asbasbasbag69
(g85
g71
NtRp582
(dp583
g74
(dp584
sg83
g478
sg76
(lp585
g69
(g90
g71
NtRp586
(dp587
g74
(dp588
g94
g95
ssg83
g582
sg76
(lp589
g401
asbag69
(g90
g71
NtRp590
(dp591
g74
(dp592
g101
g102
ssg83
g582
sg76
(lp593
S':'
asbag69
(g90
g71
NtRp594
(dp595
g74
(dp596
sg83
g582
sg76
(lp597
g69
(g70
g71
NtRp598
(dp599
g74
(dp600
g82
I3
ssg83
g594
sg76
(lp601
S''
asbasbasbag69
(g85
g71
NtRp602
(dp603
g74
(dp604
sg83
g478
sg76
(lp605
g69
(g90
g71
NtRp606
(dp607
g74
(dp608
g94
g95
ssg83
g602
sg76
(lp609
g422
asbag69
(g90
g71
NtRp610
(dp611
g74
(dp612
g101
g102
ssg83
g602
sg76
(lp613
S':'
asbag69
(g90
g71
NtRp614
(dp615
g74
(dp616
sg83
g602
sg76
(lp617
g69
(g70
g71
NtRp618
(dp619
g74
(dp620
g82
I3
ssg83
g614
sg76
(lp621
S''
asbasbasbag69
(g85
g71
NtRp622
(dp623
g74
(dp624
sg83
g478
sg76
(lp625
g69
(g90
g71
NtRp626
(dp627
g74
(dp628
g94
g95
ssg83
g622
sg76
(lp629
g443
asbag69
(g90
g71
NtRp630
(dp631
g74
(dp632
g101
g102
ssg83
g622
sg76
(lp633
S':'
asbag69
(g90
g71
NtRp634
(dp635
g74
(dp636
sg83
g622
sg76
(lp637
g69
(g70
g71
NtRp638
(dp639
g74
(dp640
g82
I3
ssg83
g634
sg76
(lp641
S''
asbasbasbasbasbasbasbag69
(g85
g71
NtRp642
(dp643
g74
(dp644
sg83
g259
sg76
(lp645
g69
(g90
g71
NtRp646
(dp647
g74
(dp648
g94
g95
ssg83
g642
sg76
(lp649
S'session_id_ecommerce'
p650
asbag69
(g90
g71
NtRp651
(dp652
g74
(dp653
g101
g102
ssg83
g642
sg76
(lp654
S':'
asbag69
(g90
g71
NtRp655
(dp656
g74
(dp657
sg83
g642
sg76
(lp658
g69
(g70
g71
NtRp659
(dp660
g74
(dp661
g82
I4
ssg83
g655
sg76
(lp662
S'127.0.0.1-61e66857-a1cd-422b-bcbc-b6eb18034f96'
p663
ag69
(g78
g71
NtRp664
(dp665
g74
(dp666
g82
I3
ssg83
Nsg76
(lp667
g69
(g85
g71
NtRp668
(dp669
g74
(dp670
sg83
g664
sg76
(lp671
g69
(g90
g71
NtRp672
(dp673
g74
(dp674
g94
g95
ssg83
g668
sg76
(lp675
g296
asbag69
(g90
g71
NtRp676
(dp677
g74
(dp678
g101
g102
ssg83
g668
sg76
(lp679
S':'
asbag69
(g90
g71
NtRp680
(dp681
g74
(dp682
sg83
g668
sg76
(lp683
g69
(g70
g71
NtRp684
(dp685
g74
(dp686
g82
I3
ssg83
g680
sg76
(lp687
S''
asbasbasbag69
(g85
g71
NtRp688
(dp689
g74
(dp690
sg83
g664
sg76
(lp691
g69
(g90
g71
NtRp692
(dp693
g74
(dp694
g94
g95
ssg83
g688
sg76
(lp695
g317
asbag69
(g90
g71
NtRp696
(dp697
g74
(dp698
g101
g102
ssg83
g688
sg76
(lp699
S':'
asbag69
(g90
g71
NtRp700
(dp701
g74
(dp702
sg83
g688
sg76
(lp703
g69
(g70
g71
NtRp704
(dp705
g74
(dp706
g82
I3
ssg83
g700
sg76
(lp707
S''
asbasbasbag69
(g85
g71
NtRp708
(dp709
g74
(dp710
sg83
g664
sg76
(lp711
g69
(g90
g71
NtRp712
(dp713
g74
(dp714
g94
g95
ssg83
g708
sg76
(lp715
g338
asbag69
(g90
g71
NtRp716
(dp717
g74
(dp718
g101
g102
ssg83
g708
sg76
(lp719
S':'
asbag69
(g90
g71
NtRp720
(dp721
g74
(dp722
sg83
g708
sg76
(lp723
g69
(g70
g71
NtRp724
(dp725
g74
(dp726
g82
I3
ssg83
g720
sg76
(lp727
S''
asbasbasbag69
(g85
g71
NtRp728
(dp729
g74
(dp730
sg83
g664
sg76
(lp731
g69
(g90
g71
NtRp732
(dp733
g74
(dp734
g94
g95
ssg83
g728
sg76
(lp735
g359
asbag69
(g90
g71
NtRp736
(dp737
g74
(dp738
g101
g102
ssg83
g728
sg76
(lp739
S':'
asbag69
(g90
g71
NtRp740
(dp741
g74
(dp742
sg83
g728
sg76
(lp743
g69
(g70
g71
NtRp744
(dp745
g74
(dp746
g82
I3
ssg83
g740
sg76
(lp747
S''
asbasbasbag69
(g85
g71
NtRp748
(dp749
g74
(dp750
sg83
g664
sg76
(lp751
g69
(g90
g71
NtRp752
(dp753
g74
(dp754
g94
g95
ssg83
g748
sg76
(lp755
g380
asbag69
(g90
g71
NtRp756
(dp757
g74
(dp758
g101
g102
ssg83
g748
sg76
(lp759
S':'
asbag69
(g90
g71
NtRp760
(dp761
g74
(dp762
sg83
g748
sg76
(lp763
g69
(g70
g71
NtRp764
(dp765
g74
(dp766
g82
I3
ssg83
g760
sg76
(lp767
S''
asbasbasbag69
(g85
g71
NtRp768
(dp769
g74
(dp770
sg83
g664
sg76
(lp771
g69
(g90
g71
NtRp772
(dp773
g74
(dp774
g94
g95
ssg83
g768
sg76
(lp775
g401
asbag69
(g90
g71
NtRp776
(dp777
g74
(dp778
g101
g102
ssg83
g768
sg76
(lp779
S':'
asbag69
(g90
g71
NtRp780
(dp781
g74
(dp782
sg83
g768
sg76
(lp783
g69
(g70
g71
NtRp784
(dp785
g74
(dp786
g82
I3
ssg83
g780
sg76
(lp787
S''
asbasbasbag69
(g85
g71
NtRp788
(dp789
g74
(dp790
sg83
g664
sg76
(lp791
g69
(g90
g71
NtRp792
(dp793
g74
(dp794
g94
g95
ssg83
g788
sg76
(lp795
g422
asbag69
(g90
g71
NtRp796
(dp797
g74
(dp798
g101
g102
ssg83
g788
sg76
(lp799
S':'
asbag69
(g90
g71
NtRp800
(dp801
g74
(dp802
sg83
g788
sg76
(lp803
g69
(g70
g71
NtRp804
(dp805
g74
(dp806
g82
I3
ssg83
g800
sg76
(lp807
S''
asbasbasbag69
(g85
g71
NtRp808
(dp809
g74
(dp810
sg83
g664
sg76
(lp811
g69
(g90
g71
NtRp812
(dp813
g74
(dp814
g94
g95
ssg83
g808
sg76
(lp815
g443
asbag69
(g90
g71
NtRp816
(dp817
g74
(dp818
g101
g102
ssg83
g808
sg76
(lp819
S':'
asbag69
(g90
g71
NtRp820
(dp821
g74
(dp822
sg83
g808
sg76
(lp823
g69
(g70
g71
NtRp824
(dp825
g74
(dp826
g82
I3
ssg83
g820
sg76
(lp827
S''
asbasbasbasbasbasbasbasbasbasbasbag69
(g85
g71
NtRp828
(dp829
g74
(dp830
sg83
g79
sg76
(lp831
g69
(g90
g71
NtRp832
(dp833
g74
(dp834
g94
g95
ssg83
g828
sg76
(lp835
S'env'
p836
asbag69
(g90
g71
NtRp837
(dp838
g74
(dp839
g101
g102
ssg83
g828
sg76
(lp840
S':'
asbag69
(g90
g71
NtRp841
(dp842
g74
(dp843
sg83
g828
sg76
(lp844
g69
(g70
g71
NtRp845
(dp846
g74
(dp847
g82
I5
ssg83
g841
sg76
(lp848
g69
(g78
g71
NtRp849
(dp850
g74
(dp851
g82
I4
ssg83
Nsg76
(lp852
g69
(g85
g71
NtRp853
(dp854
g74
(dp855
sg83
g849
sg76
(lp856
g69
(g90
g71
NtRp857
(dp858
g74
(dp859
g94
g95
ssg83
g853
sg76
(lp860
S'app_folders'
p861
asbag69
(g90
g71
NtRp862
(dp863
g74
(dp864
g101
g102
ssg83
g853
sg76
(lp865
S':'
asbag69
(g90
g71
NtRp866
(dp867
g74
(dp868
sg83
g853
sg76
(lp869
g69
(g70
g71
NtRp870
(dp871
g74
(dp872
g82
I4
ssg83
g866
sg76
(lp873
S"set(['c:\\\\Users\\\\rochacbruno\\\\jul12\\\\cursojulho12\\\\web2py\\\\applications\\\\ecommerce\\\\', 'c:\\\\Users\\\\rochacbruno\\\\jul12\\\\cursojulho12\\\\web2py\\\\applications\\\\admin\\\\'])"
p874
asbasbasbag69
(g85
g71
NtRp875
(dp876
g74
(dp877
sg83
g849
sg76
(lp878
g69
(g90
g71
NtRp879
(dp880
g74
(dp881
g94
g95
ssg83
g875
sg76
(lp882
S'applications_parent'
p883
asbag69
(g90
g71
NtRp884
(dp885
g74
(dp886
g101
g102
ssg83
g875
sg76
(lp887
S':'
asbag69
(g90
g71
NtRp888
(dp889
g74
(dp890
sg83
g875
sg76
(lp891
g69
(g70
g71
NtRp892
(dp893
g74
(dp894
g82
I4
ssg83
g888
sg76
(lp895
S'c:\\Users\\rochacbruno\\jul12\\cursojulho12\\web2py'
p896
asbasbasbag69
(g85
g71
NtRp897
(dp898
g74
(dp899
sg83
g849
sg76
(lp900
g69
(g90
g71
NtRp901
(dp902
g74
(dp903
g94
g95
ssg83
g897
sg76
(lp904
S'cmd_args'
p905
asbag69
(g90
g71
NtRp906
(dp907
g74
(dp908
g101
g102
ssg83
g897
sg76
(lp909
S':'
asbag69
(g90
g71
NtRp910
(dp911
g74
(dp912
sg83
g897
sg76
(lp913
g69
(g70
g71
NtRp914
(dp915
g74
(dp916
g82
I4
ssg83
g910
sg76
(lp917
g69
(g78
g71
NtRp918
(dp919
g74
(dp920
g82
I3
ssg83
Nsg76
(lp921
sbasbasbasbag69
(g85
g71
NtRp922
(dp923
g74
(dp924
sg83
g849
sg76
(lp925
g69
(g90
g71
NtRp926
(dp927
g74
(dp928
g94
g95
ssg83
g922
sg76
(lp929
S'cmd_options'
p930
asbag69
(g90
g71
NtRp931
(dp932
g74
(dp933
g101
g102
ssg83
g922
sg76
(lp934
S':'
asbag69
(g90
g71
NtRp935
(dp936
g74
(dp937
sg83
g922
sg76
(lp938
g69
(g70
g71
NtRp939
(dp940
g74
(dp941
g82
I4
ssg83
g935
sg76
(lp942
S"<Values at 0x278b8c8: {'verbose': False, 'ip': '127.0.0.1', 'with_scheduler': False, 'ips': ['192.168.1.100'], 'shutdown_timeout': 5, 'taskbar': False, 'port': 8000, 'maxthreads': None, 'softcron': False, 'server_name': 'rochacbruno-HP', 'bpython': False, 'nogui': False, 'nocron': False, 'extcron': False, 'run_system_tests': False, 'test': None, 'folder': 'c:\\\\Users\\\\rochacbruno\\\\jul12\\\\cursojulho12\\\\web2py', 'config': '', 'import_models': False, 'winservice': '', 'shell': None, 'run': '', 'log_filename': 'httpserver.log', 'debuglevel': 30, 'args': [''], 'socket_timeout': 5, 'ssl_ca_certificate': None, 'scheduler': None, 'profiler_filename': None, 'ssl_private_key': '', 'password': '1234', 'request_queue_size': 5, 'ssl_certificate': '', 'cronjob': False, 'numthreads': None, 'quiet': False, 'interfaces': None, 'minthreads': None, 'timeout': 10, 'plain': False, 'nobanner': False, 'pid_filename': 'httpserver.pid'}>"
p943
asbasbasbag69
(g85
g71
NtRp944
(dp945
g74
(dp946
sg83
g849
sg76
(lp947
g69
(g90
g71
NtRp948
(dp949
g74
(dp950
g94
g95
ssg83
g944
sg76
(lp951
S'content_length'
p952
asbag69
(g90
g71
NtRp953
(dp954
g74
(dp955
g101
g102
ssg83
g944
sg76
(lp956
S':'
asbag69
(g90
g71
NtRp957
(dp958
g74
(dp959
sg83
g944
sg76
(lp960
g69
(g70
g71
NtRp961
(dp962
g74
(dp963
g82
I4
ssg83
g957
sg76
(lp964
S'1729'
p965
asbasbasbag69
(g85
g71
NtRp966
(dp967
g74
(dp968
sg83
g849
sg76
(lp969
g69
(g90
g71
NtRp970
(dp971
g74
(dp972
g94
g95
ssg83
g966
sg76
(lp973
S'content_type'
p974
asbag69
(g90
g71
NtRp975
(dp976
g74
(dp977
g101
g102
ssg83
g966
sg76
(lp978
S':'
asbag69
(g90
g71
NtRp979
(dp980
g74
(dp981
sg83
g966
sg76
(lp982
g69
(g70
g71
NtRp983
(dp984
g74
(dp985
g82
I4
ssg83
g979
sg76
(lp986
S'multipart/form-data; boundary=---------------------------9040894219264'
p987
asbasbasbag69
(g85
g71
NtRp988
(dp989
g74
(dp990
sg83
g849
sg76
(lp991
g69
(g90
g71
NtRp992
(dp993
g74
(dp994
g94
g95
ssg83
g988
sg76
(lp995
S'db_sessions'
p996
asbag69
(g90
g71
NtRp997
(dp998
g74
(dp999
g101
g102
ssg83
g988
sg76
(lp1000
S':'
asbag69
(g90
g71
NtRp1001
(dp1002
g74
(dp1003
sg83
g988
sg76
(lp1004
g69
(g70
g71
NtRp1005
(dp1006
g74
(dp1007
g82
I4
ssg83
g1001
sg76
(lp1008
S'set([])'
p1009
asbasbasbag69
(g85
g71
NtRp1010
(dp1011
g74
(dp1012
sg83
g849
sg76
(lp1013
g69
(g90
g71
NtRp1014
(dp1015
g74
(dp1016
g94
g95
ssg83
g1010
sg76
(lp1017
S'debugging'
p1018
asbag69
(g90
g71
NtRp1019
(dp1020
g74
(dp1021
g101
g102
ssg83
g1010
sg76
(lp1022
S':'
asbag69
(g90
g71
NtRp1023
(dp1024
g74
(dp1025
sg83
g1010
sg76
(lp1026
g69
(g70
g71
NtRp1027
(dp1028
g74
(dp1029
g82
I4
ssg83
g1023
sg76
(lp1030
g112
asbasbasbag69
(g85
g71
NtRp1031
(dp1032
g74
(dp1033
sg83
g849
sg76
(lp1034
g69
(g90
g71
NtRp1035
(dp1036
g74
(dp1037
g94
g95
ssg83
g1031
sg76
(lp1038
S'gluon_parent'
p1039
asbag69
(g90
g71
NtRp1040
(dp1041
g74
(dp1042
g101
g102
ssg83
g1031
sg76
(lp1043
S':'
asbag69
(g90
g71
NtRp1044
(dp1045
g74
(dp1046
sg83
g1031
sg76
(lp1047
g69
(g70
g71
NtRp1048
(dp1049
g74
(dp1050
g82
I4
ssg83
g1044
sg76
(lp1051
S'c:\\Users\\rochacbruno\\jul12\\cursojulho12\\web2py'
p1052
asbasbasbag69
(g85
g71
NtRp1053
(dp1054
g74
(dp1055
sg83
g849
sg76
(lp1056
g69
(g90
g71
NtRp1057
(dp1058
g74
(dp1059
g94
g95
ssg83
g1053
sg76
(lp1060
S'http_accept'
p1061
asbag69
(g90
g71
NtRp1062
(dp1063
g74
(dp1064
g101
g102
ssg83
g1053
sg76
(lp1065
S':'
asbag69
(g90
g71
NtRp1066
(dp1067
g74
(dp1068
sg83
g1053
sg76
(lp1069
g69
(g70
g71
NtRp1070
(dp1071
g74
(dp1072
g82
I4
ssg83
g1066
sg76
(lp1073
S'text/html,application/xhtml+xml,application/xml;q=0.9,*/*;q=0.8'
p1074
asbasbasbag69
(g85
g71
NtRp1075
(dp1076
g74
(dp1077
sg83
g849
sg76
(lp1078
g69
(g90
g71
NtRp1079
(dp1080
g74
(dp1081
g94
g95
ssg83
g1075
sg76
(lp1082
S'http_accept_encoding'
p1083
asbag69
(g90
g71
NtRp1084
(dp1085
g74
(dp1086
g101
g102
ssg83
g1075
sg76
(lp1087
S':'
asbag69
(g90
g71
NtRp1088
(dp1089
g74
(dp1090
sg83
g1075
sg76
(lp1091
g69
(g70
g71
NtRp1092
(dp1093
g74
(dp1094
g82
I4
ssg83
g1088
sg76
(lp1095
S'gzip, deflate'
p1096
asbasbasbag69
(g85
g71
NtRp1097
(dp1098
g74
(dp1099
sg83
g849
sg76
(lp1100
g69
(g90
g71
NtRp1101
(dp1102
g74
(dp1103
g94
g95
ssg83
g1097
sg76
(lp1104
S'http_accept_language'
p1105
asbag69
(g90
g71
NtRp1106
(dp1107
g74
(dp1108
g101
g102
ssg83
g1097
sg76
(lp1109
S':'
asbag69
(g90
g71
NtRp1110
(dp1111
g74
(dp1112
sg83
g1097
sg76
(lp1113
g69
(g70
g71
NtRp1114
(dp1115
g74
(dp1116
g82
I4
ssg83
g1110
sg76
(lp1117
S'en,pt-br;q=0.8,pt;q=0.5,en-us;q=0.3'
p1118
asbasbasbag69
(g85
g71
NtRp1119
(dp1120
g74
(dp1121
sg83
g849
sg76
(lp1122
g69
(g90
g71
NtRp1123
(dp1124
g74
(dp1125
g94
g95
ssg83
g1119
sg76
(lp1126
S'http_connection'
p1127
asbag69
(g90
g71
NtRp1128
(dp1129
g74
(dp1130
g101
g102
ssg83
g1119
sg76
(lp1131
S':'
asbag69
(g90
g71
NtRp1132
(dp1133
g74
(dp1134
sg83
g1119
sg76
(lp1135
g69
(g70
g71
NtRp1136
(dp1137
g74
(dp1138
g82
I4
ssg83
g1132
sg76
(lp1139
S'keep-alive'
p1140
asbasbasbag69
(g85
g71
NtRp1141
(dp1142
g74
(dp1143
sg83
g849
sg76
(lp1144
g69
(g90
g71
NtRp1145
(dp1146
g74
(dp1147
g94
g95
ssg83
g1141
sg76
(lp1148
S'http_content_length'
p1149
asbag69
(g90
g71
NtRp1150
(dp1151
g74
(dp1152
g101
g102
ssg83
g1141
sg76
(lp1153
S':'
asbag69
(g90
g71
NtRp1154
(dp1155
g74
(dp1156
sg83
g1141
sg76
(lp1157
g69
(g70
g71
NtRp1158
(dp1159
g74
(dp1160
g82
I4
ssg83
g1154
sg76
(lp1161
g965
asbasbasbag69
(g85
g71
NtRp1162
(dp1163
g74
(dp1164
sg83
g849
sg76
(lp1165
g69
(g90
g71
NtRp1166
(dp1167
g74
(dp1168
g94
g95
ssg83
g1162
sg76
(lp1169
S'http_content_type'
p1170
asbag69
(g90
g71
NtRp1171
(dp1172
g74
(dp1173
g101
g102
ssg83
g1162
sg76
(lp1174
S':'
asbag69
(g90
g71
NtRp1175
(dp1176
g74
(dp1177
sg83
g1162
sg76
(lp1178
g69
(g70
g71
NtRp1179
(dp1180
g74
(dp1181
g82
I4
ssg83
g1175
sg76
(lp1182
g987
asbasbasbag69
(g85
g71
NtRp1183
(dp1184
g74
(dp1185
sg83
g849
sg76
(lp1186
g69
(g90
g71
NtRp1187
(dp1188
g74
(dp1189
g94
g95
ssg83
g1183
sg76
(lp1190
S'http_cookie'
p1191
asbag69
(g90
g71
NtRp1192
(dp1193
g74
(dp1194
g101
g102
ssg83
g1183
sg76
(lp1195
S':'
asbag69
(g90
g71
NtRp1196
(dp1197
g74
(dp1198
sg83
g1183
sg76
(lp1199
g69
(g70
g71
NtRp1200
(dp1201
g74
(dp1202
g82
I4
ssg83
g1196
sg76
(lp1203
S'scayt_verLang=5; session_id_ecommerce=127.0.0.1-61e66857-a1cd-422b-bcbc-b6eb18034f96; session_id_admin=127.0.0.1-b76660bc-c2e2-49e9-9b6d-dce1fea2551e'
p1204
asbasbasbag69
(g85
g71
NtRp1205
(dp1206
g74
(dp1207
sg83
g849
sg76
(lp1208
g69
(g90
g71
NtRp1209
(dp1210
g74
(dp1211
g94
g95
ssg83
g1205
sg76
(lp1212
S'http_host'
p1213
asbag69
(g90
g71
NtRp1214
(dp1215
g74
(dp1216
g101
g102
ssg83
g1205
sg76
(lp1217
S':'
asbag69
(g90
g71
NtRp1218
(dp1219
g74
(dp1220
sg83
g1205
sg76
(lp1221
g69
(g70
g71
NtRp1222
(dp1223
g74
(dp1224
g82
I4
ssg83
g1218
sg76
(lp1225
S'localhost:8000'
p1226
asbasbasbag69
(g85
g71
NtRp1227
(dp1228
g74
(dp1229
sg83
g849
sg76
(lp1230
g69
(g90
g71
NtRp1231
(dp1232
g74
(dp1233
g94
g95
ssg83
g1227
sg76
(lp1234
S'http_referer'
p1235
asbag69
(g90
g71
NtRp1236
(dp1237
g74
(dp1238
g101
g102
ssg83
g1227
sg76
(lp1239
S':'
asbag69
(g90
g71
NtRp1240
(dp1241
g74
(dp1242
sg83
g1227
sg76
(lp1243
g69
(g70
g71
NtRp1244
(dp1245
g74
(dp1246
g82
I4
ssg83
g1240
sg76
(lp1247
S'http://localhost:8000/ecommerce/product/edit/11'
p1248
asbasbasbag69
(g85
g71
NtRp1249
(dp1250
g74
(dp1251
sg83
g849
sg76
(lp1252
g69
(g90
g71
NtRp1253
(dp1254
g74
(dp1255
g94
g95
ssg83
g1249
sg76
(lp1256
S'http_user_agent'
p1257
asbag69
(g90
g71
NtRp1258
(dp1259
g74
(dp1260
g101
g102
ssg83
g1249
sg76
(lp1261
S':'
asbag69
(g90
g71
NtRp1262
(dp1263
g74
(dp1264
sg83
g1249
sg76
(lp1265
g69
(g70
g71
NtRp1266
(dp1267
g74
(dp1268
g82
I4
ssg83
g1262
sg76
(lp1269
S'Mozilla/5.0 (Windows NT 6.1; rv:14.0) Gecko/20100101 Firefox/14.0.1'
p1270
asbasbasbag69
(g85
g71
NtRp1271
(dp1272
g74
(dp1273
sg83
g849
sg76
(lp1274
g69
(g90
g71
NtRp1275
(dp1276
g74
(dp1277
g94
g95
ssg83
g1271
sg76
(lp1278
S'is_jython'
p1279
asbag69
(g90
g71
NtRp1280
(dp1281
g74
(dp1282
g101
g102
ssg83
g1271
sg76
(lp1283
S':'
asbag69
(g90
g71
NtRp1284
(dp1285
g74
(dp1286
sg83
g1271
sg76
(lp1287
g69
(g70
g71
NtRp1288
(dp1289
g74
(dp1290
g82
I4
ssg83
g1284
sg76
(lp1291
g112
asbasbasbag69
(g85
g71
NtRp1292
(dp1293
g74
(dp1294
sg83
g849
sg76
(lp1295
g69
(g90
g71
NtRp1296
(dp1297
g74
(dp1298
g94
g95
ssg83
g1292
sg76
(lp1299
S'is_pypy'
p1300
asbag69
(g90
g71
NtRp1301
(dp1302
g74
(dp1303
g101
g102
ssg83
g1292
sg76
(lp1304
S':'
asbag69
(g90
g71
NtRp1305
(dp1306
g74
(dp1307
sg83
g1292
sg76
(lp1308
g69
(g70
g71
NtRp1309
(dp1310
g74
(dp1311
g82
I4
ssg83
g1305
sg76
(lp1312
g112
asbasbasbag69
(g85
g71
NtRp1313
(dp1314
g74
(dp1315
sg83
g849
sg76
(lp1316
g69
(g90
g71
NtRp1317
(dp1318
g74
(dp1319
g94
g95
ssg83
g1313
sg76
(lp1320
S'path_info'
p1321
asbag69
(g90
g71
NtRp1322
(dp1323
g74
(dp1324
g101
g102
ssg83
g1313
sg76
(lp1325
S':'
asbag69
(g90
g71
NtRp1326
(dp1327
g74
(dp1328
sg83
g1313
sg76
(lp1329
g69
(g70
g71
NtRp1330
(dp1331
g74
(dp1332
g82
I4
ssg83
g1326
sg76
(lp1333
S'/ecommerce/product/edit/11'
p1334
asbasbasbag69
(g85
g71
NtRp1335
(dp1336
g74
(dp1337
sg83
g849
sg76
(lp1338
g69
(g90
g71
NtRp1339
(dp1340
g74
(dp1341
g94
g95
ssg83
g1335
sg76
(lp1342
S'query_string'
p1343
asbag69
(g90
g71
NtRp1344
(dp1345
g74
(dp1346
g101
g102
ssg83
g1335
sg76
(lp1347
S':'
asbag69
(g90
g71
NtRp1348
(dp1349
g74
(dp1350
sg83
g1335
sg76
(lp1351
g69
(g70
g71
NtRp1352
(dp1353
g74
(dp1354
g82
I4
ssg83
g1348
sg76
(lp1355
S''
asbasbasbag69
(g85
g71
NtRp1356
(dp1357
g74
(dp1358
sg83
g849
sg76
(lp1359
g69
(g90
g71
NtRp1360
(dp1361
g74
(dp1362
g94
g95
ssg83
g1356
sg76
(lp1363
S'remote_addr'
p1364
asbag69
(g90
g71
NtRp1365
(dp1366
g74
(dp1367
g101
g102
ssg83
g1356
sg76
(lp1368
S':'
asbag69
(g90
g71
NtRp1369
(dp1370
g74
(dp1371
sg83
g1356
sg76
(lp1372
g69
(g70
g71
NtRp1373
(dp1374
g74
(dp1375
g82
I4
ssg83
g1369
sg76
(lp1376
g215
asbasbasbag69
(g85
g71
NtRp1377
(dp1378
g74
(dp1379
sg83
g849
sg76
(lp1380
g69
(g90
g71
NtRp1381
(dp1382
g74
(dp1383
g94
g95
ssg83
g1377
sg76
(lp1384
S'remote_port'
p1385
asbag69
(g90
g71
NtRp1386
(dp1387
g74
(dp1388
g101
g102
ssg83
g1377
sg76
(lp1389
S':'
asbag69
(g90
g71
NtRp1390
(dp1391
g74
(dp1392
sg83
g1377
sg76
(lp1393
g69
(g70
g71
NtRp1394
(dp1395
g74
(dp1396
g82
I4
ssg83
g1390
sg76
(lp1397
S'49674'
p1398
asbasbasbag69
(g85
g71
NtRp1399
(dp1400
g74
(dp1401
sg83
g849
sg76
(lp1402
g69
(g90
g71
NtRp1403
(dp1404
g74
(dp1405
g94
g95
ssg83
g1399
sg76
(lp1406
S'request_method'
p1407
asbag69
(g90
g71
NtRp1408
(dp1409
g74
(dp1410
g101
g102
ssg83
g1399
sg76
(lp1411
S':'
asbag69
(g90
g71
NtRp1412
(dp1413
g74
(dp1414
sg83
g1399
sg76
(lp1415
g69
(g70
g71
NtRp1416
(dp1417
g74
(dp1418
g82
I4
ssg83
g1412
sg76
(lp1419
S'POST'
p1420
asbasbasbag69
(g85
g71
NtRp1421
(dp1422
g74
(dp1423
sg83
g849
sg76
(lp1424
g69
(g90
g71
NtRp1425
(dp1426
g74
(dp1427
g94
g95
ssg83
g1421
sg76
(lp1428
S'script_name'
p1429
asbag69
(g90
g71
NtRp1430
(dp1431
g74
(dp1432
g101
g102
ssg83
g1421
sg76
(lp1433
S':'
asbag69
(g90
g71
NtRp1434
(dp1435
g74
(dp1436
sg83
g1421
sg76
(lp1437
g69
(g70
g71
NtRp1438
(dp1439
g74
(dp1440
g82
I4
ssg83
g1434
sg76
(lp1441
S''
asbasbasbag69
(g85
g71
NtRp1442
(dp1443
g74
(dp1444
sg83
g849
sg76
(lp1445
g69
(g90
g71
NtRp1446
(dp1447
g74
(dp1448
g94
g95
ssg83
g1442
sg76
(lp1449
S'server_name'
p1450
asbag69
(g90
g71
NtRp1451
(dp1452
g74
(dp1453
g101
g102
ssg83
g1442
sg76
(lp1454
S':'
asbag69
(g90
g71
NtRp1455
(dp1456
g74
(dp1457
sg83
g1442
sg76
(lp1458
g69
(g70
g71
NtRp1459
(dp1460
g74
(dp1461
g82
I4
ssg83
g1455
sg76
(lp1462
S'rochacbruno-HP'
p1463
asbasbasbag69
(g85
g71
NtRp1464
(dp1465
g74
(dp1466
sg83
g849
sg76
(lp1467
g69
(g90
g71
NtRp1468
(dp1469
g74
(dp1470
g94
g95
ssg83
g1464
sg76
(lp1471
S'server_port'
p1472
asbag69
(g90
g71
NtRp1473
(dp1474
g74
(dp1475
g101
g102
ssg83
g1464
sg76
(lp1476
S':'
asbag69
(g90
g71
NtRp1477
(dp1478
g74
(dp1479
sg83
g1464
sg76
(lp1480
g69
(g70
g71
NtRp1481
(dp1482
g74
(dp1483
g82
I4
ssg83
g1477
sg76
(lp1484
S'8000'
p1485
asbasbasbag69
(g85
g71
NtRp1486
(dp1487
g74
(dp1488
sg83
g849
sg76
(lp1489
g69
(g90
g71
NtRp1490
(dp1491
g74
(dp1492
g94
g95
ssg83
g1486
sg76
(lp1493
S'server_protocol'
p1494
asbag69
(g90
g71
NtRp1495
(dp1496
g74
(dp1497
g101
g102
ssg83
g1486
sg76
(lp1498
S':'
asbag69
(g90
g71
NtRp1499
(dp1500
g74
(dp1501
sg83
g1486
sg76
(lp1502
g69
(g70
g71
NtRp1503
(dp1504
g74
(dp1505
g82
I4
ssg83
g1499
sg76
(lp1506
S'HTTP/1.1'
p1507
asbasbasbag69
(g85
g71
NtRp1508
(dp1509
g74
(dp1510
sg83
g849
sg76
(lp1511
g69
(g90
g71
NtRp1512
(dp1513
g74
(dp1514
g94
g95
ssg83
g1508
sg76
(lp1515
S'server_software'
p1516
asbag69
(g90
g71
NtRp1517
(dp1518
g74
(dp1519
g101
g102
ssg83
g1508
sg76
(lp1520
S':'
asbag69
(g90
g71
NtRp1521
(dp1522
g74
(dp1523
sg83
g1508
sg76
(lp1524
g69
(g70
g71
NtRp1525
(dp1526
g74
(dp1527
g82
I4
ssg83
g1521
sg76
(lp1528
S'Rocket 1.2.4'
p1529
asbasbasbag69
(g85
g71
NtRp1530
(dp1531
g74
(dp1532
sg83
g849
sg76
(lp1533
g69
(g90
g71
NtRp1534
(dp1535
g74
(dp1536
g94
g95
ssg83
g1530
sg76
(lp1537
S'web2py_crontype'
p1538
asbag69
(g90
g71
NtRp1539
(dp1540
g74
(dp1541
g101
g102
ssg83
g1530
sg76
(lp1542
S':'
asbag69
(g90
g71
NtRp1543
(dp1544
g74
(dp1545
sg83
g1530
sg76
(lp1546
g69
(g70
g71
NtRp1547
(dp1548
g74
(dp1549
g82
I4
ssg83
g1543
sg76
(lp1550
S'hard'
p1551
asbasbasbag69
(g85
g71
NtRp1552
(dp1553
g74
(dp1554
sg83
g849
sg76
(lp1555
g69
(g90
g71
NtRp1556
(dp1557
g74
(dp1558
g94
g95
ssg83
g1552
sg76
(lp1559
S'web2py_path'
p1560
asbag69
(g90
g71
NtRp1561
(dp1562
g74
(dp1563
g101
g102
ssg83
g1552
sg76
(lp1564
S':'
asbag69
(g90
g71
NtRp1565
(dp1566
g74
(dp1567
sg83
g1552
sg76
(lp1568
g69
(g70
g71
NtRp1569
(dp1570
g74
(dp1571
g82
I4
ssg83
g1565
sg76
(lp1572
g896
asbasbasbag69
(g85
g71
NtRp1573
(dp1574
g74
(dp1575
sg83
g849
sg76
(lp1576
g69
(g90
g71
NtRp1577
(dp1578
g74
(dp1579
g94
g95
ssg83
g1573
sg76
(lp1580
S'web2py_version'
p1581
asbag69
(g90
g71
NtRp1582
(dp1583
g74
(dp1584
g101
g102
ssg83
g1573
sg76
(lp1585
S':'
asbag69
(g90
g71
NtRp1586
(dp1587
g74
(dp1588
sg83
g1573
sg76
(lp1589
g69
(g70
g71
NtRp1590
(dp1591
g74
(dp1592
g82
I4
ssg83
g1586
sg76
(lp1593
g69
(g78
g71
NtRp1594
(dp1595
g74
(dp1596
g82
I3
ssg83
Nsg76
(lp1597
g69
(g85
g71
NtRp1598
(dp1599
g74
(dp1600
sg83
g1594
sg76
(lp1601
g69
(g90
g71
NtRp1602
(dp1603
g74
(dp1604
sg83
g1598
sg76
(lp1605
g69
(g70
g71
NtRp1606
(dp1607
g74
(dp1608
g82
I3
ssg83
g1602
sg76
(lp1609
S'2'
asbasbasbag69
(g85
g71
NtRp1610
(dp1611
g74
(dp1612
sg83
g1594
sg76
(lp1613
g69
(g90
g71
NtRp1614
(dp1615
g74
(dp1616
sg83
g1610
sg76
(lp1617
g69
(g70
g71
NtRp1618
(dp1619
g74
(dp1620
g82
I3
ssg83
g1614
sg76
(lp1621
S'0'
asbasbasbag69
(g85
g71
NtRp1622
(dp1623
g74
(dp1624
sg83
g1594
sg76
(lp1625
g69
(g90
g71
NtRp1626
(dp1627
g74
(dp1628
sg83
g1622
sg76
(lp1629
g69
(g70
g71
NtRp1630
(dp1631
g74
(dp1632
g82
I3
ssg83
g1626
sg76
(lp1633
S'0'
asbasbasbag69
(g85
g71
NtRp1634
(dp1635
g74
(dp1636
sg83
g1594
sg76
(lp1637
g69
(g90
g71
NtRp1638
(dp1639
g74
(dp1640
sg83
g1634
sg76
(lp1641
g69
(g70
g71
NtRp1642
(dp1643
g74
(dp1644
g82
I3
ssg83
g1638
sg76
(lp1645
S'datetime.datetime(2012, 8, 10, 13, 1, 31)'
p1646
asbasbasbag69
(g85
g71
NtRp1647
(dp1648
g74
(dp1649
sg83
g1594
sg76
(lp1650
g69
(g90
g71
NtRp1651
(dp1652
g74
(dp1653
sg83
g1647
sg76
(lp1654
g69
(g70
g71
NtRp1655
(dp1656
g74
(dp1657
g82
I3
ssg83
g1651
sg76
(lp1658
S'dev'
p1659
asbasbasbasbasbasbasbag69
(g85
g71
NtRp1660
(dp1661
g74
(dp1662
sg83
g849
sg76
(lp1663
g69
(g90
g71
NtRp1664
(dp1665
g74
(dp1666
g94
g95
ssg83
g1660
sg76
(lp1667
S'wsgi_errors'
p1668
asbag69
(g90
g71
NtRp1669
(dp1670
g74
(dp1671
g101
g102
ssg83
g1660
sg76
(lp1672
S':'
asbag69
(g90
g71
NtRp1673
(dp1674
g74
(dp1675
sg83
g1660
sg76
(lp1676
g69
(g70
g71
NtRp1677
(dp1678
g74
(dp1679
g82
I4
ssg83
g1673
sg76
(lp1680
S"<open file '<stderr>', mode 'w' at 0x013450D0>"
p1681
asbasbasbag69
(g85
g71
NtRp1682
(dp1683
g74
(dp1684
sg83
g849
sg76
(lp1685
g69
(g90
g71
NtRp1686
(dp1687
g74
(dp1688
g94
g95
ssg83
g1682
sg76
(lp1689
S'wsgi_file_wrapper'
p1690
asbag69
(g90
g71
NtRp1691
(dp1692
g74
(dp1693
g101
g102
ssg83
g1682
sg76
(lp1694
S':'
asbag69
(g90
g71
NtRp1695
(dp1696
g74
(dp1697
sg83
g1682
sg76
(lp1698
g69
(g70
g71
NtRp1699
(dp1700
g74
(dp1701
g82
I4
ssg83
g1695
sg76
(lp1702
S'<class wsgiref.util.FileWrapper at 0x026C43B0>'
p1703
asbasbasbag69
(g85
g71
NtRp1704
(dp1705
g74
(dp1706
sg83
g849
sg76
(lp1707
g69
(g90
g71
NtRp1708
(dp1709
g74
(dp1710
g94
g95
ssg83
g1704
sg76
(lp1711
S'wsgi_input'
p1712
asbag69
(g90
g71
NtRp1713
(dp1714
g74
(dp1715
g101
g102
ssg83
g1704
sg76
(lp1716
S':'
asbag69
(g90
g71
NtRp1717
(dp1718
g74
(dp1719
sg83
g1704
sg76
(lp1720
g69
(g70
g71
NtRp1721
(dp1722
g74
(dp1723
g82
I4
ssg83
g1717
sg76
(lp1724
S'<socket._fileobject object at 0x02A4C370>'
p1725
asbasbasbag69
(g85
g71
NtRp1726
(dp1727
g74
(dp1728
sg83
g849
sg76
(lp1729
g69
(g90
g71
NtRp1730
(dp1731
g74
(dp1732
g94
g95
ssg83
g1726
sg76
(lp1733
S'wsgi_multiprocess'
p1734
asbag69
(g90
g71
NtRp1735
(dp1736
g74
(dp1737
g101
g102
ssg83
g1726
sg76
(lp1738
S':'
asbag69
(g90
g71
NtRp1739
(dp1740
g74
(dp1741
sg83
g1726
sg76
(lp1742
g69
(g70
g71
NtRp1743
(dp1744
g74
(dp1745
g82
I4
ssg83
g1739
sg76
(lp1746
g112
asbasbasbag69
(g85
g71
NtRp1747
(dp1748
g74
(dp1749
sg83
g849
sg76
(lp1750
g69
(g90
g71
NtRp1751
(dp1752
g74
(dp1753
g94
g95
ssg83
g1747
sg76
(lp1754
S'wsgi_multithread'
p1755
asbag69
(g90
g71
NtRp1756
(dp1757
g74
(dp1758
g101
g102
ssg83
g1747
sg76
(lp1759
S':'
asbag69
(g90
g71
NtRp1760
(dp1761
g74
(dp1762
sg83
g1747
sg76
(lp1763
g69
(g70
g71
NtRp1764
(dp1765
g74
(dp1766
g82
I4
ssg83
g1760
sg76
(lp1767
S'True'
p1768
asbasbasbag69
(g85
g71
NtRp1769
(dp1770
g74
(dp1771
sg83
g849
sg76
(lp1772
g69
(g90
g71
NtRp1773
(dp1774
g74
(dp1775
g94
g95
ssg83
g1769
sg76
(lp1776
S'wsgi_run_once'
p1777
asbag69
(g90
g71
NtRp1778
(dp1779
g74
(dp1780
g101
g102
ssg83
g1769
sg76
(lp1781
S':'
asbag69
(g90
g71
NtRp1782
(dp1783
g74
(dp1784
sg83
g1769
sg76
(lp1785
g69
(g70
g71
NtRp1786
(dp1787
g74
(dp1788
g82
I4
ssg83
g1782
sg76
(lp1789
g112
asbasbasbag69
(g85
g71
NtRp1790
(dp1791
g74
(dp1792
sg83
g849
sg76
(lp1793
g69
(g90
g71
NtRp1794
(dp1795
g74
(dp1796
g94
g95
ssg83
g1790
sg76
(lp1797
S'wsgi_url_scheme'
p1798
asbag69
(g90
g71
NtRp1799
(dp1800
g74
(dp1801
g101
g102
ssg83
g1790
sg76
(lp1802
S':'
asbag69
(g90
g71
NtRp1803
(dp1804
g74
(dp1805
sg83
g1790
sg76
(lp1806
g69
(g70
g71
NtRp1807
(dp1808
g74
(dp1809
g82
I4
ssg83
g1803
sg76
(lp1810
S'http'
p1811
asbasbasbag69
(g85
g71
NtRp1812
(dp1813
g74
(dp1814
sg83
g849
sg76
(lp1815
g69
(g90
g71
NtRp1816
(dp1817
g74
(dp1818
g94
g95
ssg83
g1812
sg76
(lp1819
S'wsgi_version'
p1820
asbag69
(g90
g71
NtRp1821
(dp1822
g74
(dp1823
g101
g102
ssg83
g1812
sg76
(lp1824
S':'
asbag69
(g90
g71
NtRp1825
(dp1826
g74
(dp1827
sg83
g1812
sg76
(lp1828
g69
(g70
g71
NtRp1829
(dp1830
g74
(dp1831
g82
I4
ssg83
g1825
sg76
(lp1832
g69
(g78
g71
NtRp1833
(dp1834
g74
(dp1835
g82
I3
ssg83
Nsg76
(lp1836
g69
(g85
g71
NtRp1837
(dp1838
g74
(dp1839
sg83
g1833
sg76
(lp1840
g69
(g90
g71
NtRp1841
(dp1842
g74
(dp1843
sg83
g1837
sg76
(lp1844
g69
(g70
g71
NtRp1845
(dp1846
g74
(dp1847
g82
I3
ssg83
g1841
sg76
(lp1848
S'1'
asbasbasbag69
(g85
g71
NtRp1849
(dp1850
g74
(dp1851
sg83
g1833
sg76
(lp1852
g69
(g90
g71
NtRp1853
(dp1854
g74
(dp1855
sg83
g1849
sg76
(lp1856
g69
(g70
g71
NtRp1857
(dp1858
g74
(dp1859
g82
I3
ssg83
g1853
sg76
(lp1860
S'0'
asbasbasbasbasbasbasbasbasbasbasbag69
(g85
g71
NtRp1861
(dp1862
g74
(dp1863
sg83
g79
sg76
(lp1864
g69
(g90
g71
NtRp1865
(dp1866
g74
(dp1867
g94
g95
ssg83
g1861
sg76
(lp1868
S'extension'
p1869
asbag69
(g90
g71
NtRp1870
(dp1871
g74
(dp1872
g101
g102
ssg83
g1861
sg76
(lp1873
S':'
asbag69
(g90
g71
NtRp1874
(dp1875
g74
(dp1876
sg83
g1861
sg76
(lp1877
g69
(g70
g71
NtRp1878
(dp1879
g74
(dp1880
g82
I5
ssg83
g1874
sg76
(lp1881
S'html'
p1882
asbasbasbag69
(g85
g71
NtRp1883
(dp1884
g74
(dp1885
sg83
g79
sg76
(lp1886
g69
(g90
g71
NtRp1887
(dp1888
g74
(dp1889
g94
g95
ssg83
g1883
sg76
(lp1890
S'folder'
p1891
asbag69
(g90
g71
NtRp1892
(dp1893
g74
(dp1894
g101
g102
ssg83
g1883
sg76
(lp1895
S':'
asbag69
(g90
g71
NtRp1896
(dp1897
g74
(dp1898
sg83
g1883
sg76
(lp1899
g69
(g70
g71
NtRp1900
(dp1901
g74
(dp1902
g82
I5
ssg83
g1896
sg76
(lp1903
S'c:\\Users\\rochacbruno\\jul12\\cursojulho12\\web2py\\applications\\ecommerce\\'
p1904
asbasbasbag69
(g85
g71
NtRp1905
(dp1906
g74
(dp1907
sg83
g79
sg76
(lp1908
g69
(g90
g71
NtRp1909
(dp1910
g74
(dp1911
g94
g95
ssg83
g1905
sg76
(lp1912
S'function'
p1913
asbag69
(g90
g71
NtRp1914
(dp1915
g74
(dp1916
g101
g102
ssg83
g1905
sg76
(lp1917
S':'
asbag69
(g90
g71
NtRp1918
(dp1919
g74
(dp1920
sg83
g1905
sg76
(lp1921
g69
(g70
g71
NtRp1922
(dp1923
g74
(dp1924
g82
I5
ssg83
g1918
sg76
(lp1925
S'edit'
p1926
asbasbasbag69
(g85
g71
NtRp1927
(dp1928
g74
(dp1929
sg83
g79
sg76
(lp1930
g69
(g90
g71
NtRp1931
(dp1932
g74
(dp1933
g94
g95
ssg83
g1927
sg76
(lp1934
S'get_vars'
p1935
asbag69
(g90
g71
NtRp1936
(dp1937
g74
(dp1938
g101
g102
ssg83
g1927
sg76
(lp1939
S':'
asbag69
(g90
g71
NtRp1940
(dp1941
g74
(dp1942
sg83
g1927
sg76
(lp1943
g69
(g70
g71
NtRp1944
(dp1945
g74
(dp1946
g82
I5
ssg83
g1940
sg76
(lp1947
g69
(g78
g71
NtRp1948
(dp1949
g74
(dp1950
g82
I4
ssg83
Nsg76
(lp1951
sbasbasbasbag69
(g85
g71
NtRp1952
(dp1953
g74
(dp1954
sg83
g79
sg76
(lp1955
g69
(g90
g71
NtRp1956
(dp1957
g74
(dp1958
g94
g95
ssg83
g1952
sg76
(lp1959
S'global_settings'
p1960
asbag69
(g90
g71
NtRp1961
(dp1962
g74
(dp1963
g101
g102
ssg83
g1952
sg76
(lp1964
S':'
asbag69
(g90
g71
NtRp1965
(dp1966
g74
(dp1967
sg83
g1952
sg76
(lp1968
g69
(g70
g71
NtRp1969
(dp1970
g74
(dp1971
g82
I5
ssg83
g1965
sg76
(lp1972
g69
(g78
g71
NtRp1973
(dp1974
g74
(dp1975
g82
I4
ssg83
Nsg76
(lp1976
g69
(g85
g71
NtRp1977
(dp1978
g74
(dp1979
sg83
g1973
sg76
(lp1980
g69
(g90
g71
NtRp1981
(dp1982
g74
(dp1983
g94
g95
ssg83
g1977
sg76
(lp1984
g861
asbag69
(g90
g71
NtRp1985
(dp1986
g74
(dp1987
g101
g102
ssg83
g1977
sg76
(lp1988
S':'
asbag69
(g90
g71
NtRp1989
(dp1990
g74
(dp1991
sg83
g1977
sg76
(lp1992
g69
(g70
g71
NtRp1993
(dp1994
g74
(dp1995
g82
I4
ssg83
g1989
sg76
(lp1996
S"set(['c:\\\\Users\\\\rochacbruno\\\\jul12\\\\cursojulho12\\\\web2py\\\\applications\\\\ecommerce\\\\', 'c:\\\\Users\\\\rochacbruno\\\\jul12\\\\cursojulho12\\\\web2py\\\\applications\\\\admin\\\\'])"
p1997
asbasbasbag69
(g85
g71
NtRp1998
(dp1999
g74
(dp2000
sg83
g1973
sg76
(lp2001
g69
(g90
g71
NtRp2002
(dp2003
g74
(dp2004
g94
g95
ssg83
g1998
sg76
(lp2005
g883
asbag69
(g90
g71
NtRp2006
(dp2007
g74
(dp2008
g101
g102
ssg83
g1998
sg76
(lp2009
S':'
asbag69
(g90
g71
NtRp2010
(dp2011
g74
(dp2012
sg83
g1998
sg76
(lp2013
g69
(g70
g71
NtRp2014
(dp2015
g74
(dp2016
g82
I4
ssg83
g2010
sg76
(lp2017
g896
asbasbasbag69
(g85
g71
NtRp2018
(dp2019
g74
(dp2020
sg83
g1973
sg76
(lp2021
g69
(g90
g71
NtRp2022
(dp2023
g74
(dp2024
g94
g95
ssg83
g2018
sg76
(lp2025
g905
asbag69
(g90
g71
NtRp2026
(dp2027
g74
(dp2028
g101
g102
ssg83
g2018
sg76
(lp2029
S':'
asbag69
(g90
g71
NtRp2030
(dp2031
g74
(dp2032
sg83
g2018
sg76
(lp2033
g69
(g70
g71
NtRp2034
(dp2035
g74
(dp2036
g82
I4
ssg83
g2030
sg76
(lp2037
g69
(g78
g71
NtRp2038
(dp2039
g74
(dp2040
g82
I3
ssg83
Nsg76
(lp2041
sbasbasbasbag69
(g85
g71
NtRp2042
(dp2043
g74
(dp2044
sg83
g1973
sg76
(lp2045
g69
(g90
g71
NtRp2046
(dp2047
g74
(dp2048
g94
g95
ssg83
g2042
sg76
(lp2049
g930
asbag69
(g90
g71
NtRp2050
(dp2051
g74
(dp2052
g101
g102
ssg83
g2042
sg76
(lp2053
S':'
asbag69
(g90
g71
NtRp2054
(dp2055
g74
(dp2056
sg83
g2042
sg76
(lp2057
g69
(g70
g71
NtRp2058
(dp2059
g74
(dp2060
g82
I4
ssg83
g2054
sg76
(lp2061
S"<Values at 0x278b8c8: {'verbose': False, 'ip': '127.0.0.1', 'with_scheduler': False, 'ips': ['192.168.1.100'], 'shutdown_timeout': 5, 'taskbar': False, 'port': 8000, 'maxthreads': None, 'softcron': False, 'server_name': 'rochacbruno-HP', 'bpython': False, 'nogui': False, 'nocron': False, 'extcron': False, 'run_system_tests': False, 'test': None, 'folder': 'c:\\\\Users\\\\rochacbruno\\\\jul12\\\\cursojulho12\\\\web2py', 'config': '', 'import_models': False, 'winservice': '', 'shell': None, 'run': '', 'log_filename': 'httpserver.log', 'debuglevel': 30, 'args': [''], 'socket_timeout': 5, 'ssl_ca_certificate': None, 'scheduler': None, 'profiler_filename': None, 'ssl_private_key': '', 'password': '1234', 'request_queue_size': 5, 'ssl_certificate': '', 'cronjob': False, 'numthreads': None, 'quiet': False, 'interfaces': None, 'minthreads': None, 'timeout': 10, 'plain': False, 'nobanner': False, 'pid_filename': 'httpserver.pid'}>"
p2062
asbasbasbag69
(g85
g71
NtRp2063
(dp2064
g74
(dp2065
sg83
g1973
sg76
(lp2066
g69
(g90
g71
NtRp2067
(dp2068
g74
(dp2069
g94
g95
ssg83
g2063
sg76
(lp2070
g996
asbag69
(g90
g71
NtRp2071
(dp2072
g74
(dp2073
g101
g102
ssg83
g2063
sg76
(lp2074
S':'
asbag69
(g90
g71
NtRp2075
(dp2076
g74
(dp2077
sg83
g2063
sg76
(lp2078
g69
(g70
g71
NtRp2079
(dp2080
g74
(dp2081
g82
I4
ssg83
g2075
sg76
(lp2082
S'set([])'
p2083
asbasbasbag69
(g85
g71
NtRp2084
(dp2085
g74
(dp2086
sg83
g1973
sg76
(lp2087
g69
(g90
g71
NtRp2088
(dp2089
g74
(dp2090
g94
g95
ssg83
g2084
sg76
(lp2091
g1018
asbag69
(g90
g71
NtRp2092
(dp2093
g74
(dp2094
g101
g102
ssg83
g2084
sg76
(lp2095
S':'
asbag69
(g90
g71
NtRp2096
(dp2097
g74
(dp2098
sg83
g2084
sg76
(lp2099
g69
(g70
g71
NtRp2100
(dp2101
g74
(dp2102
g82
I4
ssg83
g2096
sg76
(lp2103
g112
asbasbasbag69
(g85
g71
NtRp2104
(dp2105
g74
(dp2106
sg83
g1973
sg76
(lp2107
g69
(g90
g71
NtRp2108
(dp2109
g74
(dp2110
g94
g95
ssg83
g2104
sg76
(lp2111
g1039
asbag69
(g90
g71
NtRp2112
(dp2113
g74
(dp2114
g101
g102
ssg83
g2104
sg76
(lp2115
S':'
asbag69
(g90
g71
NtRp2116
(dp2117
g74
(dp2118
sg83
g2104
sg76
(lp2119
g69
(g70
g71
NtRp2120
(dp2121
g74
(dp2122
g82
I4
ssg83
g2116
sg76
(lp2123
g1052
asbasbasbag69
(g85
g71
NtRp2124
(dp2125
g74
(dp2126
sg83
g1973
sg76
(lp2127
g69
(g90
g71
NtRp2128
(dp2129
g74
(dp2130
g94
g95
ssg83
g2124
sg76
(lp2131
g1279
asbag69
(g90
g71
NtRp2132
(dp2133
g74
(dp2134
g101
g102
ssg83
g2124
sg76
(lp2135
S':'
asbag69
(g90
g71
NtRp2136
(dp2137
g74
(dp2138
sg83
g2124
sg76
(lp2139
g69
(g70
g71
NtRp2140
(dp2141
g74
(dp2142
g82
I4
ssg83
g2136
sg76
(lp2143
g112
asbasbasbag69
(g85
g71
NtRp2144
(dp2145
g74
(dp2146
sg83
g1973
sg76
(lp2147
g69
(g90
g71
NtRp2148
(dp2149
g74
(dp2150
g94
g95
ssg83
g2144
sg76
(lp2151
g1300
asbag69
(g90
g71
NtRp2152
(dp2153
g74
(dp2154
g101
g102
ssg83
g2144
sg76
(lp2155
S':'
asbag69
(g90
g71
NtRp2156
(dp2157
g74
(dp2158
sg83
g2144
sg76
(lp2159
g69
(g70
g71
NtRp2160
(dp2161
g74
(dp2162
g82
I4
ssg83
g2156
sg76
(lp2163
g112
asbasbasbag69
(g85
g71
NtRp2164
(dp2165
g74
(dp2166
sg83
g1973
sg76
(lp2167
g69
(g90
g71
NtRp2168
(dp2169
g74
(dp2170
g94
g95
ssg83
g2164
sg76
(lp2171
g1538
asbag69
(g90
g71
NtRp2172
(dp2173
g74
(dp2174
g101
g102
ssg83
g2164
sg76
(lp2175
S':'
asbag69
(g90
g71
NtRp2176
(dp2177
g74
(dp2178
sg83
g2164
sg76
(lp2179
g69
(g70
g71
NtRp2180
(dp2181
g74
(dp2182
g82
I4
ssg83
g2176
sg76
(lp2183
g1551
asbasbasbag69
(g85
g71
NtRp2184
(dp2185
g74
(dp2186
sg83
g1973
sg76
(lp2187
g69
(g90
g71
NtRp2188
(dp2189
g74
(dp2190
g94
g95
ssg83
g2184
sg76
(lp2191
g1581
asbag69
(g90
g71
NtRp2192
(dp2193
g74
(dp2194
g101
g102
ssg83
g2184
sg76
(lp2195
S':'
asbag69
(g90
g71
NtRp2196
(dp2197
g74
(dp2198
sg83
g2184
sg76
(lp2199
g69
(g70
g71
NtRp2200
(dp2201
g74
(dp2202
g82
I4
ssg83
g2196
sg76
(lp2203
g69
(g78
g71
NtRp2204
(dp2205
g74
(dp2206
g82
I3
ssg83
Nsg76
(lp2207
g69
(g85
g71
NtRp2208
(dp2209
g74
(dp2210
sg83
g2204
sg76
(lp2211
g69
(g90
g71
NtRp2212
(dp2213
g74
(dp2214
sg83
g2208
sg76
(lp2215
g69
(g70
g71
NtRp2216
(dp2217
g74
(dp2218
g82
I3
ssg83
g2212
sg76
(lp2219
S'2'
asbasbasbag69
(g85
g71
NtRp2220
(dp2221
g74
(dp2222
sg83
g2204
sg76
(lp2223
g69
(g90
g71
NtRp2224
(dp2225
g74
(dp2226
sg83
g2220
sg76
(lp2227
g69
(g70
g71
NtRp2228
(dp2229
g74
(dp2230
g82
I3
ssg83
g2224
sg76
(lp2231
S'0'
asbasbasbag69
(g85
g71
NtRp2232
(dp2233
g74
(dp2234
sg83
g2204
sg76
(lp2235
g69
(g90
g71
NtRp2236
(dp2237
g74
(dp2238
sg83
g2232
sg76
(lp2239
g69
(g70
g71
NtRp2240
(dp2241
g74
(dp2242
g82
I3
ssg83
g2236
sg76
(lp2243
S'0'
asbasbasbag69
(g85
g71
NtRp2244
(dp2245
g74
(dp2246
sg83
g2204
sg76
(lp2247
g69
(g90
g71
NtRp2248
(dp2249
g74
(dp2250
sg83
g2244
sg76
(lp2251
g69
(g70
g71
NtRp2252
(dp2253
g74
(dp2254
g82
I3
ssg83
g2248
sg76
(lp2255
S'datetime.datetime(2012, 8, 10, 13, 1, 31)'
p2256
asbasbasbag69
(g85
g71
NtRp2257
(dp2258
g74
(dp2259
sg83
g2204
sg76
(lp2260
g69
(g90
g71
NtRp2261
(dp2262
g74
(dp2263
sg83
g2257
sg76
(lp2264
g69
(g70
g71
NtRp2265
(dp2266
g74
(dp2267
g82
I3
ssg83
g2261
sg76
(lp2268
g1659
asbasbasbasbasbasbasbasbasbasbasbag69
(g85
g71
NtRp2269
(dp2270
g74
(dp2271
sg83
g79
sg76
(lp2272
g69
(g90
g71
NtRp2273
(dp2274
g74
(dp2275
g94
g95
ssg83
g2269
sg76
(lp2276
S'is_https'
p2277
asbag69
(g90
g71
NtRp2278
(dp2279
g74
(dp2280
g101
g102
ssg83
g2269
sg76
(lp2281
S':'
asbag69
(g90
g71
NtRp2282
(dp2283
g74
(dp2284
sg83
g2269
sg76
(lp2285
g69
(g70
g71
NtRp2286
(dp2287
g74
(dp2288
g82
I5
ssg83
g2282
sg76
(lp2289
g112
asbasbasbag69
(g85
g71
NtRp2290
(dp2291
g74
(dp2292
sg83
g79
sg76
(lp2293
g69
(g90
g71
NtRp2294
(dp2295
g74
(dp2296
g94
g95
ssg83
g2290
sg76
(lp2297
S'is_local'
p2298
asbag69
(g90
g71
NtRp2299
(dp2300
g74
(dp2301
g101
g102
ssg83
g2290
sg76
(lp2302
S':'
asbag69
(g90
g71
NtRp2303
(dp2304
g74
(dp2305
sg83
g2290
sg76
(lp2306
g69
(g70
g71
NtRp2307
(dp2308
g74
(dp2309
g82
I5
ssg83
g2303
sg76
(lp2310
g1768
asbasbasbag69
(g85
g71
NtRp2311
(dp2312
g74
(dp2313
sg83
g79
sg76
(lp2314
g69
(g90
g71
NtRp2315
(dp2316
g74
(dp2317
g94
g95
ssg83
g2311
sg76
(lp2318
S'is_restful'
p2319
asbag69
(g90
g71
NtRp2320
(dp2321
g74
(dp2322
g101
g102
ssg83
g2311
sg76
(lp2323
S':'
asbag69
(g90
g71
NtRp2324
(dp2325
g74
(dp2326
sg83
g2311
sg76
(lp2327
g69
(g70
g71
NtRp2328
(dp2329
g74
(dp2330
g82
I5
ssg83
g2324
sg76
(lp2331
g112
asbasbasbag69
(g85
g71
NtRp2332
(dp2333
g74
(dp2334
sg83
g79
sg76
(lp2335
g69
(g90
g71
NtRp2336
(dp2337
g74
(dp2338
g94
g95
ssg83
g2332
sg76
(lp2339
S'now'
p2340
asbag69
(g90
g71
NtRp2341
(dp2342
g74
(dp2343
g101
g102
ssg83
g2332
sg76
(lp2344
S':'
asbag69
(g90
g71
NtRp2345
(dp2346
g74
(dp2347
sg83
g2332
sg76
(lp2348
g69
(g70
g71
NtRp2349
(dp2350
g74
(dp2351
g82
I5
ssg83
g2345
sg76
(lp2352
S'datetime.datetime(2012, 8, 19, 11, 24, 46, 715000)'
p2353
asbasbasbag69
(g85
g71
NtRp2354
(dp2355
g74
(dp2356
sg83
g79
sg76
(lp2357
g69
(g90
g71
NtRp2358
(dp2359
g74
(dp2360
g94
g95
ssg83
g2354
sg76
(lp2361
S'post_vars'
p2362
asbag69
(g90
g71
NtRp2363
(dp2364
g74
(dp2365
g101
g102
ssg83
g2354
sg76
(lp2366
S':'
asbag69
(g90
g71
NtRp2367
(dp2368
g74
(dp2369
sg83
g2354
sg76
(lp2370
g69
(g70
g71
NtRp2371
(dp2372
g74
(dp2373
g82
I5
ssg83
g2367
sg76
(lp2374
g69
(g78
g71
NtRp2375
(dp2376
g74
(dp2377
g82
I4
ssg83
Nsg76
(lp2378
g69
(g85
g71
NtRp2379
(dp2380
g74
(dp2381
sg83
g2375
sg76
(lp2382
g69
(g90
g71
NtRp2383
(dp2384
g74
(dp2385
g94
g95
ssg83
g2379
sg76
(lp2386
S'barcode'
p2387
asbag69
(g90
g71
NtRp2388
(dp2389
g74
(dp2390
g101
g102
ssg83
g2379
sg76
(lp2391
S':'
asbag69
(g90
g71
NtRp2392
(dp2393
g74
(dp2394
sg83
g2379
sg76
(lp2395
g69
(g70
g71
NtRp2396
(dp2397
g74
(dp2398
g82
I4
ssg83
g2392
sg76
(lp2399
S'9871234545'
p2400
asbasbasbag69
(g85
g71
NtRp2401
(dp2402
g74
(dp2403
sg83
g2375
sg76
(lp2404
g69
(g90
g71
NtRp2405
(dp2406
g74
(dp2407
g94
g95
ssg83
g2401
sg76
(lp2408
S'category'
p2409
asbag69
(g90
g71
NtRp2410
(dp2411
g74
(dp2412
g101
g102
ssg83
g2401
sg76
(lp2413
S':'
asbag69
(g90
g71
NtRp2414
(dp2415
g74
(dp2416
sg83
g2401
sg76
(lp2417
g69
(g70
g71
NtRp2418
(dp2419
g74
(dp2420
g82
I4
ssg83
g2414
sg76
(lp2421
S'1'
asbasbasbag69
(g85
g71
NtRp2422
(dp2423
g74
(dp2424
sg83
g2375
sg76
(lp2425
g69
(g90
g71
NtRp2426
(dp2427
g74
(dp2428
g94
g95
ssg83
g2422
sg76
(lp2429
S'description'
p2430
asbag69
(g90
g71
NtRp2431
(dp2432
g74
(dp2433
g101
g102
ssg83
g2422
sg76
(lp2434
S':'
asbag69
(g90
g71
NtRp2435
(dp2436
g74
(dp2437
sg83
g2422
sg76
(lp2438
g69
(g70
g71
NtRp2439
(dp2440
g74
(dp2441
g82
I4
ssg83
g2435
sg76
(lp2442
S'<p>\r\n\t<strong>Produto </strong></p>\r\n<p>\r\n\t&nbsp;</p>\r\n<table border="1" cellpadding="1" cellspacing="1" style="width: 500px;">\r\n\t<tbody>\r\n\t\t<tr>\r\n\t\t\t<td>\r\n\t\t\t\t&nbsp;</td>\r\n\t\t\t<td>\r\n\t\t\t\t&nbsp;</td>\r\n\t\t</tr>\r\n\t\t<tr>\r\n\t\t\t<td>\r\n\t\t\t\t&nbsp;</td>\r\n\t\t\t<td>\r\n\t\t\t\t&nbsp;</td>\r\n\t\t</tr>\r\n\t\t<tr>\r\n\t\t\t<td>\r\n\t\t\t\t&nbsp;</td>\r\n\t\t\t<td>\r\n\t\t\t\t&nbsp;</td>\r\n\t\t</tr>\r\n\t</tbody>\r\n</table>\r\n<p>\r\n\t&nbsp;</p>\r\n'
p2443
asbasbasbag69
(g85
g71
NtRp2444
(dp2445
g74
(dp2446
sg83
g2375
sg76
(lp2447
g69
(g90
g71
NtRp2448
(dp2449
g74
(dp2450
g94
g95
ssg83
g2444
sg76
(lp2451
S'id'
p2452
asbag69
(g90
g71
NtRp2453
(dp2454
g74
(dp2455
g101
g102
ssg83
g2444
sg76
(lp2456
S':'
asbag69
(g90
g71
NtRp2457
(dp2458
g74
(dp2459
sg83
g2444
sg76
(lp2460
g69
(g70
g71
NtRp2461
(dp2462
g74
(dp2463
g82
I4
ssg83
g2457
sg76
(lp2464
g69
(g78
g71
NtRp2465
(dp2466
g74
(dp2467
g82
I3
ssg83
Nsg76
(lp2468
g69
(g85
g71
NtRp2469
(dp2470
g74
(dp2471
sg83
g2465
sg76
(lp2472
g69
(g90
g71
NtRp2473
(dp2474
g74
(dp2475
sg83
g2469
sg76
(lp2476
g69
(g70
g71
NtRp2477
(dp2478
g74
(dp2479
g82
I3
ssg83
g2473
sg76
(lp2480
S"['11', '11']"
p2481
asbasbasbag69
(g85
g71
NtRp2482
(dp2483
g74
(dp2484
sg83
g2465
sg76
(lp2485
g69
(g90
g71
NtRp2486
(dp2487
g74
(dp2488
sg83
g2482
sg76
(lp2489
g69
(g70
g71
NtRp2490
(dp2491
g74
(dp2492
g82
I3
ssg83
g2486
sg76
(lp2493
S'11'
p2494
asbasbasbasbasbasbasbag69
(g85
g71
NtRp2495
(dp2496
g74
(dp2497
sg83
g2375
sg76
(lp2498
g69
(g90
g71
NtRp2499
(dp2500
g74
(dp2501
g94
g95
ssg83
g2495
sg76
(lp2502
S'name'
p2503
asbag69
(g90
g71
NtRp2504
(dp2505
g74
(dp2506
g101
g102
ssg83
g2495
sg76
(lp2507
S':'
asbag69
(g90
g71
NtRp2508
(dp2509
g74
(dp2510
sg83
g2495
sg76
(lp2511
g69
(g70
g71
NtRp2512
(dp2513
g74
(dp2514
g82
I4
ssg83
g2508
sg76
(lp2515
S'NOTEBOOK dgdfgdfgf'
p2516
asbasbasbag69
(g85
g71
NtRp2517
(dp2518
g74
(dp2519
sg83
g2375
sg76
(lp2520
g69
(g90
g71
NtRp2521
(dp2522
g74
(dp2523
g94
g95
ssg83
g2517
sg76
(lp2524
S'origin'
p2525
asbag69
(g90
g71
NtRp2526
(dp2527
g74
(dp2528
g101
g102
ssg83
g2517
sg76
(lp2529
S':'
asbag69
(g90
g71
NtRp2530
(dp2531
g74
(dp2532
sg83
g2517
sg76
(lp2533
g69
(g70
g71
NtRp2534
(dp2535
g74
(dp2536
g82
I4
ssg83
g2530
sg76
(lp2537
S'EUA'
p2538
asbasbasbag69
(g85
g71
NtRp2539
(dp2540
g74
(dp2541
sg83
g2375
sg76
(lp2542
g69
(g90
g71
NtRp2543
(dp2544
g74
(dp2545
g94
g95
ssg83
g2539
sg76
(lp2546
S'picture'
p2547
asbag69
(g90
g71
NtRp2548
(dp2549
g74
(dp2550
g101
g102
ssg83
g2539
sg76
(lp2551
S':'
asbag69
(g90
g71
NtRp2552
(dp2553
g74
(dp2554
sg83
g2539
sg76
(lp2555
g69
(g70
g71
NtRp2556
(dp2557
g74
(dp2558
g82
I4
ssg83
g2552
sg76
(lp2559
S''
asbasbasbag69
(g85
g71
NtRp2560
(dp2561
g74
(dp2562
sg83
g2375
sg76
(lp2563
g69
(g90
g71
NtRp2564
(dp2565
g74
(dp2566
g94
g95
ssg83
g2560
sg76
(lp2567
S'qtd'
p2568
asbag69
(g90
g71
NtRp2569
(dp2570
g74
(dp2571
g101
g102
ssg83
g2560
sg76
(lp2572
S':'
asbag69
(g90
g71
NtRp2573
(dp2574
g74
(dp2575
sg83
g2560
sg76
(lp2576
g69
(g70
g71
NtRp2577
(dp2578
g74
(dp2579
g82
I4
ssg83
g2573
sg76
(lp2580
S'10'
p2581
asbasbasbag69
(g85
g71
NtRp2582
(dp2583
g74
(dp2584
sg83
g2375
sg76
(lp2585
g69
(g90
g71
NtRp2586
(dp2587
g74
(dp2588
g94
g95
ssg83
g2582
sg76
(lp2589
S'unit_price'
p2590
asbag69
(g90
g71
NtRp2591
(dp2592
g74
(dp2593
g101
g102
ssg83
g2582
sg76
(lp2594
S':'
asbag69
(g90
g71
NtRp2595
(dp2596
g74
(dp2597
sg83
g2582
sg76
(lp2598
g69
(g70
g71
NtRp2599
(dp2600
g74
(dp2601
g82
I4
ssg83
g2595
sg76
(lp2602
S'120.00'
p2603
asbasbasbasbasbasbasbag69
(g85
g71
NtRp2604
(dp2605
g74
(dp2606
sg83
g79
sg76
(lp2607
g69
(g90
g71
NtRp2608
(dp2609
g74
(dp2610
g94
g95
ssg83
g2604
sg76
(lp2611
S'raw_args'
p2612
asbag69
(g90
g71
NtRp2613
(dp2614
g74
(dp2615
g101
g102
ssg83
g2604
sg76
(lp2616
S':'
asbag69
(g90
g71
NtRp2617
(dp2618
g74
(dp2619
sg83
g2604
sg76
(lp2620
g69
(g70
g71
NtRp2621
(dp2622
g74
(dp2623
g82
I5
ssg83
g2617
sg76
(lp2624
g171
asbasbasbag69
(g85
g71
NtRp2625
(dp2626
g74
(dp2627
sg83
g79
sg76
(lp2628
g69
(g90
g71
NtRp2629
(dp2630
g74
(dp2631
g94
g95
ssg83
g2625
sg76
(lp2632
S'url'
p2633
asbag69
(g90
g71
NtRp2634
(dp2635
g74
(dp2636
g101
g102
ssg83
g2625
sg76
(lp2637
S':'
asbag69
(g90
g71
NtRp2638
(dp2639
g74
(dp2640
sg83
g2625
sg76
(lp2641
g69
(g70
g71
NtRp2642
(dp2643
g74
(dp2644
g82
I5
ssg83
g2638
sg76
(lp2645
S'/ecommerce/product/edit/11'
p2646
asbasbasbag69
(g85
g71
NtRp2647
(dp2648
g74
(dp2649
sg83
g79
sg76
(lp2650
g69
(g90
g71
NtRp2651
(dp2652
g74
(dp2653
g94
g95
ssg83
g2647
sg76
(lp2654
S'utcnow'
p2655
asbag69
(g90
g71
NtRp2656
(dp2657
g74
(dp2658
g101
g102
ssg83
g2647
sg76
(lp2659
S':'
asbag69
(g90
g71
NtRp2660
(dp2661
g74
(dp2662
sg83
g2647
sg76
(lp2663
g69
(g70
g71
NtRp2664
(dp2665
g74
(dp2666
g82
I5
ssg83
g2660
sg76
(lp2667
S'datetime.datetime(2012, 8, 19, 14, 24, 46, 715000)'
p2668
asbasbasbag69
(g85
g71
NtRp2669
(dp2670
g74
(dp2671
sg83
g79
sg76
(lp2672
g69
(g90
g71
NtRp2673
(dp2674
g74
(dp2675
g94
g95
ssg83
g2669
sg76
(lp2676
S'uuid'
p2677
asbag69
(g90
g71
NtRp2678
(dp2679
g74
(dp2680
g101
g102
ssg83
g2669
sg76
(lp2681
S':'
asbag69
(g90
g71
NtRp2682
(dp2683
g74
(dp2684
sg83
g2669
sg76
(lp2685
g69
(g70
g71
NtRp2686
(dp2687
g74
(dp2688
g82
I5
ssg83
g2682
sg76
(lp2689
S'ecommerce/127.0.0.1.2012-08-19.11-24-46.b37919cc-f8f3-4995-b0d7-48f85e3dd3c3'
p2690
asbasbasbag69
(g85
g71
NtRp2691
(dp2692
g74
(dp2693
sg83
g79
sg76
(lp2694
g69
(g90
g71
NtRp2695
(dp2696
g74
(dp2697
g94
g95
ssg83
g2691
sg76
(lp2698
S'vars'
p2699
asbag69
(g90
g71
NtRp2700
(dp2701
g74
(dp2702
g101
g102
ssg83
g2691
sg76
(lp2703
S':'
asbag69
(g90
g71
NtRp2704
(dp2705
g74
(dp2706
sg83
g2691
sg76
(lp2707
g69
(g70
g71
NtRp2708
(dp2709
g74
(dp2710
g82
I5
ssg83
g2704
sg76
(lp2711
g69
(g78
g71
NtRp2712
(dp2713
g74
(dp2714
g82
I4
ssg83
Nsg76
(lp2715
g69
(g85
g71
NtRp2716
(dp2717
g74
(dp2718
sg83
g2712
sg76
(lp2719
g69
(g90
g71
NtRp2720
(dp2721
g74
(dp2722
g94
g95
ssg83
g2716
sg76
(lp2723
g2387
asbag69
(g90
g71
NtRp2724
(dp2725
g74
(dp2726
g101
g102
ssg83
g2716
sg76
(lp2727
S':'
asbag69
(g90
g71
NtRp2728
(dp2729
g74
(dp2730
sg83
g2716
sg76
(lp2731
g69
(g70
g71
NtRp2732
(dp2733
g74
(dp2734
g82
I4
ssg83
g2728
sg76
(lp2735
g2400
asbasbasbag69
(g85
g71
NtRp2736
(dp2737
g74
(dp2738
sg83
g2712
sg76
(lp2739
g69
(g90
g71
NtRp2740
(dp2741
g74
(dp2742
g94
g95
ssg83
g2736
sg76
(lp2743
g2409
asbag69
(g90
g71
NtRp2744
(dp2745
g74
(dp2746
g101
g102
ssg83
g2736
sg76
(lp2747
S':'
asbag69
(g90
g71
NtRp2748
(dp2749
g74
(dp2750
sg83
g2736
sg76
(lp2751
g69
(g70
g71
NtRp2752
(dp2753
g74
(dp2754
g82
I4
ssg83
g2748
sg76
(lp2755
S'1'
asbasbasbag69
(g85
g71
NtRp2756
(dp2757
g74
(dp2758
sg83
g2712
sg76
(lp2759
g69
(g90
g71
NtRp2760
(dp2761
g74
(dp2762
g94
g95
ssg83
g2756
sg76
(lp2763
g2430
asbag69
(g90
g71
NtRp2764
(dp2765
g74
(dp2766
g101
g102
ssg83
g2756
sg76
(lp2767
S':'
asbag69
(g90
g71
NtRp2768
(dp2769
g74
(dp2770
sg83
g2756
sg76
(lp2771
g69
(g70
g71
NtRp2772
(dp2773
g74
(dp2774
g82
I4
ssg83
g2768
sg76
(lp2775
g2443
asbasbasbag69
(g85
g71
NtRp2776
(dp2777
g74
(dp2778
sg83
g2712
sg76
(lp2779
g69
(g90
g71
NtRp2780
(dp2781
g74
(dp2782
g94
g95
ssg83
g2776
sg76
(lp2783
g2452
asbag69
(g90
g71
NtRp2784
(dp2785
g74
(dp2786
g101
g102
ssg83
g2776
sg76
(lp2787
S':'
asbag69
(g90
g71
NtRp2788
(dp2789
g74
(dp2790
sg83
g2776
sg76
(lp2791
g69
(g70
g71
NtRp2792
(dp2793
g74
(dp2794
g82
I4
ssg83
g2788
sg76
(lp2795
g69
(g78
g71
NtRp2796
(dp2797
g74
(dp2798
g82
I3
ssg83
Nsg76
(lp2799
g69
(g85
g71
NtRp2800
(dp2801
g74
(dp2802
sg83
g2796
sg76
(lp2803
g69
(g90
g71
NtRp2804
(dp2805
g74
(dp2806
sg83
g2800
sg76
(lp2807
g69
(g70
g71
NtRp2808
(dp2809
g74
(dp2810
g82
I3
ssg83
g2804
sg76
(lp2811
g2481
asbasbasbag69
(g85
g71
NtRp2812
(dp2813
g74
(dp2814
sg83
g2796
sg76
(lp2815
g69
(g90
g71
NtRp2816
(dp2817
g74
(dp2818
sg83
g2812
sg76
(lp2819
g69
(g70
g71
NtRp2820
(dp2821
g74
(dp2822
g82
I3
ssg83
g2816
sg76
(lp2823
g2494
asbasbasbasbasbasbasbag69
(g85
g71
NtRp2824
(dp2825
g74
(dp2826
sg83
g2712
sg76
(lp2827
g69
(g90
g71
NtRp2828
(dp2829
g74
(dp2830
g94
g95
ssg83
g2824
sg76
(lp2831
g2503
asbag69
(g90
g71
NtRp2832
(dp2833
g74
(dp2834
g101
g102
ssg83
g2824
sg76
(lp2835
S':'
asbag69
(g90
g71
NtRp2836
(dp2837
g74
(dp2838
sg83
g2824
sg76
(lp2839
g69
(g70
g71
NtRp2840
(dp2841
g74
(dp2842
g82
I4
ssg83
g2836
sg76
(lp2843
g2516
asbasbasbag69
(g85
g71
NtRp2844
(dp2845
g74
(dp2846
sg83
g2712
sg76
(lp2847
g69
(g90
g71
NtRp2848
(dp2849
g74
(dp2850
g94
g95
ssg83
g2844
sg76
(lp2851
g2525
asbag69
(g90
g71
NtRp2852
(dp2853
g74
(dp2854
g101
g102
ssg83
g2844
sg76
(lp2855
S':'
asbag69
(g90
g71
NtRp2856
(dp2857
g74
(dp2858
sg83
g2844
sg76
(lp2859
g69
(g70
g71
NtRp2860
(dp2861
g74
(dp2862
g82
I4
ssg83
g2856
sg76
(lp2863
g2538
asbasbasbag69
(g85
g71
NtRp2864
(dp2865
g74
(dp2866
sg83
g2712
sg76
(lp2867
g69
(g90
g71
NtRp2868
(dp2869
g74
(dp2870
g94
g95
ssg83
g2864
sg76
(lp2871
g2547
asbag69
(g90
g71
NtRp2872
(dp2873
g74
(dp2874
g101
g102
ssg83
g2864
sg76
(lp2875
S':'
asbag69
(g90
g71
NtRp2876
(dp2877
g74
(dp2878
sg83
g2864
sg76
(lp2879
g69
(g70
g71
NtRp2880
(dp2881
g74
(dp2882
g82
I4
ssg83
g2876
sg76
(lp2883
S''
asbasbasbag69
(g85
g71
NtRp2884
(dp2885
g74
(dp2886
sg83
g2712
sg76
(lp2887
g69
(g90
g71
NtRp2888
(dp2889
g74
(dp2890
g94
g95
ssg83
g2884
sg76
(lp2891
g2568
asbag69
(g90
g71
NtRp2892
(dp2893
g74
(dp2894
g101
g102
ssg83
g2884
sg76
(lp2895
S':'
asbag69
(g90
g71
NtRp2896
(dp2897
g74
(dp2898
sg83
g2884
sg76
(lp2899
g69
(g70
g71
NtRp2900
(dp2901
g74
(dp2902
g82
I4
ssg83
g2896
sg76
(lp2903
g2581
asbasbasbag69
(g85
g71
NtRp2904
(dp2905
g74
(dp2906
sg83
g2712
sg76
(lp2907
g69
(g90
g71
NtRp2908
(dp2909
g74
(dp2910
g94
g95
ssg83
g2904
sg76
(lp2911
g2590
asbag69
(g90
g71
NtRp2912
(dp2913
g74
(dp2914
g101
g102
ssg83
g2904
sg76
(lp2915
S':'
asbag69
(g90
g71
NtRp2916
(dp2917
g74
(dp2918
sg83
g2904
sg76
(lp2919
g69
(g70
g71
NtRp2920
(dp2921
g74
(dp2922
g82
I4
ssg83
g2916
sg76
(lp2923
g2603
asbasbasbasbasbasbasbag69
(g85
g71
NtRp2924
(dp2925
g74
(dp2926
sg83
g79
sg76
(lp2927
g69
(g90
g71
NtRp2928
(dp2929
g74
(dp2930
g94
g95
ssg83
g2924
sg76
(lp2931
S'wsgi'
p2932
asbag69
(g90
g71
NtRp2933
(dp2934
g74
(dp2935
g101
g102
ssg83
g2924
sg76
(lp2936
S':'
asbag69
(g90
g71
NtRp2937
(dp2938
g74
(dp2939
sg83
g2924
sg76
(lp2940
g69
(g70
g71
NtRp2941
(dp2942
g74
(dp2943
g82
I5
ssg83
g2937
sg76
(lp2944
g69
(g78
g71
NtRp2945
(dp2946
g74
(dp2947
g82
I4
ssg83
Nsg76
(lp2948
g69
(g85
g71
NtRp2949
(dp2950
g74
(dp2951
sg83
g2945
sg76
(lp2952
g69
(g90
g71
NtRp2953
(dp2954
g74
(dp2955
g94
g95
ssg83
g2949
sg76
(lp2956
S'environ'
p2957
asbag69
(g90
g71
NtRp2958
(dp2959
g74
(dp2960
g101
g102
ssg83
g2949
sg76
(lp2961
S':'
asbag69
(g90
g71
NtRp2962
(dp2963
g74
(dp2964
sg83
g2949
sg76
(lp2965
g69
(g70
g71
NtRp2966
(dp2967
g74
(dp2968
g82
I4
ssg83
g2962
sg76
(lp2969
g69
(g78
g71
NtRp2970
(dp2971
g74
(dp2972
g82
I3
ssg83
Nsg76
(lp2973
g69
(g85
g71
NtRp2974
(dp2975
g74
(dp2976
sg83
g2970
sg76
(lp2977
g69
(g90
g71
NtRp2978
(dp2979
g74
(dp2980
g94
g95
ssg83
g2974
sg76
(lp2981
S'CONTENT_LENGTH'
p2982
asbag69
(g90
g71
NtRp2983
(dp2984
g74
(dp2985
g101
g102
ssg83
g2974
sg76
(lp2986
S':'
asbag69
(g90
g71
NtRp2987
(dp2988
g74
(dp2989
sg83
g2974
sg76
(lp2990
g69
(g70
g71
NtRp2991
(dp2992
g74
(dp2993
g82
I3
ssg83
g2987
sg76
(lp2994
g965
asbasbasbag69
(g85
g71
NtRp2995
(dp2996
g74
(dp2997
sg83
g2970
sg76
(lp2998
g69
(g90
g71
NtRp2999
(dp3000
g74
(dp3001
g94
g95
ssg83
g2995
sg76
(lp3002
S'CONTENT_TYPE'
p3003
asbag69
(g90
g71
NtRp3004
(dp3005
g74
(dp3006
g101
g102
ssg83
g2995
sg76
(lp3007
S':'
asbag69
(g90
g71
NtRp3008
(dp3009
g74
(dp3010
sg83
g2995
sg76
(lp3011
g69
(g70
g71
NtRp3012
(dp3013
g74
(dp3014
g82
I3
ssg83
g3008
sg76
(lp3015
g987
asbasbasbag69
(g85
g71
NtRp3016
(dp3017
g74
(dp3018
sg83
g2970
sg76
(lp3019
g69
(g90
g71
NtRp3020
(dp3021
g74
(dp3022
g94
g95
ssg83
g3016
sg76
(lp3023
S'HTTP_ACCEPT'
p3024
asbag69
(g90
g71
NtRp3025
(dp3026
g74
(dp3027
g101
g102
ssg83
g3016
sg76
(lp3028
S':'
asbag69
(g90
g71
NtRp3029
(dp3030
g74
(dp3031
sg83
g3016
sg76
(lp3032
g69
(g70
g71
NtRp3033
(dp3034
g74
(dp3035
g82
I3
ssg83
g3029
sg76
(lp3036
g1074
asbasbasbag69
(g85
g71
NtRp3037
(dp3038
g74
(dp3039
sg83
g2970
sg76
(lp3040
g69
(g90
g71
NtRp3041
(dp3042
g74
(dp3043
g94
g95
ssg83
g3037
sg76
(lp3044
S'HTTP_ACCEPT_ENCODING'
p3045
asbag69
(g90
g71
NtRp3046
(dp3047
g74
(dp3048
g101
g102
ssg83
g3037
sg76
(lp3049
S':'
asbag69
(g90
g71
NtRp3050
(dp3051
g74
(dp3052
sg83
g3037
sg76
(lp3053
g69
(g70
g71
NtRp3054
(dp3055
g74
(dp3056
g82
I3
ssg83
g3050
sg76
(lp3057
g1096
asbasbasbag69
(g85
g71
NtRp3058
(dp3059
g74
(dp3060
sg83
g2970
sg76
(lp3061
g69
(g90
g71
NtRp3062
(dp3063
g74
(dp3064
g94
g95
ssg83
g3058
sg76
(lp3065
S'HTTP_ACCEPT_LANGUAGE'
p3066
asbag69
(g90
g71
NtRp3067
(dp3068
g74
(dp3069
g101
g102
ssg83
g3058
sg76
(lp3070
S':'
asbag69
(g90
g71
NtRp3071
(dp3072
g74
(dp3073
sg83
g3058
sg76
(lp3074
g69
(g70
g71
NtRp3075
(dp3076
g74
(dp3077
g82
I3
ssg83
g3071
sg76
(lp3078
g1118
asbasbasbag69
(g85
g71
NtRp3079
(dp3080
g74
(dp3081
sg83
g2970
sg76
(lp3082
g69
(g90
g71
NtRp3083
(dp3084
g74
(dp3085
g94
g95
ssg83
g3079
sg76
(lp3086
S'HTTP_CONNECTION'
p3087
asbag69
(g90
g71
NtRp3088
(dp3089
g74
(dp3090
g101
g102
ssg83
g3079
sg76
(lp3091
S':'
asbag69
(g90
g71
NtRp3092
(dp3093
g74
(dp3094
sg83
g3079
sg76
(lp3095
g69
(g70
g71
NtRp3096
(dp3097
g74
(dp3098
g82
I3
ssg83
g3092
sg76
(lp3099
g1140
asbasbasbag69
(g85
g71
NtRp3100
(dp3101
g74
(dp3102
sg83
g2970
sg76
(lp3103
g69
(g90
g71
NtRp3104
(dp3105
g74
(dp3106
g94
g95
ssg83
g3100
sg76
(lp3107
S'HTTP_CONTENT_LENGTH'
p3108
asbag69
(g90
g71
NtRp3109
(dp3110
g74
(dp3111
g101
g102
ssg83
g3100
sg76
(lp3112
S':'
asbag69
(g90
g71
NtRp3113
(dp3114
g74
(dp3115
sg83
g3100
sg76
(lp3116
g69
(g70
g71
NtRp3117
(dp3118
g74
(dp3119
g82
I3
ssg83
g3113
sg76
(lp3120
g965
asbasbasbag69
(g85
g71
NtRp3121
(dp3122
g74
(dp3123
sg83
g2970
sg76
(lp3124
g69
(g90
g71
NtRp3125
(dp3126
g74
(dp3127
g94
g95
ssg83
g3121
sg76
(lp3128
S'HTTP_CONTENT_TYPE'
p3129
asbag69
(g90
g71
NtRp3130
(dp3131
g74
(dp3132
g101
g102
ssg83
g3121
sg76
(lp3133
S':'
asbag69
(g90
g71
NtRp3134
(dp3135
g74
(dp3136
sg83
g3121
sg76
(lp3137
g69
(g70
g71
NtRp3138
(dp3139
g74
(dp3140
g82
I3
ssg83
g3134
sg76
(lp3141
g987
asbasbasbag69
(g85
g71
NtRp3142
(dp3143
g74
(dp3144
sg83
g2970
sg76
(lp3145
g69
(g90
g71
NtRp3146
(dp3147
g74
(dp3148
g94
g95
ssg83
g3142
sg76
(lp3149
S'HTTP_COOKIE'
p3150
asbag69
(g90
g71
NtRp3151
(dp3152
g74
(dp3153
g101
g102
ssg83
g3142
sg76
(lp3154
S':'
asbag69
(g90
g71
NtRp3155
(dp3156
g74
(dp3157
sg83
g3142
sg76
(lp3158
g69
(g70
g71
NtRp3159
(dp3160
g74
(dp3161
g82
I3
ssg83
g3155
sg76
(lp3162
g1204
asbasbasbag69
(g85
g71
NtRp3163
(dp3164
g74
(dp3165
sg83
g2970
sg76
(lp3166
g69
(g90
g71
NtRp3167
(dp3168
g74
(dp3169
g94
g95
ssg83
g3163
sg76
(lp3170
S'HTTP_HOST'
p3171
asbag69
(g90
g71
NtRp3172
(dp3173
g74
(dp3174
g101
g102
ssg83
g3163
sg76
(lp3175
S':'
asbag69
(g90
g71
NtRp3176
(dp3177
g74
(dp3178
sg83
g3163
sg76
(lp3179
g69
(g70
g71
NtRp3180
(dp3181
g74
(dp3182
g82
I3
ssg83
g3176
sg76
(lp3183
g1226
asbasbasbag69
(g85
g71
NtRp3184
(dp3185
g74
(dp3186
sg83
g2970
sg76
(lp3187
g69
(g90
g71
NtRp3188
(dp3189
g74
(dp3190
g94
g95
ssg83
g3184
sg76
(lp3191
S'HTTP_REFERER'
p3192
asbag69
(g90
g71
NtRp3193
(dp3194
g74
(dp3195
g101
g102
ssg83
g3184
sg76
(lp3196
S':'
asbag69
(g90
g71
NtRp3197
(dp3198
g74
(dp3199
sg83
g3184
sg76
(lp3200
g69
(g70
g71
NtRp3201
(dp3202
g74
(dp3203
g82
I3
ssg83
g3197
sg76
(lp3204
g1248
asbasbasbag69
(g85
g71
NtRp3205
(dp3206
g74
(dp3207
sg83
g2970
sg76
(lp3208
g69
(g90
g71
NtRp3209
(dp3210
g74
(dp3211
g94
g95
ssg83
g3205
sg76
(lp3212
S'HTTP_USER_AGENT'
p3213
asbag69
(g90
g71
NtRp3214
(dp3215
g74
(dp3216
g101
g102
ssg83
g3205
sg76
(lp3217
S':'
asbag69
(g90
g71
NtRp3218
(dp3219
g74
(dp3220
sg83
g3205
sg76
(lp3221
g69
(g70
g71
NtRp3222
(dp3223
g74
(dp3224
g82
I3
ssg83
g3218
sg76
(lp3225
g1270
asbasbasbag69
(g85
g71
NtRp3226
(dp3227
g74
(dp3228
sg83
g2970
sg76
(lp3229
g69
(g90
g71
NtRp3230
(dp3231
g74
(dp3232
g94
g95
ssg83
g3226
sg76
(lp3233
S'PATH_INFO'
p3234
asbag69
(g90
g71
NtRp3235
(dp3236
g74
(dp3237
g101
g102
ssg83
g3226
sg76
(lp3238
S':'
asbag69
(g90
g71
NtRp3239
(dp3240
g74
(dp3241
sg83
g3226
sg76
(lp3242
g69
(g70
g71
NtRp3243
(dp3244
g74
(dp3245
g82
I3
ssg83
g3239
sg76
(lp3246
g1334
asbasbasbag69
(g85
g71
NtRp3247
(dp3248
g74
(dp3249
sg83
g2970
sg76
(lp3250
g69
(g90
g71
NtRp3251
(dp3252
g74
(dp3253
g94
g95
ssg83
g3247
sg76
(lp3254
S'QUERY_STRING'
p3255
asbag69
(g90
g71
NtRp3256
(dp3257
g74
(dp3258
g101
g102
ssg83
g3247
sg76
(lp3259
S':'
asbag69
(g90
g71
NtRp3260
(dp3261
g74
(dp3262
sg83
g3247
sg76
(lp3263
g69
(g70
g71
NtRp3264
(dp3265
g74
(dp3266
g82
I3
ssg83
g3260
sg76
(lp3267
S''
asbasbasbag69
(g85
g71
NtRp3268
(dp3269
g74
(dp3270
sg83
g2970
sg76
(lp3271
g69
(g90
g71
NtRp3272
(dp3273
g74
(dp3274
g94
g95
ssg83
g3268
sg76
(lp3275
S'REMOTE_ADDR'
p3276
asbag69
(g90
g71
NtRp3277
(dp3278
g74
(dp3279
g101
g102
ssg83
g3268
sg76
(lp3280
S':'
asbag69
(g90
g71
NtRp3281
(dp3282
g74
(dp3283
sg83
g3268
sg76
(lp3284
g69
(g70
g71
NtRp3285
(dp3286
g74
(dp3287
g82
I3
ssg83
g3281
sg76
(lp3288
g215
asbasbasbag69
(g85
g71
NtRp3289
(dp3290
g74
(dp3291
sg83
g2970
sg76
(lp3292
g69
(g90
g71
NtRp3293
(dp3294
g74
(dp3295
g94
g95
ssg83
g3289
sg76
(lp3296
S'REMOTE_PORT'
p3297
asbag69
(g90
g71
NtRp3298
(dp3299
g74
(dp3300
g101
g102
ssg83
g3289
sg76
(lp3301
S':'
asbag69
(g90
g71
NtRp3302
(dp3303
g74
(dp3304
sg83
g3289
sg76
(lp3305
g69
(g70
g71
NtRp3306
(dp3307
g74
(dp3308
g82
I3
ssg83
g3302
sg76
(lp3309
g1398
asbasbasbag69
(g85
g71
NtRp3310
(dp3311
g74
(dp3312
sg83
g2970
sg76
(lp3313
g69
(g90
g71
NtRp3314
(dp3315
g74
(dp3316
g94
g95
ssg83
g3310
sg76
(lp3317
S'REQUEST_METHOD'
p3318
asbag69
(g90
g71
NtRp3319
(dp3320
g74
(dp3321
g101
g102
ssg83
g3310
sg76
(lp3322
S':'
asbag69
(g90
g71
NtRp3323
(dp3324
g74
(dp3325
sg83
g3310
sg76
(lp3326
g69
(g70
g71
NtRp3327
(dp3328
g74
(dp3329
g82
I3
ssg83
g3323
sg76
(lp3330
g1420
asbasbasbag69
(g85
g71
NtRp3331
(dp3332
g74
(dp3333
sg83
g2970
sg76
(lp3334
g69
(g90
g71
NtRp3335
(dp3336
g74
(dp3337
g94
g95
ssg83
g3331
sg76
(lp3338
S'SCRIPT_NAME'
p3339
asbag69
(g90
g71
NtRp3340
(dp3341
g74
(dp3342
g101
g102
ssg83
g3331
sg76
(lp3343
S':'
asbag69
(g90
g71
NtRp3344
(dp3345
g74
(dp3346
sg83
g3331
sg76
(lp3347
g69
(g70
g71
NtRp3348
(dp3349
g74
(dp3350
g82
I3
ssg83
g3344
sg76
(lp3351
S''
asbasbasbag69
(g85
g71
NtRp3352
(dp3353
g74
(dp3354
sg83
g2970
sg76
(lp3355
g69
(g90
g71
NtRp3356
(dp3357
g74
(dp3358
g94
g95
ssg83
g3352
sg76
(lp3359
S'SERVER_NAME'
p3360
asbag69
(g90
g71
NtRp3361
(dp3362
g74
(dp3363
g101
g102
ssg83
g3352
sg76
(lp3364
S':'
asbag69
(g90
g71
NtRp3365
(dp3366
g74
(dp3367
sg83
g3352
sg76
(lp3368
g69
(g70
g71
NtRp3369
(dp3370
g74
(dp3371
g82
I3
ssg83
g3365
sg76
(lp3372
g1463
asbasbasbag69
(g85
g71
NtRp3373
(dp3374
g74
(dp3375
sg83
g2970
sg76
(lp3376
g69
(g90
g71
NtRp3377
(dp3378
g74
(dp3379
g94
g95
ssg83
g3373
sg76
(lp3380
S'SERVER_PORT'
p3381
asbag69
(g90
g71
NtRp3382
(dp3383
g74
(dp3384
g101
g102
ssg83
g3373
sg76
(lp3385
S':'
asbag69
(g90
g71
NtRp3386
(dp3387
g74
(dp3388
sg83
g3373
sg76
(lp3389
g69
(g70
g71
NtRp3390
(dp3391
g74
(dp3392
g82
I3
ssg83
g3386
sg76
(lp3393
g1485
asbasbasbag69
(g85
g71
NtRp3394
(dp3395
g74
(dp3396
sg83
g2970
sg76
(lp3397
g69
(g90
g71
NtRp3398
(dp3399
g74
(dp3400
g94
g95
ssg83
g3394
sg76
(lp3401
S'SERVER_PROTOCOL'
p3402
asbag69
(g90
g71
NtRp3403
(dp3404
g74
(dp3405
g101
g102
ssg83
g3394
sg76
(lp3406
S':'
asbag69
(g90
g71
NtRp3407
(dp3408
g74
(dp3409
sg83
g3394
sg76
(lp3410
g69
(g70
g71
NtRp3411
(dp3412
g74
(dp3413
g82
I3
ssg83
g3407
sg76
(lp3414
g1507
asbasbasbag69
(g85
g71
NtRp3415
(dp3416
g74
(dp3417
sg83
g2970
sg76
(lp3418
g69
(g90
g71
NtRp3419
(dp3420
g74
(dp3421
g94
g95
ssg83
g3415
sg76
(lp3422
S'SERVER_SOFTWARE'
p3423
asbag69
(g90
g71
NtRp3424
(dp3425
g74
(dp3426
g101
g102
ssg83
g3415
sg76
(lp3427
S':'
asbag69
(g90
g71
NtRp3428
(dp3429
g74
(dp3430
sg83
g3415
sg76
(lp3431
g69
(g70
g71
NtRp3432
(dp3433
g74
(dp3434
g82
I3
ssg83
g3428
sg76
(lp3435
g1529
asbasbasbag69
(g85
g71
NtRp3436
(dp3437
g74
(dp3438
sg83
g2970
sg76
(lp3439
g69
(g90
g71
NtRp3440
(dp3441
g74
(dp3442
g94
g95
ssg83
g3436
sg76
(lp3443
S'wsgi.errors'
p3444
asbag69
(g90
g71
NtRp3445
(dp3446
g74
(dp3447
g101
g102
ssg83
g3436
sg76
(lp3448
S':'
asbag69
(g90
g71
NtRp3449
(dp3450
g74
(dp3451
sg83
g3436
sg76
(lp3452
g69
(g70
g71
NtRp3453
(dp3454
g74
(dp3455
g82
I3
ssg83
g3449
sg76
(lp3456
S"<open file '<stderr>', mode 'w' at 0x013450D0>"
p3457
asbasbasbag69
(g85
g71
NtRp3458
(dp3459
g74
(dp3460
sg83
g2970
sg76
(lp3461
g69
(g90
g71
NtRp3462
(dp3463
g74
(dp3464
g94
g95
ssg83
g3458
sg76
(lp3465
S'wsgi.file_wrapper'
p3466
asbag69
(g90
g71
NtRp3467
(dp3468
g74
(dp3469
g101
g102
ssg83
g3458
sg76
(lp3470
S':'
asbag69
(g90
g71
NtRp3471
(dp3472
g74
(dp3473
sg83
g3458
sg76
(lp3474
g69
(g70
g71
NtRp3475
(dp3476
g74
(dp3477
g82
I3
ssg83
g3471
sg76
(lp3478
S'<class wsgiref.util.FileWrapper at 0x026C43B0>'
p3479
asbasbasbag69
(g85
g71
NtRp3480
(dp3481
g74
(dp3482
sg83
g2970
sg76
(lp3483
g69
(g90
g71
NtRp3484
(dp3485
g74
(dp3486
g94
g95
ssg83
g3480
sg76
(lp3487
S'wsgi.input'
p3488
asbag69
(g90
g71
NtRp3489
(dp3490
g74
(dp3491
g101
g102
ssg83
g3480
sg76
(lp3492
S':'
asbag69
(g90
g71
NtRp3493
(dp3494
g74
(dp3495
sg83
g3480
sg76
(lp3496
g69
(g70
g71
NtRp3497
(dp3498
g74
(dp3499
g82
I3
ssg83
g3493
sg76
(lp3500
S"<open file '<fdopen>', mode 'w+b' at 0x0295B758>"
p3501
asbasbasbag69
(g85
g71
NtRp3502
(dp3503
g74
(dp3504
sg83
g2970
sg76
(lp3505
g69
(g90
g71
NtRp3506
(dp3507
g74
(dp3508
g94
g95
ssg83
g3502
sg76
(lp3509
S'wsgi.multiprocess'
p3510
asbag69
(g90
g71
NtRp3511
(dp3512
g74
(dp3513
g101
g102
ssg83
g3502
sg76
(lp3514
S':'
asbag69
(g90
g71
NtRp3515
(dp3516
g74
(dp3517
sg83
g3502
sg76
(lp3518
g69
(g70
g71
NtRp3519
(dp3520
g74
(dp3521
g82
I3
ssg83
g3515
sg76
(lp3522
g112
asbasbasbag69
(g85
g71
NtRp3523
(dp3524
g74
(dp3525
sg83
g2970
sg76
(lp3526
g69
(g90
g71
NtRp3527
(dp3528
g74
(dp3529
g94
g95
ssg83
g3523
sg76
(lp3530
S'wsgi.multithread'
p3531
asbag69
(g90
g71
NtRp3532
(dp3533
g74
(dp3534
g101
g102
ssg83
g3523
sg76
(lp3535
S':'
asbag69
(g90
g71
NtRp3536
(dp3537
g74
(dp3538
sg83
g3523
sg76
(lp3539
g69
(g70
g71
NtRp3540
(dp3541
g74
(dp3542
g82
I3
ssg83
g3536
sg76
(lp3543
g1768
asbasbasbag69
(g85
g71
NtRp3544
(dp3545
g74
(dp3546
sg83
g2970
sg76
(lp3547
g69
(g90
g71
NtRp3548
(dp3549
g74
(dp3550
g94
g95
ssg83
g3544
sg76
(lp3551
S'wsgi.run_once'
p3552
asbag69
(g90
g71
NtRp3553
(dp3554
g74
(dp3555
g101
g102
ssg83
g3544
sg76
(lp3556
S':'
asbag69
(g90
g71
NtRp3557
(dp3558
g74
(dp3559
sg83
g3544
sg76
(lp3560
g69
(g70
g71
NtRp3561
(dp3562
g74
(dp3563
g82
I3
ssg83
g3557
sg76
(lp3564
g112
asbasbasbag69
(g85
g71
NtRp3565
(dp3566
g74
(dp3567
sg83
g2970
sg76
(lp3568
g69
(g90
g71
NtRp3569
(dp3570
g74
(dp3571
g94
g95
ssg83
g3565
sg76
(lp3572
S'wsgi.url_scheme'
p3573
asbag69
(g90
g71
NtRp3574
(dp3575
g74
(dp3576
g101
g102
ssg83
g3565
sg76
(lp3577
S':'
asbag69
(g90
g71
NtRp3578
(dp3579
g74
(dp3580
sg83
g3565
sg76
(lp3581
g69
(g70
g71
NtRp3582
(dp3583
g74
(dp3584
g82
I3
ssg83
g3578
sg76
(lp3585
g1811
asbasbasbag69
(g85
g71
NtRp3586
(dp3587
g74
(dp3588
sg83
g2970
sg76
(lp3589
g69
(g90
g71
NtRp3590
(dp3591
g74
(dp3592
g94
g95
ssg83
g3586
sg76
(lp3593
S'wsgi.version'
p3594
asbag69
(g90
g71
NtRp3595
(dp3596
g74
(dp3597
g101
g102
ssg83
g3586
sg76
(lp3598
S':'
asbag69
(g90
g71
NtRp3599
(dp3600
g74
(dp3601
sg83
g3586
sg76
(lp3602
g69
(g70
g71
NtRp3603
(dp3604
g74
(dp3605
g82
I3
ssg83
g3599
sg76
(lp3606
S'1'
asbasbasbasbasbasbasbasbasbasbasbasbasbsS'frames'
p3607
(lp3608
(dp3609
S'file'
p3610
S'c:\\Users\\rochacbruno\\jul12\\cursojulho12\\web2py\\gluon\\restricted.py'
p3611
sS'dump'
p3612
(dp3613
S'environment'
p3614
S"{'A': <class 'gluon.html.A'>, 'Auth': <class 'gluon.tools.Auth'>, 'B': <class 'gluon.html.B'>, 'BEAUTIFY': <class 'gluon.html.BEAUTIFY'>, 'BODY': <class 'gluon.html.BODY'>, 'BR': <class 'gluon.html.BR'>, 'BUTTON': <class 'gluon.html.BUTTON'>, 'CAT': <class 'gluon.html.CAT'>, 'CENTER': <class 'gluon.html.CENTER'>, 'CKEditor': <class 'applications.ecommerce.modules.plugin_ckeditor.CKEditor'>, ...}"
p3615
sS'ccode'
p3616
S'<code object <module> at 02B9A338, file "c:\\User...ations\\ecommerce\\controllers/product.py", line 3>'
p3617
ssS'lnum'
p3618
I205
sS'lines'
p3619
(dp3620
I200
S'    try:'
p3621
sI201
S'        if type(code) == types.CodeType:'
p3622
sI202
S'            ccode = code'
p3623
sI203
S'        else:'
p3624
sI204
S'            ccode = compile2(code,layer)'
p3625
sI205
S'        exec ccode in environment'
p3626
sI206
S'    except HTTP:'
p3627
sI207
S'        raise'
p3628
sI208
S'    except RestrictedError:'
p3629
sI209
S'        # do not encapsulate (obfuscate) the original RestrictedError'
p3630
ssS'call'
p3631
S"(code='# coding: utf-8\\n\\ndef show():\\n    # pegar produto...        ):\\nresponse._vars=response._caller(edit)\\n', environment={'A': <class 'gluon.html.A'>, 'Auth': <class 'gluon.tools.Auth'>, 'B': <class 'gluon.html.B'>, 'BEAUTIFY': <class 'gluon.html.BEAUTIFY'>, 'BODY': <class 'gluon.html.BODY'>, 'BR': <class 'gluon.html.BR'>, 'BUTTON': <class 'gluon.html.BUTTON'>, 'CAT': <class 'gluon.html.CAT'>, 'CENTER': <class 'gluon.html.CENTER'>, 'CKEditor': <class 'applications.ecommerce.modules.plugin_ckeditor.CKEditor'>, ...}, layer=r'c:\\Users\\rochacbruno\\jul12\\cursojulho12\\web2py\\applications\\ecommerce\\controllers/product.py')"
p3632
sS'func'
p3633
S'restricted'
p3634
sa(dp3635
g3610
S'c:\\Users\\rochacbruno\\jul12\\cursojulho12\\web2py\\applications\\ecommerce\\controllers\\product.py'
p3636
sg3612
(dp3637
sg3618
I153
sg3619
(dp3638
I143
S"#          formname='web2py_grid',"
p3639
sI144
S"#          search_widget='default',"
p3640
sI145
S'#          ignore_rw = False,'
p3641
sI146
S"#          formstyle = 'table3cols',"
p3642
sI147
S'#          exportclasses = None,'
p3643
sI148
S'#          formargs={},'
p3644
sI149
S'#          createargs={},'
p3645
sI150
S'#          editargs={},'
p3646
sI151
S'#          viewargs={},'
p3647
sI152
S'#         ):'
p3648
ssg3631
S'()'
p3649
sg3633
S'<module>'
p3650
sa(dp3651
g3610
S'c:\\Users\\rochacbruno\\jul12\\cursojulho12\\web2py\\gluon\\globals.py'
p3652
sg3612
(dp3653
S'self'
p3654
S'undefined'
p3655
sS'f'
S'<function edit>'
p3656
ssg3618
I182
sg3619
(dp3657
I177
S'        self.menu = []             # used by the default view layout'
p3658
sI178
S'        self.files = []            # used by web2py_ajax.html'
p3659
sI179
S'        self.generic_patterns = [] # patterns to allow generic views'
p3660
sI180
S"        self.delimiters = ('{{','}}')"
p3661
sI181
S'        self._vars = None'
p3662
sI182
S'        self._caller = lambda f: f()'
p3663
sI183
S'        self._view_environment = None'
p3664
sI184
S'        self._custom_commit = None'
p3665
sI185
S'        self._custom_rollback = None'
p3666
sI186
S''
ssg3631
S'(f=<function edit>)'
p3667
sg3633
S'<lambda>'
p3668
sa(dp3669
g3610
S'c:\\Users\\rochacbruno\\jul12\\cursojulho12\\web2py\\applications\\ecommerce\\controllers\\product.py'
p3670
sg3612
(dp3671
S'form.process'
p3672
S'<bound method SQLFORM.process of <gluon.sqlhtml.SQLFORM object>>'
p3673
sS'onvalidation'
p3674
g3655
sS'form'
p3675
S'<gluon.sqlhtml.SQLFORM object>'
p3676
sS'global log_edit_form'
p3677
S'<function log_edit_form>'
p3678
ssg3618
I75
sg3619
(dp3679
I70
S'    # apenas para admin'
p3680
sI71
S"    pid = request.args(0) or redirect(URL('home', 'index'))"
p3681
sI72
S'    form = SQLFORM(db.product, pid, formstyle="divs")'
p3682
sI73
S'    form.append(INPUT(_type="hidden", _value=str(pid), _id="id", _name="id"))'
p3683
sI74
S'    message = ""'
p3684
sI75
S'    form.process(onvalidation=log_edit_form)'
p3685
sI76
S'    return dict(form=form, message=message)'
p3686
sI77
S''
sI78
S'    # pid = request.args(0)'
p3687
sI79
S'    # form = SQLFORM(db.product, pid, formstyle="divs")'
p3688
ssg3631
S'()'
p3689
sg3633
S'edit'
p3690
sa(dp3691
g3610
S'c:\\Users\\rochacbruno\\jul12\\cursojulho12\\web2py\\gluon\\html.py'
p3692
sg3612
(dp3693
S'self'
p3694
S'<gluon.sqlhtml.SQLFORM object>'
p3695
sS'self.validate'
p3696
S'<bound method SQLFORM.validate of <gluon.sqlhtml.SQLFORM object>>'
p3697
sS'kwargs'
p3698
S"{'dbio': True, 'onvalidation': <function log_edit_form>}"
p3699
ssg3618
I2033
sg3619
(dp3700
I2028
S'        # or a function name to use as callback or None to do nothing.'
p3701
sI2029
S'        def action():'
p3702
sI2030
S'            return dict(form=SQLFORM(db.table).process(onsuccess=my_callback)'
p3703
sI2031
S'        """'
p3704
sI2032
S"        kwargs['dbio'] = kwargs.get('dbio',True) # necessary for SQLHTML forms"
p3705
sI2033
S'        self.validate(**kwargs)'
p3706
sI2034
S'        return self'
p3707
sI2035
S''
sI2036
S'    REDIRECT_JS = "window.location=\'%s\';return false"'
p3708
sI2037
S''
ssg3631
S"(self=<gluon.sqlhtml.SQLFORM object>, **kwargs={'dbio': True, 'onvalidation': <function log_edit_form>})"
p3709
sg3633
S'process'
p3710
sa(dp3711
g3610
S'c:\\Users\\rochacbruno\\jul12\\cursojulho12\\web2py\\gluon\\html.py'
p3712
sg3612
(dp3713
S'self'
p3714
S'<gluon.sqlhtml.SQLFORM object>'
p3715
sS'self.accepts'
p3716
S'<bound method SQLFORM.accepts of <gluon.sqlhtml.SQLFORM object>>'
p3717
sS'kwargs'
p3718
S'{\'dbio\': True, \'onvalidation\': <function log_edit_form>, \'request_vars\': <Storage {\'category\': \'1\', \'origin\': \'EUA\', \'des...1\', \'11\']", \'11\'], \'name\': \'NOTEBOOK dgdfgdfgf\'}>, \'session\': <Storage {\'last_query\': \'db.auth_membership.id>0...login]\': \'acb79109-507d-4acb-a7d5-f83e2d7739ef\'}>}'
p3719
ssg3618
I1980
sg3619
(dp3720
I1984
S'                else:'
p3721
sI1975
S"        for key in ('message_onsuccess','message_onfailure','onsuccess',"
p3722
sI1976
S"                    'onfailure','next'):"
p3723
sI1977
S'            if key in kwargs:'
p3724
sI1978
S'                del kwargs[key]'
p3725
sI1979
S''
sI1980
S'        if self.accepts(**kwargs):'
p3726
sI1981
S"            if onsuccess == 'flash':"
p3727
sI1982
S'                if next:'
p3728
sI1983
S'                    current.session.flash = message_onsuccess'
p3729
ssg3631
S'(self=<gluon.sqlhtml.SQLFORM object>, **kwargs={\'dbio\': True, \'onvalidation\': <function log_edit_form>, \'request_vars\': <Storage {\'category\': \'1\', \'origin\': \'EUA\', \'des...1\', \'11\']", \'11\'], \'name\': \'NOTEBOOK dgdfgdfgf\'}>, \'session\': <Storage {\'last_query\': \'db.auth_membership.id>0...login]\': \'acb79109-507d-4acb-a7d5-f83e2d7739ef\'}>})'
p3730
sg3633
S'validate'
p3731
sa(dp3732
g3610
S'c:\\Users\\rochacbruno\\jul12\\cursojulho12\\web2py\\gluon\\sqlhtml.py'
p3733
sg3612
(dp3734
S'record_id'
p3735
S'"[\'11\', \'11\']"'
p3736
sS'self'
p3737
S'<gluon.sqlhtml.SQLFORM object>'
p3738
sS'self.record_id'
p3739
S"'11'"
p3740
ssg3618
I1187
sg3619
(dp3741
I1184
S''
sI1185
S'        if record_id and str(record_id) != str(self.record_id):'
p3742
sI1186
S"            raise SyntaxError, 'user is tampering with form\\'s record_id: ' \\"
p3743
sI1187
S"                '%s != %s' % (record_id, self.record_id)"
p3744
sI1188
S''
sI1189
S'        if record_id and dbio and not keyed:'
p3745
sI1190
S'            self.vars.id = self.record[self.id_field_name]'
p3746
sI1191
S''
sI1182
S'            self.accepted = ret'
p3747
sI1183
S'            return ret'
p3748
ssg3631
S'(self=<gluon.sqlhtml.SQLFORM object>, request_vars=<Storage {\'category\': \'1\', \'origin\': \'EUA\', \'des...1\', \'11\']", \'11\'], \'name\': \'NOTEBOOK dgdfgdfgf\'}>, session=<Storage {\'last_query\': \'db.auth_membership.id>0...login]\': \'acb79109-507d-4acb-a7d5-f83e2d7739ef\'}>, formname=\'product/11\', keepvalues=True, onvalidation=<function log_edit_form>, dbio=True, hideerror=False, detect_record_change=False)'
p3749
sg3633
S'accepts'
p3750
sasS'pyver'
p3751
S'Python 2.7.2: c:\\Python27\\python.exe'
p3752
sS'session'
p3753
g69
(g70
g71
NtRp3754
(dp3755
g74
(dp3756
sg76
(lp3757
g69
(g78
g71
NtRp3758
(dp3759
g74
(dp3760
g82
I5
ssg83
Nsg76
(lp3761
g69
(g85
g71
NtRp3762
(dp3763
g74
(dp3764
sg83
g3758
sg76
(lp3765
g69
(g90
g71
NtRp3766
(dp3767
g74
(dp3768
g94
g95
ssg83
g3762
sg76
(lp3769
S'auth'
p3770
asbag69
(g90
g71
NtRp3771
(dp3772
g74
(dp3773
g101
g102
ssg83
g3762
sg76
(lp3774
S':'
asbag69
(g90
g71
NtRp3775
(dp3776
g74
(dp3777
sg83
g3762
sg76
(lp3778
g69
(g70
g71
NtRp3779
(dp3780
g74
(dp3781
g82
I5
ssg83
g3775
sg76
(lp3782
g69
(g78
g71
NtRp3783
(dp3784
g74
(dp3785
g82
I4
ssg83
Nsg76
(lp3786
g69
(g85
g71
NtRp3787
(dp3788
g74
(dp3789
sg83
g3783
sg76
(lp3790
g69
(g90
g71
NtRp3791
(dp3792
g74
(dp3793
g94
g95
ssg83
g3787
sg76
(lp3794
S'expiration'
p3795
asbag69
(g90
g71
NtRp3796
(dp3797
g74
(dp3798
g101
g102
ssg83
g3787
sg76
(lp3799
S':'
asbag69
(g90
g71
NtRp3800
(dp3801
g74
(dp3802
sg83
g3787
sg76
(lp3803
g69
(g70
g71
NtRp3804
(dp3805
g74
(dp3806
g82
I4
ssg83
g3800
sg76
(lp3807
S'3600'
p3808
asbasbasbag69
(g85
g71
NtRp3809
(dp3810
g74
(dp3811
sg83
g3783
sg76
(lp3812
g69
(g90
g71
NtRp3813
(dp3814
g74
(dp3815
g94
g95
ssg83
g3809
sg76
(lp3816
S'hmac_key'
p3817
asbag69
(g90
g71
NtRp3818
(dp3819
g74
(dp3820
g101
g102
ssg83
g3809
sg76
(lp3821
S':'
asbag69
(g90
g71
NtRp3822
(dp3823
g74
(dp3824
sg83
g3809
sg76
(lp3825
g69
(g70
g71
NtRp3826
(dp3827
g74
(dp3828
g82
I4
ssg83
g3822
sg76
(lp3829
S'f34f74b3-8d7e-41df-b5c7-0ee9d5f87b9e'
p3830
asbasbasbag69
(g85
g71
NtRp3831
(dp3832
g74
(dp3833
sg83
g3783
sg76
(lp3834
g69
(g90
g71
NtRp3835
(dp3836
g74
(dp3837
g94
g95
ssg83
g3831
sg76
(lp3838
S'last_visit'
p3839
asbag69
(g90
g71
NtRp3840
(dp3841
g74
(dp3842
g101
g102
ssg83
g3831
sg76
(lp3843
S':'
asbag69
(g90
g71
NtRp3844
(dp3845
g74
(dp3846
sg83
g3831
sg76
(lp3847
g69
(g70
g71
NtRp3848
(dp3849
g74
(dp3850
g82
I4
ssg83
g3844
sg76
(lp3851
S'datetime.datetime(2012, 8, 19, 11, 24, 0, 722000)'
p3852
asbasbasbag69
(g85
g71
NtRp3853
(dp3854
g74
(dp3855
sg83
g3783
sg76
(lp3856
g69
(g90
g71
NtRp3857
(dp3858
g74
(dp3859
g94
g95
ssg83
g3853
sg76
(lp3860
S'remember'
p3861
asbag69
(g90
g71
NtRp3862
(dp3863
g74
(dp3864
g101
g102
ssg83
g3853
sg76
(lp3865
S':'
asbag69
(g90
g71
NtRp3866
(dp3867
g74
(dp3868
sg83
g3853
sg76
(lp3869
g69
(g70
g71
NtRp3870
(dp3871
g74
(dp3872
g82
I4
ssg83
g3866
sg76
(lp3873
g112
asbasbasbag69
(g85
g71
NtRp3874
(dp3875
g74
(dp3876
sg83
g3783
sg76
(lp3877
g69
(g90
g71
NtRp3878
(dp3879
g74
(dp3880
g94
g95
ssg83
g3874
sg76
(lp3881
S'user'
p3882
asbag69
(g90
g71
NtRp3883
(dp3884
g74
(dp3885
g101
g102
ssg83
g3874
sg76
(lp3886
S':'
asbag69
(g90
g71
NtRp3887
(dp3888
g74
(dp3889
sg83
g3874
sg76
(lp3890
g69
(g70
g71
NtRp3891
(dp3892
g74
(dp3893
g82
I4
ssg83
g3887
sg76
(lp3894
g69
(g78
g71
NtRp3895
(dp3896
g74
(dp3897
g82
I3
ssg83
Nsg76
(lp3898
g69
(g85
g71
NtRp3899
(dp3900
g74
(dp3901
sg83
g3895
sg76
(lp3902
g69
(g90
g71
NtRp3903
(dp3904
g74
(dp3905
g94
g95
ssg83
g3899
sg76
(lp3906
S'address'
p3907
asbag69
(g90
g71
NtRp3908
(dp3909
g74
(dp3910
g101
g102
ssg83
g3899
sg76
(lp3911
S':'
asbag69
(g90
g71
NtRp3912
(dp3913
g74
(dp3914
sg83
g3899
sg76
(lp3915
g69
(g70
g71
NtRp3916
(dp3917
g74
(dp3918
g82
I3
ssg83
g3912
sg76
(lp3919
S'None'
p3920
asbasbasbag69
(g85
g71
NtRp3921
(dp3922
g74
(dp3923
sg83
g3895
sg76
(lp3924
g69
(g90
g71
NtRp3925
(dp3926
g74
(dp3927
g94
g95
ssg83
g3921
sg76
(lp3928
S'email'
p3929
asbag69
(g90
g71
NtRp3930
(dp3931
g74
(dp3932
g101
g102
ssg83
g3921
sg76
(lp3933
S':'
asbag69
(g90
g71
NtRp3934
(dp3935
g74
(dp3936
sg83
g3921
sg76
(lp3937
g69
(g70
g71
NtRp3938
(dp3939
g74
(dp3940
g82
I3
ssg83
g3934
sg76
(lp3941
S'rochacbruno@gmail.com'
p3942
asbasbasbag69
(g85
g71
NtRp3943
(dp3944
g74
(dp3945
sg83
g3895
sg76
(lp3946
g69
(g90
g71
NtRp3947
(dp3948
g74
(dp3949
g94
g95
ssg83
g3943
sg76
(lp3950
S'first_name'
p3951
asbag69
(g90
g71
NtRp3952
(dp3953
g74
(dp3954
g101
g102
ssg83
g3943
sg76
(lp3955
S':'
asbag69
(g90
g71
NtRp3956
(dp3957
g74
(dp3958
sg83
g3943
sg76
(lp3959
g69
(g70
g71
NtRp3960
(dp3961
g74
(dp3962
g82
I3
ssg83
g3956
sg76
(lp3963
S'Bruno'
p3964
asbasbasbag69
(g85
g71
NtRp3965
(dp3966
g74
(dp3967
sg83
g3895
sg76
(lp3968
g69
(g90
g71
NtRp3969
(dp3970
g74
(dp3971
g94
g95
ssg83
g3965
sg76
(lp3972
S'house_number'
p3973
asbag69
(g90
g71
NtRp3974
(dp3975
g74
(dp3976
g101
g102
ssg83
g3965
sg76
(lp3977
S':'
asbag69
(g90
g71
NtRp3978
(dp3979
g74
(dp3980
sg83
g3965
sg76
(lp3981
g69
(g70
g71
NtRp3982
(dp3983
g74
(dp3984
g82
I3
ssg83
g3978
sg76
(lp3985
S'None'
p3986
asbasbasbag69
(g85
g71
NtRp3987
(dp3988
g74
(dp3989
sg83
g3895
sg76
(lp3990
g69
(g90
g71
NtRp3991
(dp3992
g74
(dp3993
g94
g95
ssg83
g3987
sg76
(lp3994
S'id'
p3995
asbag69
(g90
g71
NtRp3996
(dp3997
g74
(dp3998
g101
g102
ssg83
g3987
sg76
(lp3999
S':'
asbag69
(g90
g71
NtRp4000
(dp4001
g74
(dp4002
sg83
g3987
sg76
(lp4003
g69
(g70
g71
NtRp4004
(dp4005
g74
(dp4006
g82
I3
ssg83
g4000
sg76
(lp4007
S'1'
asbasbasbag69
(g85
g71
NtRp4008
(dp4009
g74
(dp4010
sg83
g3895
sg76
(lp4011
g69
(g90
g71
NtRp4012
(dp4013
g74
(dp4014
g94
g95
ssg83
g4008
sg76
(lp4015
S'last_name'
p4016
asbag69
(g90
g71
NtRp4017
(dp4018
g74
(dp4019
g101
g102
ssg83
g4008
sg76
(lp4020
S':'
asbag69
(g90
g71
NtRp4021
(dp4022
g74
(dp4023
sg83
g4008
sg76
(lp4024
g69
(g70
g71
NtRp4025
(dp4026
g74
(dp4027
g82
I3
ssg83
g4021
sg76
(lp4028
S'Rocha'
p4029
asbasbasbag69
(g85
g71
NtRp4030
(dp4031
g74
(dp4032
sg83
g3895
sg76
(lp4033
g69
(g90
g71
NtRp4034
(dp4035
g74
(dp4036
g94
g95
ssg83
g4030
sg76
(lp4037
S'password'
p4038
asbag69
(g90
g71
NtRp4039
(dp4040
g74
(dp4041
g101
g102
ssg83
g4030
sg76
(lp4042
S':'
asbag69
(g90
g71
NtRp4043
(dp4044
g74
(dp4045
sg83
g4030
sg76
(lp4046
g69
(g70
g71
NtRp4047
(dp4048
g74
(dp4049
g82
I3
ssg83
g4043
sg76
(lp4050
S'pbkdf2(1000,20,sha512)$9de72ab0ed475658$17f88e283a7180b05529366c40b73897e11d420f'
p4051
asbasbasbag69
(g85
g71
NtRp4052
(dp4053
g74
(dp4054
sg83
g3895
sg76
(lp4055
g69
(g90
g71
NtRp4056
(dp4057
g74
(dp4058
g94
g95
ssg83
g4052
sg76
(lp4059
S'picture'
p4060
asbag69
(g90
g71
NtRp4061
(dp4062
g74
(dp4063
g101
g102
ssg83
g4052
sg76
(lp4064
S':'
asbag69
(g90
g71
NtRp4065
(dp4066
g74
(dp4067
sg83
g4052
sg76
(lp4068
g69
(g70
g71
NtRp4069
(dp4070
g74
(dp4071
g82
I3
ssg83
g4065
sg76
(lp4072
S'None'
p4073
asbasbasbag69
(g85
g71
NtRp4074
(dp4075
g74
(dp4076
sg83
g3895
sg76
(lp4077
g69
(g90
g71
NtRp4078
(dp4079
g74
(dp4080
g94
g95
ssg83
g4074
sg76
(lp4081
S'registration_id'
p4082
asbag69
(g90
g71
NtRp4083
(dp4084
g74
(dp4085
g101
g102
ssg83
g4074
sg76
(lp4086
S':'
asbag69
(g90
g71
NtRp4087
(dp4088
g74
(dp4089
sg83
g4074
sg76
(lp4090
g69
(g70
g71
NtRp4091
(dp4092
g74
(dp4093
g82
I3
ssg83
g4087
sg76
(lp4094
S''
asbasbasbag69
(g85
g71
NtRp4095
(dp4096
g74
(dp4097
sg83
g3895
sg76
(lp4098
g69
(g90
g71
NtRp4099
(dp4100
g74
(dp4101
g94
g95
ssg83
g4095
sg76
(lp4102
S'registration_key'
p4103
asbag69
(g90
g71
NtRp4104
(dp4105
g74
(dp4106
g101
g102
ssg83
g4095
sg76
(lp4107
S':'
asbag69
(g90
g71
NtRp4108
(dp4109
g74
(dp4110
sg83
g4095
sg76
(lp4111
g69
(g70
g71
NtRp4112
(dp4113
g74
(dp4114
g82
I3
ssg83
g4108
sg76
(lp4115
S''
asbasbasbag69
(g85
g71
NtRp4116
(dp4117
g74
(dp4118
sg83
g3895
sg76
(lp4119
g69
(g90
g71
NtRp4120
(dp4121
g74
(dp4122
g94
g95
ssg83
g4116
sg76
(lp4123
S'reset_password_key'
p4124
asbag69
(g90
g71
NtRp4125
(dp4126
g74
(dp4127
g101
g102
ssg83
g4116
sg76
(lp4128
S':'
asbag69
(g90
g71
NtRp4129
(dp4130
g74
(dp4131
sg83
g4116
sg76
(lp4132
g69
(g70
g71
NtRp4133
(dp4134
g74
(dp4135
g82
I3
ssg83
g4129
sg76
(lp4136
S''
asbasbasbag69
(g85
g71
NtRp4137
(dp4138
g74
(dp4139
sg83
g3895
sg76
(lp4140
g69
(g90
g71
NtRp4141
(dp4142
g74
(dp4143
g94
g95
ssg83
g4137
sg76
(lp4144
S'zipcode'
p4145
asbag69
(g90
g71
NtRp4146
(dp4147
g74
(dp4148
g101
g102
ssg83
g4137
sg76
(lp4149
S':'
asbag69
(g90
g71
NtRp4150
(dp4151
g74
(dp4152
sg83
g4137
sg76
(lp4153
g69
(g70
g71
NtRp4154
(dp4155
g74
(dp4156
g82
I3
ssg83
g4150
sg76
(lp4157
S'None'
p4158
asbasbasbasbasbasbasbag69
(g85
g71
NtRp4159
(dp4160
g74
(dp4161
sg83
g3783
sg76
(lp4162
g69
(g90
g71
NtRp4163
(dp4164
g74
(dp4165
g94
g95
ssg83
g4159
sg76
(lp4166
S'user_groups'
p4167
asbag69
(g90
g71
NtRp4168
(dp4169
g74
(dp4170
g101
g102
ssg83
g4159
sg76
(lp4171
S':'
asbag69
(g90
g71
NtRp4172
(dp4173
g74
(dp4174
sg83
g4159
sg76
(lp4175
g69
(g70
g71
NtRp4176
(dp4177
g74
(dp4178
g82
I4
ssg83
g4172
sg76
(lp4179
g69
(g78
g71
NtRp4180
(dp4181
g74
(dp4182
g82
I3
ssg83
Nsg76
(lp4183
g69
(g85
g71
NtRp4184
(dp4185
g74
(dp4186
sg83
g4180
sg76
(lp4187
g69
(g90
g71
NtRp4188
(dp4189
g74
(dp4190
g94
g95
ssg83
g4184
sg76
(lp4191
S'1'
asbag69
(g90
g71
NtRp4192
(dp4193
g74
(dp4194
g101
g102
ssg83
g4184
sg76
(lp4195
S':'
asbag69
(g90
g71
NtRp4196
(dp4197
g74
(dp4198
sg83
g4184
sg76
(lp4199
g69
(g70
g71
NtRp4200
(dp4201
g74
(dp4202
g82
I3
ssg83
g4196
sg76
(lp4203
S'user_1'
p4204
asbasbasbag69
(g85
g71
NtRp4205
(dp4206
g74
(dp4207
sg83
g4180
sg76
(lp4208
g69
(g90
g71
NtRp4209
(dp4210
g74
(dp4211
g94
g95
ssg83
g4205
sg76
(lp4212
S'3'
asbag69
(g90
g71
NtRp4213
(dp4214
g74
(dp4215
g101
g102
ssg83
g4205
sg76
(lp4216
S':'
asbag69
(g90
g71
NtRp4217
(dp4218
g74
(dp4219
sg83
g4205
sg76
(lp4220
g69
(g70
g71
NtRp4221
(dp4222
g74
(dp4223
g82
I3
ssg83
g4217
sg76
(lp4224
S'admin'
p4225
asbasbasbasbasbasbasbasbasbasbasbag69
(g85
g71
NtRp4226
(dp4227
g74
(dp4228
sg83
g3758
sg76
(lp4229
g69
(g90
g71
NtRp4230
(dp4231
g74
(dp4232
g94
g95
ssg83
g4226
sg76
(lp4233
S'last_query'
p4234
asbag69
(g90
g71
NtRp4235
(dp4236
g74
(dp4237
g101
g102
ssg83
g4226
sg76
(lp4238
S':'
asbag69
(g90
g71
NtRp4239
(dp4240
g74
(dp4241
sg83
g4226
sg76
(lp4242
g69
(g70
g71
NtRp4243
(dp4244
g74
(dp4245
g82
I5
ssg83
g4239
sg76
(lp4246
S'db.auth_membership.id>0'
p4247
asbasbasbasbasbsS'etype'
p4248
S"<type 'exceptions.SyntaxError'>"
p4249
sS'date'
p4250
S'Sun Aug 19 11:24:46 2012'
p4251
sS'response'
p4252
g69
(g70
g71
NtRp4253
(dp4254
g74
(dp4255
sg76
(lp4256
g69
(g78
g71
NtRp4257
(dp4258
g74
(dp4259
g82
I5
ssg83
Nsg76
(lp4260
g69
(g85
g71
NtRp4261
(dp4262
g74
(dp4263
sg83
g4257
sg76
(lp4264
g69
(g90
g71
NtRp4265
(dp4266
g74
(dp4267
g94
g95
ssg83
g4261
sg76
(lp4268
g180
asbag69
(g90
g71
NtRp4269
(dp4270
g74
(dp4271
g101
g102
ssg83
g4261
sg76
(lp4272
S':'
asbag69
(g90
g71
NtRp4273
(dp4274
g74
(dp4275
sg83
g4261
sg76
(lp4276
g69
(g70
g71
NtRp4277
(dp4278
g74
(dp4279
g82
I5
ssg83
g4273
sg76
(lp4280
S'<cStringIO.StringO object at 0x05495040>'
p4281
asbasbasbag69
(g85
g71
NtRp4282
(dp4283
g74
(dp4284
sg83
g4257
sg76
(lp4285
g69
(g90
g71
NtRp4286
(dp4287
g74
(dp4288
g94
g95
ssg83
g4282
sg76
(lp4289
g246
asbag69
(g90
g71
NtRp4290
(dp4291
g74
(dp4292
g101
g102
ssg83
g4282
sg76
(lp4293
S':'
asbag69
(g90
g71
NtRp4294
(dp4295
g74
(dp4296
sg83
g4282
sg76
(lp4297
g69
(g70
g71
NtRp4298
(dp4299
g74
(dp4300
g82
I5
ssg83
g4294
sg76
(lp4301
g69
(g78
g71
NtRp4302
(dp4303
g74
(dp4304
g82
I4
ssg83
Nsg76
(lp4305
g69
(g85
g71
NtRp4306
(dp4307
g74
(dp4308
sg83
g4302
sg76
(lp4309
g69
(g90
g71
NtRp4310
(dp4311
g74
(dp4312
g94
g95
ssg83
g4306
sg76
(lp4313
S'session_id_ecommerce'
p4314
asbag69
(g90
g71
NtRp4315
(dp4316
g74
(dp4317
g101
g102
ssg83
g4306
sg76
(lp4318
S':'
asbag69
(g90
g71
NtRp4319
(dp4320
g74
(dp4321
sg83
g4306
sg76
(lp4322
g69
(g70
g71
NtRp4323
(dp4324
g74
(dp4325
g82
I4
ssg83
g4319
sg76
(lp4326
g663
ag69
(g78
g71
NtRp4327
(dp4328
g74
(dp4329
g82
I3
ssg83
Nsg76
(lp4330
g69
(g85
g71
NtRp4331
(dp4332
g74
(dp4333
sg83
g4327
sg76
(lp4334
g69
(g90
g71
NtRp4335
(dp4336
g74
(dp4337
g94
g95
ssg83
g4331
sg76
(lp4338
g296
asbag69
(g90
g71
NtRp4339
(dp4340
g74
(dp4341
g101
g102
ssg83
g4331
sg76
(lp4342
S':'
asbag69
(g90
g71
NtRp4343
(dp4344
g74
(dp4345
sg83
g4331
sg76
(lp4346
g69
(g70
g71
NtRp4347
(dp4348
g74
(dp4349
g82
I3
ssg83
g4343
sg76
(lp4350
S''
asbasbasbag69
(g85
g71
NtRp4351
(dp4352
g74
(dp4353
sg83
g4327
sg76
(lp4354
g69
(g90
g71
NtRp4355
(dp4356
g74
(dp4357
g94
g95
ssg83
g4351
sg76
(lp4358
g317
asbag69
(g90
g71
NtRp4359
(dp4360
g74
(dp4361
g101
g102
ssg83
g4351
sg76
(lp4362
S':'
asbag69
(g90
g71
NtRp4363
(dp4364
g74
(dp4365
sg83
g4351
sg76
(lp4366
g69
(g70
g71
NtRp4367
(dp4368
g74
(dp4369
g82
I3
ssg83
g4363
sg76
(lp4370
S''
asbasbasbag69
(g85
g71
NtRp4371
(dp4372
g74
(dp4373
sg83
g4327
sg76
(lp4374
g69
(g90
g71
NtRp4375
(dp4376
g74
(dp4377
g94
g95
ssg83
g4371
sg76
(lp4378
g338
asbag69
(g90
g71
NtRp4379
(dp4380
g74
(dp4381
g101
g102
ssg83
g4371
sg76
(lp4382
S':'
asbag69
(g90
g71
NtRp4383
(dp4384
g74
(dp4385
sg83
g4371
sg76
(lp4386
g69
(g70
g71
NtRp4387
(dp4388
g74
(dp4389
g82
I3
ssg83
g4383
sg76
(lp4390
S''
asbasbasbag69
(g85
g71
NtRp4391
(dp4392
g74
(dp4393
sg83
g4327
sg76
(lp4394
g69
(g90
g71
NtRp4395
(dp4396
g74
(dp4397
g94
g95
ssg83
g4391
sg76
(lp4398
g359
asbag69
(g90
g71
NtRp4399
(dp4400
g74
(dp4401
g101
g102
ssg83
g4391
sg76
(lp4402
S':'
asbag69
(g90
g71
NtRp4403
(dp4404
g74
(dp4405
sg83
g4391
sg76
(lp4406
g69
(g70
g71
NtRp4407
(dp4408
g74
(dp4409
g82
I3
ssg83
g4403
sg76
(lp4410
S''
asbasbasbag69
(g85
g71
NtRp4411
(dp4412
g74
(dp4413
sg83
g4327
sg76
(lp4414
g69
(g90
g71
NtRp4415
(dp4416
g74
(dp4417
g94
g95
ssg83
g4411
sg76
(lp4418
g380
asbag69
(g90
g71
NtRp4419
(dp4420
g74
(dp4421
g101
g102
ssg83
g4411
sg76
(lp4422
S':'
asbag69
(g90
g71
NtRp4423
(dp4424
g74
(dp4425
sg83
g4411
sg76
(lp4426
g69
(g70
g71
NtRp4427
(dp4428
g74
(dp4429
g82
I3
ssg83
g4423
sg76
(lp4430
S''
asbasbasbag69
(g85
g71
NtRp4431
(dp4432
g74
(dp4433
sg83
g4327
sg76
(lp4434
g69
(g90
g71
NtRp4435
(dp4436
g74
(dp4437
g94
g95
ssg83
g4431
sg76
(lp4438
g401
asbag69
(g90
g71
NtRp4439
(dp4440
g74
(dp4441
g101
g102
ssg83
g4431
sg76
(lp4442
S':'
asbag69
(g90
g71
NtRp4443
(dp4444
g74
(dp4445
sg83
g4431
sg76
(lp4446
g69
(g70
g71
NtRp4447
(dp4448
g74
(dp4449
g82
I3
ssg83
g4443
sg76
(lp4450
S'/'
asbasbasbag69
(g85
g71
NtRp4451
(dp4452
g74
(dp4453
sg83
g4327
sg76
(lp4454
g69
(g90
g71
NtRp4455
(dp4456
g74
(dp4457
g94
g95
ssg83
g4451
sg76
(lp4458
g422
asbag69
(g90
g71
NtRp4459
(dp4460
g74
(dp4461
g101
g102
ssg83
g4451
sg76
(lp4462
S':'
asbag69
(g90
g71
NtRp4463
(dp4464
g74
(dp4465
sg83
g4451
sg76
(lp4466
g69
(g70
g71
NtRp4467
(dp4468
g74
(dp4469
g82
I3
ssg83
g4463
sg76
(lp4470
S''
asbasbasbag69
(g85
g71
NtRp4471
(dp4472
g74
(dp4473
sg83
g4327
sg76
(lp4474
g69
(g90
g71
NtRp4475
(dp4476
g74
(dp4477
g94
g95
ssg83
g4471
sg76
(lp4478
g443
asbag69
(g90
g71
NtRp4479
(dp4480
g74
(dp4481
g101
g102
ssg83
g4471
sg76
(lp4482
S':'
asbag69
(g90
g71
NtRp4483
(dp4484
g74
(dp4485
sg83
g4471
sg76
(lp4486
g69
(g70
g71
NtRp4487
(dp4488
g74
(dp4489
g82
I3
ssg83
g4483
sg76
(lp4490
S''
asbasbasbasbasbasbasbasbasbasbasbag69
(g85
g71
NtRp4491
(dp4492
g74
(dp4493
sg83
g4257
sg76
(lp4494
g69
(g90
g71
NtRp4495
(dp4496
g74
(dp4497
g94
g95
ssg83
g4491
sg76
(lp4498
S'delimiters'
p4499
asbag69
(g90
g71
NtRp4500
(dp4501
g74
(dp4502
g101
g102
ssg83
g4491
sg76
(lp4503
S':'
asbag69
(g90
g71
NtRp4504
(dp4505
g74
(dp4506
sg83
g4491
sg76
(lp4507
g69
(g70
g71
NtRp4508
(dp4509
g74
(dp4510
g82
I5
ssg83
g4504
sg76
(lp4511
g69
(g78
g71
NtRp4512
(dp4513
g74
(dp4514
g82
I4
ssg83
Nsg76
(lp4515
g69
(g85
g71
NtRp4516
(dp4517
g74
(dp4518
sg83
g4512
sg76
(lp4519
g69
(g90
g71
NtRp4520
(dp4521
g74
(dp4522
sg83
g4516
sg76
(lp4523
g69
(g70
g71
NtRp4524
(dp4525
g74
(dp4526
g82
I4
ssg83
g4520
sg76
(lp4527
S'{{'
p4528
asbasbasbag69
(g85
g71
NtRp4529
(dp4530
g74
(dp4531
sg83
g4512
sg76
(lp4532
g69
(g90
g71
NtRp4533
(dp4534
g74
(dp4535
sg83
g4529
sg76
(lp4536
g69
(g70
g71
NtRp4537
(dp4538
g74
(dp4539
g82
I4
ssg83
g4533
sg76
(lp4540
S'}}'
p4541
asbasbasbasbasbasbasbag69
(g85
g71
NtRp4542
(dp4543
g74
(dp4544
sg83
g4257
sg76
(lp4545
g69
(g90
g71
NtRp4546
(dp4547
g74
(dp4548
g94
g95
ssg83
g4542
sg76
(lp4549
S'description'
p4550
asbag69
(g90
g71
NtRp4551
(dp4552
g74
(dp4553
g101
g102
ssg83
g4542
sg76
(lp4554
S':'
asbag69
(g90
g71
NtRp4555
(dp4556
g74
(dp4557
sg83
g4542
sg76
(lp4558
g69
(g70
g71
NtRp4559
(dp4560
g74
(dp4561
g82
I5
ssg83
g4555
sg76
(lp4562
S'Ecommerce'
p4563
asbasbasbag69
(g85
g71
NtRp4564
(dp4565
g74
(dp4566
sg83
g4257
sg76
(lp4567
g69
(g90
g71
NtRp4568
(dp4569
g74
(dp4570
g94
g95
ssg83
g4564
sg76
(lp4571
S'files'
p4572
asbag69
(g90
g71
NtRp4573
(dp4574
g74
(dp4575
g101
g102
ssg83
g4564
sg76
(lp4576
S':'
asbag69
(g90
g71
NtRp4577
(dp4578
g74
(dp4579
sg83
g4564
sg76
(lp4580
g69
(g70
g71
NtRp4581
(dp4582
g74
(dp4583
g82
I5
ssg83
g4577
sg76
(lp4584
g69
(g78
g71
NtRp4585
(dp4586
g74
(dp4587
g82
I4
ssg83
Nsg76
(lp4588
sbasbasbasbag69
(g85
g71
NtRp4589
(dp4590
g74
(dp4591
sg83
g4257
sg76
(lp4592
g69
(g90
g71
NtRp4593
(dp4594
g74
(dp4595
g94
g95
ssg83
g4589
sg76
(lp4596
S'flash'
p4597
asbag69
(g90
g71
NtRp4598
(dp4599
g74
(dp4600
g101
g102
ssg83
g4589
sg76
(lp4601
S':'
asbag69
(g90
g71
NtRp4602
(dp4603
g74
(dp4604
sg83
g4589
sg76
(lp4605
g69
(g70
g71
NtRp4606
(dp4607
g74
(dp4608
g82
I5
ssg83
g4602
sg76
(lp4609
S''
asbasbasbag69
(g85
g71
NtRp4610
(dp4611
g74
(dp4612
sg83
g4257
sg76
(lp4613
g69
(g90
g71
NtRp4614
(dp4615
g74
(dp4616
g94
g95
ssg83
g4610
sg76
(lp4617
S'generic_patterns'
p4618
asbag69
(g90
g71
NtRp4619
(dp4620
g74
(dp4621
g101
g102
ssg83
g4610
sg76
(lp4622
S':'
asbag69
(g90
g71
NtRp4623
(dp4624
g74
(dp4625
sg83
g4610
sg76
(lp4626
g69
(g70
g71
NtRp4627
(dp4628
g74
(dp4629
g82
I5
ssg83
g4623
sg76
(lp4630
g69
(g78
g71
NtRp4631
(dp4632
g74
(dp4633
g82
I4
ssg83
Nsg76
(lp4634
g69
(g85
g71
NtRp4635
(dp4636
g74
(dp4637
sg83
g4631
sg76
(lp4638
g69
(g90
g71
NtRp4639
(dp4640
g74
(dp4641
sg83
g4635
sg76
(lp4642
g69
(g70
g71
NtRp4643
(dp4644
g74
(dp4645
g82
I4
ssg83
g4639
sg76
(lp4646
S'*'
asbasbasbasbasbasbasbag69
(g85
g71
NtRp4647
(dp4648
g74
(dp4649
sg83
g4257
sg76
(lp4650
g69
(g90
g71
NtRp4651
(dp4652
g74
(dp4653
g94
g95
ssg83
g4647
sg76
(lp4654
S'headers'
p4655
asbag69
(g90
g71
NtRp4656
(dp4657
g74
(dp4658
g101
g102
ssg83
g4647
sg76
(lp4659
S':'
asbag69
(g90
g71
NtRp4660
(dp4661
g74
(dp4662
sg83
g4647
sg76
(lp4663
g69
(g70
g71
NtRp4664
(dp4665
g74
(dp4666
g82
I5
ssg83
g4660
sg76
(lp4667
g69
(g78
g71
NtRp4668
(dp4669
g74
(dp4670
g82
I4
ssg83
Nsg76
(lp4671
g69
(g85
g71
NtRp4672
(dp4673
g74
(dp4674
sg83
g4668
sg76
(lp4675
g69
(g90
g71
NtRp4676
(dp4677
g74
(dp4678
g94
g95
ssg83
g4672
sg76
(lp4679
S'Cache-Control'
p4680
asbag69
(g90
g71
NtRp4681
(dp4682
g74
(dp4683
g101
g102
ssg83
g4672
sg76
(lp4684
S':'
asbag69
(g90
g71
NtRp4685
(dp4686
g74
(dp4687
sg83
g4672
sg76
(lp4688
g69
(g70
g71
NtRp4689
(dp4690
g74
(dp4691
g82
I4
ssg83
g4685
sg76
(lp4692
S'no-store, no-cache, must-revalidate, post-check=0, pre-check=0'
p4693
asbasbasbag69
(g85
g71
NtRp4694
(dp4695
g74
(dp4696
sg83
g4668
sg76
(lp4697
g69
(g90
g71
NtRp4698
(dp4699
g74
(dp4700
g94
g95
ssg83
g4694
sg76
(lp4701
S'Content-Type'
p4702
asbag69
(g90
g71
NtRp4703
(dp4704
g74
(dp4705
g101
g102
ssg83
g4694
sg76
(lp4706
S':'
asbag69
(g90
g71
NtRp4707
(dp4708
g74
(dp4709
sg83
g4694
sg76
(lp4710
g69
(g70
g71
NtRp4711
(dp4712
g74
(dp4713
g82
I4
ssg83
g4707
sg76
(lp4714
S'text/html; charset=utf-8'
p4715
asbasbasbag69
(g85
g71
NtRp4716
(dp4717
g74
(dp4718
sg83
g4668
sg76
(lp4719
g69
(g90
g71
NtRp4720
(dp4721
g74
(dp4722
g94
g95
ssg83
g4716
sg76
(lp4723
S'Expires'
p4724
asbag69
(g90
g71
NtRp4725
(dp4726
g74
(dp4727
g101
g102
ssg83
g4716
sg76
(lp4728
S':'
asbag69
(g90
g71
NtRp4729
(dp4730
g74
(dp4731
sg83
g4716
sg76
(lp4732
g69
(g70
g71
NtRp4733
(dp4734
g74
(dp4735
g82
I4
ssg83
g4729
sg76
(lp4736
S'Sun, 19 Aug 2012 14:24:46 GMT'
p4737
asbasbasbag69
(g85
g71
NtRp4738
(dp4739
g74
(dp4740
sg83
g4668
sg76
(lp4741
g69
(g90
g71
NtRp4742
(dp4743
g74
(dp4744
g94
g95
ssg83
g4738
sg76
(lp4745
S'Pragma'
p4746
asbag69
(g90
g71
NtRp4747
(dp4748
g74
(dp4749
g101
g102
ssg83
g4738
sg76
(lp4750
S':'
asbag69
(g90
g71
NtRp4751
(dp4752
g74
(dp4753
sg83
g4738
sg76
(lp4754
g69
(g70
g71
NtRp4755
(dp4756
g74
(dp4757
g82
I4
ssg83
g4751
sg76
(lp4758
S'no-cache'
p4759
asbasbasbag69
(g85
g71
NtRp4760
(dp4761
g74
(dp4762
sg83
g4668
sg76
(lp4763
g69
(g90
g71
NtRp4764
(dp4765
g74
(dp4766
g94
g95
ssg83
g4760
sg76
(lp4767
S'X-Powered-By'
p4768
asbag69
(g90
g71
NtRp4769
(dp4770
g74
(dp4771
g101
g102
ssg83
g4760
sg76
(lp4772
S':'
asbag69
(g90
g71
NtRp4773
(dp4774
g74
(dp4775
sg83
g4760
sg76
(lp4776
g69
(g70
g71
NtRp4777
(dp4778
g74
(dp4779
g82
I4
ssg83
g4773
sg76
(lp4780
S'web2py'
p4781
asbasbasbasbasbasbasbag69
(g85
g71
NtRp4782
(dp4783
g74
(dp4784
sg83
g4257
sg76
(lp4785
g69
(g90
g71
NtRp4786
(dp4787
g74
(dp4788
g94
g95
ssg83
g4782
sg76
(lp4789
S'menu'
p4790
asbag69
(g90
g71
NtRp4791
(dp4792
g74
(dp4793
g101
g102
ssg83
g4782
sg76
(lp4794
S':'
asbag69
(g90
g71
NtRp4795
(dp4796
g74
(dp4797
sg83
g4782
sg76
(lp4798
g69
(g70
g71
NtRp4799
(dp4800
g74
(dp4801
g82
I5
ssg83
g4795
sg76
(lp4802
g69
(g78
g71
NtRp4803
(dp4804
g74
(dp4805
g82
I4
ssg83
Nsg76
(lp4806
sbasbasbasbag69
(g85
g71
NtRp4807
(dp4808
g74
(dp4809
sg83
g4257
sg76
(lp4810
g69
(g90
g71
NtRp4811
(dp4812
g74
(dp4813
g94
g95
ssg83
g4807
sg76
(lp4814
S'meta'
p4815
asbag69
(g90
g71
NtRp4816
(dp4817
g74
(dp4818
g101
g102
ssg83
g4807
sg76
(lp4819
S':'
asbag69
(g90
g71
NtRp4820
(dp4821
g74
(dp4822
sg83
g4807
sg76
(lp4823
g69
(g70
g71
NtRp4824
(dp4825
g74
(dp4826
g82
I5
ssg83
g4820
sg76
(lp4827
g69
(g78
g71
NtRp4828
(dp4829
g74
(dp4830
g82
I4
ssg83
Nsg76
(lp4831
sbasbasbasbag69
(g85
g71
NtRp4832
(dp4833
g74
(dp4834
sg83
g4257
sg76
(lp4835
g69
(g90
g71
NtRp4836
(dp4837
g74
(dp4838
g94
g95
ssg83
g4832
sg76
(lp4839
S'postprocessing'
p4840
asbag69
(g90
g71
NtRp4841
(dp4842
g74
(dp4843
g101
g102
ssg83
g4832
sg76
(lp4844
S':'
asbag69
(g90
g71
NtRp4845
(dp4846
g74
(dp4847
sg83
g4832
sg76
(lp4848
g69
(g70
g71
NtRp4849
(dp4850
g74
(dp4851
g82
I5
ssg83
g4845
sg76
(lp4852
g69
(g78
g71
NtRp4853
(dp4854
g74
(dp4855
g82
I4
ssg83
Nsg76
(lp4856
sbasbasbasbag69
(g85
g71
NtRp4857
(dp4858
g74
(dp4859
sg83
g4257
sg76
(lp4860
g69
(g90
g71
NtRp4861
(dp4862
g74
(dp4863
g94
g95
ssg83
g4857
sg76
(lp4864
S'session_file'
p4865
asbag69
(g90
g71
NtRp4866
(dp4867
g74
(dp4868
g101
g102
ssg83
g4857
sg76
(lp4869
S':'
asbag69
(g90
g71
NtRp4870
(dp4871
g74
(dp4872
sg83
g4857
sg76
(lp4873
g69
(g70
g71
NtRp4874
(dp4875
g74
(dp4876
g82
I5
ssg83
g4870
sg76
(lp4877
S"<open file 'c:\\Users\\rochacbruno\\jul12\\cursojulho12\\web2py\\applications\\ecommerce\\sessions\\127.0.0.1-61e66857-a1cd-422b-bcbc-b6eb18034f96', mode 'rb+' at 0x0295B700>"
p4878
asbasbasbag69
(g85
g71
NtRp4879
(dp4880
g74
(dp4881
sg83
g4257
sg76
(lp4882
g69
(g90
g71
NtRp4883
(dp4884
g74
(dp4885
g94
g95
ssg83
g4879
sg76
(lp4886
S'session_filename'
p4887
asbag69
(g90
g71
NtRp4888
(dp4889
g74
(dp4890
g101
g102
ssg83
g4879
sg76
(lp4891
S':'
asbag69
(g90
g71
NtRp4892
(dp4893
g74
(dp4894
sg83
g4879
sg76
(lp4895
g69
(g70
g71
NtRp4896
(dp4897
g74
(dp4898
g82
I5
ssg83
g4892
sg76
(lp4899
S'c:\\Users\\rochacbruno\\jul12\\cursojulho12\\web2py\\applications\\ecommerce\\sessions\\127.0.0.1-61e66857-a1cd-422b-bcbc-b6eb18034f96'
p4900
asbasbasbag69
(g85
g71
NtRp4901
(dp4902
g74
(dp4903
sg83
g4257
sg76
(lp4904
g69
(g90
g71
NtRp4905
(dp4906
g74
(dp4907
g94
g95
ssg83
g4901
sg76
(lp4908
S'session_id'
p4909
asbag69
(g90
g71
NtRp4910
(dp4911
g74
(dp4912
g101
g102
ssg83
g4901
sg76
(lp4913
S':'
asbag69
(g90
g71
NtRp4914
(dp4915
g74
(dp4916
sg83
g4901
sg76
(lp4917
g69
(g70
g71
NtRp4918
(dp4919
g74
(dp4920
g82
I5
ssg83
g4914
sg76
(lp4921
g663
asbasbasbag69
(g85
g71
NtRp4922
(dp4923
g74
(dp4924
sg83
g4257
sg76
(lp4925
g69
(g90
g71
NtRp4926
(dp4927
g74
(dp4928
g94
g95
ssg83
g4922
sg76
(lp4929
S'session_id_name'
p4930
asbag69
(g90
g71
NtRp4931
(dp4932
g74
(dp4933
g101
g102
ssg83
g4922
sg76
(lp4934
S':'
asbag69
(g90
g71
NtRp4935
(dp4936
g74
(dp4937
sg83
g4922
sg76
(lp4938
g69
(g70
g71
NtRp4939
(dp4940
g74
(dp4941
g82
I5
ssg83
g4935
sg76
(lp4942
g4314
asbasbasbag69
(g85
g71
NtRp4943
(dp4944
g74
(dp4945
sg83
g4257
sg76
(lp4946
g69
(g90
g71
NtRp4947
(dp4948
g74
(dp4949
g94
g95
ssg83
g4943
sg76
(lp4950
S'session_locked'
p4951
asbag69
(g90
g71
NtRp4952
(dp4953
g74
(dp4954
g101
g102
ssg83
g4943
sg76
(lp4955
S':'
asbag69
(g90
g71
NtRp4956
(dp4957
g74
(dp4958
sg83
g4943
sg76
(lp4959
g69
(g70
g71
NtRp4960
(dp4961
g74
(dp4962
g82
I5
ssg83
g4956
sg76
(lp4963
g1768
asbasbasbag69
(g85
g71
NtRp4964
(dp4965
g74
(dp4966
sg83
g4257
sg76
(lp4967
g69
(g90
g71
NtRp4968
(dp4969
g74
(dp4970
g94
g95
ssg83
g4964
sg76
(lp4971
S'session_new'
p4972
asbag69
(g90
g71
NtRp4973
(dp4974
g74
(dp4975
g101
g102
ssg83
g4964
sg76
(lp4976
S':'
asbag69
(g90
g71
NtRp4977
(dp4978
g74
(dp4979
sg83
g4964
sg76
(lp4980
g69
(g70
g71
NtRp4981
(dp4982
g74
(dp4983
g82
I5
ssg83
g4977
sg76
(lp4984
g112
asbasbasbag69
(g85
g71
NtRp4985
(dp4986
g74
(dp4987
sg83
g4257
sg76
(lp4988
g69
(g90
g71
NtRp4989
(dp4990
g74
(dp4991
g94
g95
ssg83
g4985
sg76
(lp4992
S'status'
p4993
asbag69
(g90
g71
NtRp4994
(dp4995
g74
(dp4996
g101
g102
ssg83
g4985
sg76
(lp4997
S':'
asbag69
(g90
g71
NtRp4998
(dp4999
g74
(dp5000
sg83
g4985
sg76
(lp5001
g69
(g70
g71
NtRp5002
(dp5003
g74
(dp5004
g82
I5
ssg83
g4998
sg76
(lp5005
S'200'
p5006
asbasbasbag69
(g85
g71
NtRp5007
(dp5008
g74
(dp5009
sg83
g4257
sg76
(lp5010
g69
(g90
g71
NtRp5011
(dp5012
g74
(dp5013
g94
g95
ssg83
g5007
sg76
(lp5014
S'title'
p5015
asbag69
(g90
g71
NtRp5016
(dp5017
g74
(dp5018
g101
g102
ssg83
g5007
sg76
(lp5019
S':'
asbag69
(g90
g71
NtRp5020
(dp5021
g74
(dp5022
sg83
g5007
sg76
(lp5023
g69
(g70
g71
NtRp5024
(dp5025
g74
(dp5026
g82
I5
ssg83
g5020
sg76
(lp5027
S'Ecommerce do Bruno | CursodePython.com.br'
p5028
asbasbasbag69
(g85
g71
NtRp5029
(dp5030
g74
(dp5031
sg83
g4257
sg76
(lp5032
g69
(g90
g71
NtRp5033
(dp5034
g74
(dp5035
g94
g95
ssg83
g5029
sg76
(lp5036
g2677
asbag69
(g90
g71
NtRp5037
(dp5038
g74
(dp5039
g101
g102
ssg83
g5029
sg76
(lp5040
S':'
asbag69
(g90
g71
NtRp5041
(dp5042
g74
(dp5043
sg83
g5029
sg76
(lp5044
g69
(g70
g71
NtRp5045
(dp5046
g74
(dp5047
g82
I5
ssg83
g5041
sg76
(lp5048
g2690
asbasbasbag69
(g85
g71
NtRp5049
(dp5050
g74
(dp5051
sg83
g4257
sg76
(lp5052
g69
(g90
g71
NtRp5053
(dp5054
g74
(dp5055
g94
g95
ssg83
g5049
sg76
(lp5056
S'view'
p5057
asbag69
(g90
g71
NtRp5058
(dp5059
g74
(dp5060
g101
g102
ssg83
g5049
sg76
(lp5061
S':'
asbag69
(g90
g71
NtRp5062
(dp5063
g74
(dp5064
sg83
g5049
sg76
(lp5065
g69
(g70
g71
NtRp5066
(dp5067
g74
(dp5068
g82
I5
ssg83
g5062
sg76
(lp5069
S'product/new.html'
p5070
asbasbasbasbasbsS'locals'
p5071
(dp5072
S'dbio'
p5073
g1768
sS'field'
p5074
S'<gluon.dal.Field object>'
p5075
sS'request_vars'
p5076
S'<Storage {\'category\': \'1\', \'origin\': \'EUA\', \'des...1\', \'11\']", \'11\'], \'name\': \'NOTEBOOK dgdfgdfgf\'}>'
p5077
sS'fields'
p5078
g21
sS'detect_record_change'
p5079
g112
sS'keyed'
p5080
g112
sS'ret'
p5081
g1768
sS'auch'
p5082
S'<Storage {}>'
p5083
sS'item'
p5084
S'<applications.ecommerce.modules.customvalidators.IS_VALID_BARCODE object>'
p5085
sg3753
S"<Storage {'last_query': 'db.auth_membership.id>0...login]': 'acb79109-507d-4acb-a7d5-f83e2d7739ef'}>"
p5086
sS'fieldname'
p5087
S"'featured'"
p5088
sS'onvalidation'
p5089
S'<function log_edit_form>'
p5090
sS'keepvalues'
p5091
g1768
sS'record_id'
p5092
S'"[\'11\', \'11\']"'
p5093
sS'formname_id'
p5094
S'11'
p5095
sS'hideerror'
p5096
g112
sS'requires'
p5097
S'[]'
p5098
sS'self'
p5099
S'<gluon.sqlhtml.SQLFORM object>'
p5100
sS'formname'
p5101
S"'product/11'"
p5102
sssS'traceback'
p5103
S'Traceback (most recent call last):\n  File "c:\\Users\\rochacbruno\\jul12\\cursojulho12\\web2py\\gluon\\restricted.py", line 205, in restricted\n    exec ccode in environment\n  File "c:\\Users\\rochacbruno\\jul12\\cursojulho12\\web2py\\applications\\ecommerce\\controllers/product.py", line 153, in <module>\n  File "c:\\Users\\rochacbruno\\jul12\\cursojulho12\\web2py\\gluon\\globals.py", line 182, in <lambda>\n    self._caller = lambda f: f()\n  File "c:\\Users\\rochacbruno\\jul12\\cursojulho12\\web2py\\applications\\ecommerce\\controllers/product.py", line 75, in edit\n    form.process(onvalidation=log_edit_form)\n  File "c:\\Users\\rochacbruno\\jul12\\cursojulho12\\web2py\\gluon\\html.py", line 2033, in process\n    self.validate(**kwargs)\n  File "c:\\Users\\rochacbruno\\jul12\\cursojulho12\\web2py\\gluon\\html.py", line 1980, in validate\n    if self.accepts(**kwargs):\n  File "c:\\Users\\rochacbruno\\jul12\\cursojulho12\\web2py\\gluon\\sqlhtml.py", line 1187, in accepts\n    \'%s != %s\' % (record_id, self.record_id)\nSyntaxError: user is tampering with form\'s record_id: [\'11\', \'11\'] != 11\n'
p5104
s.