(dp1
S'output'
p2
S"<type 'exceptions.SyntaxError'> invalid syntax (controllers/product.py, line 66)"
p3
sS'layer'
p4
S'c:\\Users\\rochacbruno\\jul12\\cursojulho12\\web2py\\applications\\ecommerce\\controllers/product.py'
p5
sS'code'
p6
S'# coding: utf-8\n\ndef show():\n    # pegar produto no banco de dados\n    # buscar pelo slug\n    # acessar api do twitter\n    pass\n\n\ndef search():\n    # receber parametros e efetuar busca\n    pass\n\n# @auth.requires_login()\ndef list():\n    # exibir todos os produtos\n    # apenas para admin\n\n    # DEFINITION OF FIELDS AND VIRTUAL FIELDS\n    db.product.tax_price = Field.Virtual(lambda row: row.product.unit_price * origins.get(row.product.origin, 1))\n    db.product.edit = Field.Virtual(lambda row: A("Edit", _href=URL(\'edit\', args=row.product.id)))\n    query = db.product.id > 2\n    rows = db(query).select()\n    headers = ["Name", "Unit Price", "Tax", "Edit"]\n    fields = [\'name\', \'unit_price\', \'tax_price\', "edit"]\n\n    #  HARD WAY\n    table = TABLE()\n\n    thead = THEAD(TR())\n    for header in headers:\n        thead[0].append(TD(B(header)))\n    table.append(thead)\n\n    for row in rows:\n        tr = TR()\n        for field in fields:\n            tr.append(row[field])\n        table.append(tr)\n    table["_class"] = "table table-striped table-bordered table-condensed"\n\n    # table.append(TR(TD(*[A(p, _href=URL(), _class="btn") for p in xrange(pages)], _colspan=4)))\n\n    # # EASY WAY\n    # table = TABLE(THEAD(TR(*[B(header) for header in headers])),\n    #           TBODY(*[TR(*[TD(row[field]) for field in fields]) for row in rows]))\n    # table["_class"] = "table table-striped table-bordered table-condensed"\n\n    # # MAGIC WAY\n    # db.product.category.represent = lambda value, row: value.name\n    # tax_price = lambda row: row.unit_price * origins.get(row.origin, 1)\n    # links = [dict(header=\'Tax\', body=tax_price)]\n    # table = SQLFORM.grid(query,\n    #                      user_signature=False,\n    #                      links=links\n    #                      )\n\n    return dict(table=table)\n\n\ndef edit():\n    # pegar produto pelo id ou slug\n    # criar formulario de edicao\n    # apenas para admin\n    pid = request.args(0) or redirect(URL(\'home\', \'index\')\n    return pid\n    \n    # pid = request.args(0)\n    # form = SQLFORM(db.product, pid, formstyle="divs")\n    # button = form.elements(\'input[type=submit]\')[0]\n    # button["_value"] = "banana"\n    # if form.process().accepted:\n    #     redirect(URL(\'list\'))\n    # return form\n\n\n@auth.requires_login()\n@auth.requires_membership("admin")\ndef new():\n    # if request.vars:\n    #     name = request.vars.name\n    #     description = request.vars.description\n    #     db.product.description.requires = IS_NOT_EMPTY()\n    #     print db.product.validate_and_insert(name=name, description=description, qtd=1)\n    #     db.commit()   \n    # form para add novo produto\n    # apenas para admin\n\n    hide_fields("product", ["total_price"])\n    message = None\n    form = SQLFORM(db.product, formstyle="divs")\n    if form.process().accepted:\n        message = T("Product registered")\n    elif form.errors:\n        message = T("Error in form")\n\n    return dict(form=form, message=message)\n\n\n\n\n# def grid(query,\n#          fields=None,\n#          field_id=None,\n#          left=None,\n#          headers={},\n#          orderby=None,\n#          groupby=None,\n#          searchable=True,\n#          sortable=True,\n#          paginate=20,\n#          deletable=True,\n#          editable=True,\n#          details=True,\n#          selectable=None,\n#          create=True,\n#          csv=True,\n#          links=None,\n#          links_in_grid=True,\n#          upload = \'<default>\',\n#          args=[],\n#          user_signature = True,\n#          maxtextlengths={},\n#          maxtextlength=20,\n#          onvalidation=None,\n#          oncreate=None,\n#          onupdate=None,\n#          ondelete=None,\n#          sorter_icons=(XML(\'&#x2191;\'),XML(\'&#x2193;\')),\n#          ui = \'web2py\',\n#          showbuttontext=True,\n#          _class="web2py_grid",\n#          formname=\'web2py_grid\',\n#          search_widget=\'default\',\n#          ignore_rw = False,\n#          formstyle = \'table3cols\',\n#          exportclasses = None,\n#          formargs={},\n#          createargs={},\n#          editargs={},\n#          viewargs={},\n#         ):\nresponse._vars=response._caller(edit)\n'
p7
sS'snapshot'
p8
(dp9
S'exception'
p10
(dp11
S'__getslice__'
p12
S"<method-wrapper '__getslice__' of exceptions.SyntaxError object>"
p13
sS'text'
p14
S"'    return pid\\n'"
p15
sS'__str__'
p16
S"<method-wrapper '__str__' of exceptions.SyntaxError object>"
p17
sS'__reduce__'
p18
S'<built-in method __reduce__ of exceptions.SyntaxError object>'
p19
sS'__dict__'
p20
S'{}'
p21
sS'__sizeof__'
p22
S'<built-in method __sizeof__ of exceptions.SyntaxError object>'
p23
sS'__init__'
p24
S"<method-wrapper '__init__' of exceptions.SyntaxError object>"
p25
sS'__setattr__'
p26
S"<method-wrapper '__setattr__' of exceptions.SyntaxError object>"
p27
sS'__reduce_ex__'
p28
S'<built-in method __reduce_ex__ of exceptions.SyntaxError object>'
p29
sS'__new__'
p30
S'<built-in method __new__ of type object>'
p31
sS'__format__'
p32
S'<built-in method __format__ of exceptions.SyntaxError object>'
p33
sS'__class__'
p34
S"<type 'exceptions.SyntaxError'>"
p35
sS'filename'
p36
S"r'c:\\Users\\rochacbruno\\jul12\\cursojulho12\\web2py\\applications\\ecommerce\\controllers/product.py'"
p37
sS'lineno'
p38
S'66'
p39
sS'msg'
p40
S"'invalid syntax'"
p41
sS'__doc__'
p42
S"'Invalid syntax.'"
p43
sS'__getitem__'
p44
S"<method-wrapper '__getitem__' of exceptions.SyntaxError object>"
p45
sS'__setstate__'
p46
S'<built-in method __setstate__ of exceptions.SyntaxError object>'
p47
sS'__getattribute__'
p48
S"<method-wrapper '__getattribute__' of exceptions.SyntaxError object>"
p49
sS'print_file_and_line'
p50
S'None'
p51
sS'args'
p52
S"('invalid syntax', (r'c:\\Users\\rochacbruno\\jul12\\cursojulho12\\web2py\\applications\\ecommerce\\controllers/product.py', 66, 10, '    return pid\\n'))"
p53
sS'__subclasshook__'
p54
S'<built-in method __subclasshook__ of type object>'
p55
sS'offset'
p56
S'10'
p57
sS'__unicode__'
p58
S'<built-in method __unicode__ of exceptions.SyntaxError object>'
p59
sS'__delattr__'
p60
S"<method-wrapper '__delattr__' of exceptions.SyntaxError object>"
p61
sS'__repr__'
p62
S"<method-wrapper '__repr__' of exceptions.SyntaxError object>"
p63
sS'__hash__'
p64
S"<method-wrapper '__hash__' of exceptions.SyntaxError object>"
p65
ssS'evalue'
p66
S'invalid syntax (controllers/product.py, line 66)'
p67
sS'request'
p68
ccopy_reg
_reconstructor
p69
(cgluon.html
BEAUTIFY
p70
c__builtin__
object
p71
NtRp72
(dp73
S'attributes'
p74
(dp75
sS'components'
p76
(lp77
g69
(cgluon.html
TABLE
p78
g71
NtRp79
(dp80
g74
(dp81
S'level'
p82
I5
ssS'parent'
p83
Nsg76
(lp84
g69
(cgluon.html
TR
p85
g71
NtRp86
(dp87
g74
(dp88
sg83
g79
sg76
(lp89
g69
(cgluon.html
TD
p90
g71
NtRp91
(dp92
g74
(dp93
S'_style'
p94
S'font-weight:bold;vertical-align:top'
p95
ssg83
g86
sg76
(lp96
S'ajax'
p97
asbag69
(g90
g71
NtRp98
(dp99
g74
(dp100
S'_valign'
p101
S'top'
p102
ssg83
g86
sg76
(lp103
S':'
asbag69
(g90
g71
NtRp104
(dp105
g74
(dp106
sg83
g86
sg76
(lp107
g69
(g70
g71
NtRp108
(dp109
g74
(dp110
g82
I5
ssg83
g104
sg76
(lp111
S'False'
p112
asbasbasbag69
(g85
g71
NtRp113
(dp114
g74
(dp115
sg83
g79
sg76
(lp116
g69
(g90
g71
NtRp117
(dp118
g74
(dp119
g94
g95
ssg83
g113
sg76
(lp120
S'application'
p121
asbag69
(g90
g71
NtRp122
(dp123
g74
(dp124
g101
g102
ssg83
g113
sg76
(lp125
S':'
asbag69
(g90
g71
NtRp126
(dp127
g74
(dp128
sg83
g113
sg76
(lp129
g69
(g70
g71
NtRp130
(dp131
g74
(dp132
g82
I5
ssg83
g126
sg76
(lp133
S'ecommerce'
p134
asbasbasbag69
(g85
g71
NtRp135
(dp136
g74
(dp137
sg83
g79
sg76
(lp138
g69
(g90
g71
NtRp139
(dp140
g74
(dp141
g94
g95
ssg83
g135
sg76
(lp142
g52
asbag69
(g90
g71
NtRp143
(dp144
g74
(dp145
g101
g102
ssg83
g135
sg76
(lp146
S':'
asbag69
(g90
g71
NtRp147
(dp148
g74
(dp149
sg83
g135
sg76
(lp150
g69
(g70
g71
NtRp151
(dp152
g74
(dp153
g82
I5
ssg83
g147
sg76
(lp154
g69
(g78
g71
NtRp155
(dp156
g74
(dp157
g82
I4
ssg83
Nsg76
(lp158
sbasbasbasbag69
(g85
g71
NtRp159
(dp160
g74
(dp161
sg83
g79
sg76
(lp162
g69
(g90
g71
NtRp163
(dp164
g74
(dp165
g94
g95
ssg83
g159
sg76
(lp166
S'body'
p167
asbag69
(g90
g71
NtRp168
(dp169
g74
(dp170
g101
g102
ssg83
g159
sg76
(lp171
S':'
asbag69
(g90
g71
NtRp172
(dp173
g74
(dp174
sg83
g159
sg76
(lp175
g69
(g70
g71
NtRp176
(dp177
g74
(dp178
g82
I5
ssg83
g172
sg76
(lp179
S'<cStringIO.StringO object at 0x0520BA40>'
p180
asbasbasbag69
(g85
g71
NtRp181
(dp182
g74
(dp183
sg83
g79
sg76
(lp184
g69
(g90
g71
NtRp185
(dp186
g74
(dp187
g94
g95
ssg83
g181
sg76
(lp188
S'client'
p189
asbag69
(g90
g71
NtRp190
(dp191
g74
(dp192
g101
g102
ssg83
g181
sg76
(lp193
S':'
asbag69
(g90
g71
NtRp194
(dp195
g74
(dp196
sg83
g181
sg76
(lp197
g69
(g70
g71
NtRp198
(dp199
g74
(dp200
g82
I5
ssg83
g194
sg76
(lp201
S'127.0.0.1'
p202
asbasbasbag69
(g85
g71
NtRp203
(dp204
g74
(dp205
sg83
g79
sg76
(lp206
g69
(g90
g71
NtRp207
(dp208
g74
(dp209
g94
g95
ssg83
g203
sg76
(lp210
S'controller'
p211
asbag69
(g90
g71
NtRp212
(dp213
g74
(dp214
g101
g102
ssg83
g203
sg76
(lp215
S':'
asbag69
(g90
g71
NtRp216
(dp217
g74
(dp218
sg83
g203
sg76
(lp219
g69
(g70
g71
NtRp220
(dp221
g74
(dp222
g82
I5
ssg83
g216
sg76
(lp223
S'product'
p224
asbasbasbag69
(g85
g71
NtRp225
(dp226
g74
(dp227
sg83
g79
sg76
(lp228
g69
(g90
g71
NtRp229
(dp230
g74
(dp231
g94
g95
ssg83
g225
sg76
(lp232
S'cookies'
p233
asbag69
(g90
g71
NtRp234
(dp235
g74
(dp236
g101
g102
ssg83
g225
sg76
(lp237
S':'
asbag69
(g90
g71
NtRp238
(dp239
g74
(dp240
sg83
g225
sg76
(lp241
g69
(g70
g71
NtRp242
(dp243
g74
(dp244
g82
I5
ssg83
g238
sg76
(lp245
g69
(g78
g71
NtRp246
(dp247
g74
(dp248
g82
I4
ssg83
Nsg76
(lp249
g69
(g85
g71
NtRp250
(dp251
g74
(dp252
sg83
g246
sg76
(lp253
g69
(g90
g71
NtRp254
(dp255
g74
(dp256
g94
g95
ssg83
g250
sg76
(lp257
S'session_id_admin'
p258
asbag69
(g90
g71
NtRp259
(dp260
g74
(dp261
g101
g102
ssg83
g250
sg76
(lp262
S':'
asbag69
(g90
g71
NtRp263
(dp264
g74
(dp265
sg83
g250
sg76
(lp266
g69
(g70
g71
NtRp267
(dp268
g74
(dp269
g82
I4
ssg83
g263
sg76
(lp270
S'127.0.0.1-b76660bc-c2e2-49e9-9b6d-dce1fea2551e'
p271
ag69
(g78
g71
NtRp272
(dp273
g74
(dp274
g82
I3
ssg83
Nsg76
(lp275
g69
(g85
g71
NtRp276
(dp277
g74
(dp278
sg83
g272
sg76
(lp279
g69
(g90
g71
NtRp280
(dp281
g74
(dp282
g94
g95
ssg83
g276
sg76
(lp283
S'comment'
p284
asbag69
(g90
g71
NtRp285
(dp286
g74
(dp287
g101
g102
ssg83
g276
sg76
(lp288
S':'
asbag69
(g90
g71
NtRp289
(dp290
g74
(dp291
sg83
g276
sg76
(lp292
g69
(g70
g71
NtRp293
(dp294
g74
(dp295
g82
I3
ssg83
g289
sg76
(lp296
S''
asbasbasbag69
(g85
g71
NtRp297
(dp298
g74
(dp299
sg83
g272
sg76
(lp300
g69
(g90
g71
NtRp301
(dp302
g74
(dp303
g94
g95
ssg83
g297
sg76
(lp304
S'domain'
p305
asbag69
(g90
g71
NtRp306
(dp307
g74
(dp308
g101
g102
ssg83
g297
sg76
(lp309
S':'
asbag69
(g90
g71
NtRp310
(dp311
g74
(dp312
sg83
g297
sg76
(lp313
g69
(g70
g71
NtRp314
(dp315
g74
(dp316
g82
I3
ssg83
g310
sg76
(lp317
S''
asbasbasbag69
(g85
g71
NtRp318
(dp319
g74
(dp320
sg83
g272
sg76
(lp321
g69
(g90
g71
NtRp322
(dp323
g74
(dp324
g94
g95
ssg83
g318
sg76
(lp325
S'expires'
p326
asbag69
(g90
g71
NtRp327
(dp328
g74
(dp329
g101
g102
ssg83
g318
sg76
(lp330
S':'
asbag69
(g90
g71
NtRp331
(dp332
g74
(dp333
sg83
g318
sg76
(lp334
g69
(g70
g71
NtRp335
(dp336
g74
(dp337
g82
I3
ssg83
g331
sg76
(lp338
S''
asbasbasbag69
(g85
g71
NtRp339
(dp340
g74
(dp341
sg83
g272
sg76
(lp342
g69
(g90
g71
NtRp343
(dp344
g74
(dp345
g94
g95
ssg83
g339
sg76
(lp346
S'httponly'
p347
asbag69
(g90
g71
NtRp348
(dp349
g74
(dp350
g101
g102
ssg83
g339
sg76
(lp351
S':'
asbag69
(g90
g71
NtRp352
(dp353
g74
(dp354
sg83
g339
sg76
(lp355
g69
(g70
g71
NtRp356
(dp357
g74
(dp358
g82
I3
ssg83
g352
sg76
(lp359
S''
asbasbasbag69
(g85
g71
NtRp360
(dp361
g74
(dp362
sg83
g272
sg76
(lp363
g69
(g90
g71
NtRp364
(dp365
g74
(dp366
g94
g95
ssg83
g360
sg76
(lp367
S'max-age'
p368
asbag69
(g90
g71
NtRp369
(dp370
g74
(dp371
g101
g102
ssg83
g360
sg76
(lp372
S':'
asbag69
(g90
g71
NtRp373
(dp374
g74
(dp375
sg83
g360
sg76
(lp376
g69
(g70
g71
NtRp377
(dp378
g74
(dp379
g82
I3
ssg83
g373
sg76
(lp380
S''
asbasbasbag69
(g85
g71
NtRp381
(dp382
g74
(dp383
sg83
g272
sg76
(lp384
g69
(g90
g71
NtRp385
(dp386
g74
(dp387
g94
g95
ssg83
g381
sg76
(lp388
S'path'
p389
asbag69
(g90
g71
NtRp390
(dp391
g74
(dp392
g101
g102
ssg83
g381
sg76
(lp393
S':'
asbag69
(g90
g71
NtRp394
(dp395
g74
(dp396
sg83
g381
sg76
(lp397
g69
(g70
g71
NtRp398
(dp399
g74
(dp400
g82
I3
ssg83
g394
sg76
(lp401
S''
asbasbasbag69
(g85
g71
NtRp402
(dp403
g74
(dp404
sg83
g272
sg76
(lp405
g69
(g90
g71
NtRp406
(dp407
g74
(dp408
g94
g95
ssg83
g402
sg76
(lp409
S'secure'
p410
asbag69
(g90
g71
NtRp411
(dp412
g74
(dp413
g101
g102
ssg83
g402
sg76
(lp414
S':'
asbag69
(g90
g71
NtRp415
(dp416
g74
(dp417
sg83
g402
sg76
(lp418
g69
(g70
g71
NtRp419
(dp420
g74
(dp421
g82
I3
ssg83
g415
sg76
(lp422
S''
asbasbasbag69
(g85
g71
NtRp423
(dp424
g74
(dp425
sg83
g272
sg76
(lp426
g69
(g90
g71
NtRp427
(dp428
g74
(dp429
g94
g95
ssg83
g423
sg76
(lp430
S'version'
p431
asbag69
(g90
g71
NtRp432
(dp433
g74
(dp434
g101
g102
ssg83
g423
sg76
(lp435
S':'
asbag69
(g90
g71
NtRp436
(dp437
g74
(dp438
sg83
g423
sg76
(lp439
g69
(g70
g71
NtRp440
(dp441
g74
(dp442
g82
I3
ssg83
g436
sg76
(lp443
S''
asbasbasbasbasbasbasbag69
(g85
g71
NtRp444
(dp445
g74
(dp446
sg83
g246
sg76
(lp447
g69
(g90
g71
NtRp448
(dp449
g74
(dp450
g94
g95
ssg83
g444
sg76
(lp451
S'session_id_ecommerce'
p452
asbag69
(g90
g71
NtRp453
(dp454
g74
(dp455
g101
g102
ssg83
g444
sg76
(lp456
S':'
asbag69
(g90
g71
NtRp457
(dp458
g74
(dp459
sg83
g444
sg76
(lp460
g69
(g70
g71
NtRp461
(dp462
g74
(dp463
g82
I4
ssg83
g457
sg76
(lp464
S'127.0.0.1-61e66857-a1cd-422b-bcbc-b6eb18034f96'
p465
ag69
(g78
g71
NtRp466
(dp467
g74
(dp468
g82
I3
ssg83
Nsg76
(lp469
g69
(g85
g71
NtRp470
(dp471
g74
(dp472
sg83
g466
sg76
(lp473
g69
(g90
g71
NtRp474
(dp475
g74
(dp476
g94
g95
ssg83
g470
sg76
(lp477
g284
asbag69
(g90
g71
NtRp478
(dp479
g74
(dp480
g101
g102
ssg83
g470
sg76
(lp481
S':'
asbag69
(g90
g71
NtRp482
(dp483
g74
(dp484
sg83
g470
sg76
(lp485
g69
(g70
g71
NtRp486
(dp487
g74
(dp488
g82
I3
ssg83
g482
sg76
(lp489
S''
asbasbasbag69
(g85
g71
NtRp490
(dp491
g74
(dp492
sg83
g466
sg76
(lp493
g69
(g90
g71
NtRp494
(dp495
g74
(dp496
g94
g95
ssg83
g490
sg76
(lp497
g305
asbag69
(g90
g71
NtRp498
(dp499
g74
(dp500
g101
g102
ssg83
g490
sg76
(lp501
S':'
asbag69
(g90
g71
NtRp502
(dp503
g74
(dp504
sg83
g490
sg76
(lp505
g69
(g70
g71
NtRp506
(dp507
g74
(dp508
g82
I3
ssg83
g502
sg76
(lp509
S''
asbasbasbag69
(g85
g71
NtRp510
(dp511
g74
(dp512
sg83
g466
sg76
(lp513
g69
(g90
g71
NtRp514
(dp515
g74
(dp516
g94
g95
ssg83
g510
sg76
(lp517
g326
asbag69
(g90
g71
NtRp518
(dp519
g74
(dp520
g101
g102
ssg83
g510
sg76
(lp521
S':'
asbag69
(g90
g71
NtRp522
(dp523
g74
(dp524
sg83
g510
sg76
(lp525
g69
(g70
g71
NtRp526
(dp527
g74
(dp528
g82
I3
ssg83
g522
sg76
(lp529
S''
asbasbasbag69
(g85
g71
NtRp530
(dp531
g74
(dp532
sg83
g466
sg76
(lp533
g69
(g90
g71
NtRp534
(dp535
g74
(dp536
g94
g95
ssg83
g530
sg76
(lp537
g347
asbag69
(g90
g71
NtRp538
(dp539
g74
(dp540
g101
g102
ssg83
g530
sg76
(lp541
S':'
asbag69
(g90
g71
NtRp542
(dp543
g74
(dp544
sg83
g530
sg76
(lp545
g69
(g70
g71
NtRp546
(dp547
g74
(dp548
g82
I3
ssg83
g542
sg76
(lp549
S''
asbasbasbag69
(g85
g71
NtRp550
(dp551
g74
(dp552
sg83
g466
sg76
(lp553
g69
(g90
g71
NtRp554
(dp555
g74
(dp556
g94
g95
ssg83
g550
sg76
(lp557
g368
asbag69
(g90
g71
NtRp558
(dp559
g74
(dp560
g101
g102
ssg83
g550
sg76
(lp561
S':'
asbag69
(g90
g71
NtRp562
(dp563
g74
(dp564
sg83
g550
sg76
(lp565
g69
(g70
g71
NtRp566
(dp567
g74
(dp568
g82
I3
ssg83
g562
sg76
(lp569
S''
asbasbasbag69
(g85
g71
NtRp570
(dp571
g74
(dp572
sg83
g466
sg76
(lp573
g69
(g90
g71
NtRp574
(dp575
g74
(dp576
g94
g95
ssg83
g570
sg76
(lp577
g389
asbag69
(g90
g71
NtRp578
(dp579
g74
(dp580
g101
g102
ssg83
g570
sg76
(lp581
S':'
asbag69
(g90
g71
NtRp582
(dp583
g74
(dp584
sg83
g570
sg76
(lp585
g69
(g70
g71
NtRp586
(dp587
g74
(dp588
g82
I3
ssg83
g582
sg76
(lp589
S''
asbasbasbag69
(g85
g71
NtRp590
(dp591
g74
(dp592
sg83
g466
sg76
(lp593
g69
(g90
g71
NtRp594
(dp595
g74
(dp596
g94
g95
ssg83
g590
sg76
(lp597
g410
asbag69
(g90
g71
NtRp598
(dp599
g74
(dp600
g101
g102
ssg83
g590
sg76
(lp601
S':'
asbag69
(g90
g71
NtRp602
(dp603
g74
(dp604
sg83
g590
sg76
(lp605
g69
(g70
g71
NtRp606
(dp607
g74
(dp608
g82
I3
ssg83
g602
sg76
(lp609
S''
asbasbasbag69
(g85
g71
NtRp610
(dp611
g74
(dp612
sg83
g466
sg76
(lp613
g69
(g90
g71
NtRp614
(dp615
g74
(dp616
g94
g95
ssg83
g610
sg76
(lp617
g431
asbag69
(g90
g71
NtRp618
(dp619
g74
(dp620
g101
g102
ssg83
g610
sg76
(lp621
S':'
asbag69
(g90
g71
NtRp622
(dp623
g74
(dp624
sg83
g610
sg76
(lp625
g69
(g70
g71
NtRp626
(dp627
g74
(dp628
g82
I3
ssg83
g622
sg76
(lp629
S''
asbasbasbasbasbasbasbasbasbasbasbag69
(g85
g71
NtRp630
(dp631
g74
(dp632
sg83
g79
sg76
(lp633
g69
(g90
g71
NtRp634
(dp635
g74
(dp636
g94
g95
ssg83
g630
sg76
(lp637
S'env'
p638
asbag69
(g90
g71
NtRp639
(dp640
g74
(dp641
g101
g102
ssg83
g630
sg76
(lp642
S':'
asbag69
(g90
g71
NtRp643
(dp644
g74
(dp645
sg83
g630
sg76
(lp646
g69
(g70
g71
NtRp647
(dp648
g74
(dp649
g82
I5
ssg83
g643
sg76
(lp650
g69
(g78
g71
NtRp651
(dp652
g74
(dp653
g82
I4
ssg83
Nsg76
(lp654
g69
(g85
g71
NtRp655
(dp656
g74
(dp657
sg83
g651
sg76
(lp658
g69
(g90
g71
NtRp659
(dp660
g74
(dp661
g94
g95
ssg83
g655
sg76
(lp662
S'app_folders'
p663
asbag69
(g90
g71
NtRp664
(dp665
g74
(dp666
g101
g102
ssg83
g655
sg76
(lp667
S':'
asbag69
(g90
g71
NtRp668
(dp669
g74
(dp670
sg83
g655
sg76
(lp671
g69
(g70
g71
NtRp672
(dp673
g74
(dp674
g82
I4
ssg83
g668
sg76
(lp675
S"set(['c:\\\\Users\\\\rochacbruno\\\\jul12\\\\cursojulho12\\\\web2py\\\\applications\\\\ecommerce\\\\', 'c:\\\\Users\\\\rochacbruno\\\\jul12\\\\cursojulho12\\\\web2py\\\\applications\\\\admin\\\\'])"
p676
asbasbasbag69
(g85
g71
NtRp677
(dp678
g74
(dp679
sg83
g651
sg76
(lp680
g69
(g90
g71
NtRp681
(dp682
g74
(dp683
g94
g95
ssg83
g677
sg76
(lp684
S'applications_parent'
p685
asbag69
(g90
g71
NtRp686
(dp687
g74
(dp688
g101
g102
ssg83
g677
sg76
(lp689
S':'
asbag69
(g90
g71
NtRp690
(dp691
g74
(dp692
sg83
g677
sg76
(lp693
g69
(g70
g71
NtRp694
(dp695
g74
(dp696
g82
I4
ssg83
g690
sg76
(lp697
S'c:\\Users\\rochacbruno\\jul12\\cursojulho12\\web2py'
p698
asbasbasbag69
(g85
g71
NtRp699
(dp700
g74
(dp701
sg83
g651
sg76
(lp702
g69
(g90
g71
NtRp703
(dp704
g74
(dp705
g94
g95
ssg83
g699
sg76
(lp706
S'cmd_args'
p707
asbag69
(g90
g71
NtRp708
(dp709
g74
(dp710
g101
g102
ssg83
g699
sg76
(lp711
S':'
asbag69
(g90
g71
NtRp712
(dp713
g74
(dp714
sg83
g699
sg76
(lp715
g69
(g70
g71
NtRp716
(dp717
g74
(dp718
g82
I4
ssg83
g712
sg76
(lp719
g69
(g78
g71
NtRp720
(dp721
g74
(dp722
g82
I3
ssg83
Nsg76
(lp723
sbasbasbasbag69
(g85
g71
NtRp724
(dp725
g74
(dp726
sg83
g651
sg76
(lp727
g69
(g90
g71
NtRp728
(dp729
g74
(dp730
g94
g95
ssg83
g724
sg76
(lp731
S'cmd_options'
p732
asbag69
(g90
g71
NtRp733
(dp734
g74
(dp735
g101
g102
ssg83
g724
sg76
(lp736
S':'
asbag69
(g90
g71
NtRp737
(dp738
g74
(dp739
sg83
g724
sg76
(lp740
g69
(g70
g71
NtRp741
(dp742
g74
(dp743
g82
I4
ssg83
g737
sg76
(lp744
S"<Values at 0x278b8c8: {'verbose': False, 'ip': '127.0.0.1', 'with_scheduler': False, 'ips': ['192.168.1.100'], 'shutdown_timeout': 5, 'taskbar': False, 'port': 8000, 'maxthreads': None, 'softcron': False, 'server_name': 'rochacbruno-HP', 'bpython': False, 'nogui': False, 'nocron': False, 'extcron': False, 'run_system_tests': False, 'test': None, 'folder': 'c:\\\\Users\\\\rochacbruno\\\\jul12\\\\cursojulho12\\\\web2py', 'config': '', 'import_models': False, 'winservice': '', 'shell': None, 'run': '', 'log_filename': 'httpserver.log', 'debuglevel': 30, 'args': [''], 'socket_timeout': 5, 'ssl_ca_certificate': None, 'scheduler': None, 'profiler_filename': None, 'ssl_private_key': '', 'password': '1234', 'request_queue_size': 5, 'ssl_certificate': '', 'cronjob': False, 'numthreads': None, 'quiet': False, 'interfaces': None, 'minthreads': None, 'timeout': 10, 'plain': False, 'nobanner': False, 'pid_filename': 'httpserver.pid'}>"
p745
asbasbasbag69
(g85
g71
NtRp746
(dp747
g74
(dp748
sg83
g651
sg76
(lp749
g69
(g90
g71
NtRp750
(dp751
g74
(dp752
g94
g95
ssg83
g746
sg76
(lp753
S'db_sessions'
p754
asbag69
(g90
g71
NtRp755
(dp756
g74
(dp757
g101
g102
ssg83
g746
sg76
(lp758
S':'
asbag69
(g90
g71
NtRp759
(dp760
g74
(dp761
sg83
g746
sg76
(lp762
g69
(g70
g71
NtRp763
(dp764
g74
(dp765
g82
I4
ssg83
g759
sg76
(lp766
S'set([])'
p767
asbasbasbag69
(g85
g71
NtRp768
(dp769
g74
(dp770
sg83
g651
sg76
(lp771
g69
(g90
g71
NtRp772
(dp773
g74
(dp774
g94
g95
ssg83
g768
sg76
(lp775
S'debugging'
p776
asbag69
(g90
g71
NtRp777
(dp778
g74
(dp779
g101
g102
ssg83
g768
sg76
(lp780
S':'
asbag69
(g90
g71
NtRp781
(dp782
g74
(dp783
sg83
g768
sg76
(lp784
g69
(g70
g71
NtRp785
(dp786
g74
(dp787
g82
I4
ssg83
g781
sg76
(lp788
g112
asbasbasbag69
(g85
g71
NtRp789
(dp790
g74
(dp791
sg83
g651
sg76
(lp792
g69
(g90
g71
NtRp793
(dp794
g74
(dp795
g94
g95
ssg83
g789
sg76
(lp796
S'gluon_parent'
p797
asbag69
(g90
g71
NtRp798
(dp799
g74
(dp800
g101
g102
ssg83
g789
sg76
(lp801
S':'
asbag69
(g90
g71
NtRp802
(dp803
g74
(dp804
sg83
g789
sg76
(lp805
g69
(g70
g71
NtRp806
(dp807
g74
(dp808
g82
I4
ssg83
g802
sg76
(lp809
S'c:\\Users\\rochacbruno\\jul12\\cursojulho12\\web2py'
p810
asbasbasbag69
(g85
g71
NtRp811
(dp812
g74
(dp813
sg83
g651
sg76
(lp814
g69
(g90
g71
NtRp815
(dp816
g74
(dp817
g94
g95
ssg83
g811
sg76
(lp818
S'http_accept'
p819
asbag69
(g90
g71
NtRp820
(dp821
g74
(dp822
g101
g102
ssg83
g811
sg76
(lp823
S':'
asbag69
(g90
g71
NtRp824
(dp825
g74
(dp826
sg83
g811
sg76
(lp827
g69
(g70
g71
NtRp828
(dp829
g74
(dp830
g82
I4
ssg83
g824
sg76
(lp831
S'text/html,application/xhtml+xml,application/xml;q=0.9,*/*;q=0.8'
p832
asbasbasbag69
(g85
g71
NtRp833
(dp834
g74
(dp835
sg83
g651
sg76
(lp836
g69
(g90
g71
NtRp837
(dp838
g74
(dp839
g94
g95
ssg83
g833
sg76
(lp840
S'http_accept_encoding'
p841
asbag69
(g90
g71
NtRp842
(dp843
g74
(dp844
g101
g102
ssg83
g833
sg76
(lp845
S':'
asbag69
(g90
g71
NtRp846
(dp847
g74
(dp848
sg83
g833
sg76
(lp849
g69
(g70
g71
NtRp850
(dp851
g74
(dp852
g82
I4
ssg83
g846
sg76
(lp853
S'gzip, deflate'
p854
asbasbasbag69
(g85
g71
NtRp855
(dp856
g74
(dp857
sg83
g651
sg76
(lp858
g69
(g90
g71
NtRp859
(dp860
g74
(dp861
g94
g95
ssg83
g855
sg76
(lp862
S'http_accept_language'
p863
asbag69
(g90
g71
NtRp864
(dp865
g74
(dp866
g101
g102
ssg83
g855
sg76
(lp867
S':'
asbag69
(g90
g71
NtRp868
(dp869
g74
(dp870
sg83
g855
sg76
(lp871
g69
(g70
g71
NtRp872
(dp873
g74
(dp874
g82
I4
ssg83
g868
sg76
(lp875
S'en,pt-br;q=0.8,pt;q=0.5,en-us;q=0.3'
p876
asbasbasbag69
(g85
g71
NtRp877
(dp878
g74
(dp879
sg83
g651
sg76
(lp880
g69
(g90
g71
NtRp881
(dp882
g74
(dp883
g94
g95
ssg83
g877
sg76
(lp884
S'http_connection'
p885
asbag69
(g90
g71
NtRp886
(dp887
g74
(dp888
g101
g102
ssg83
g877
sg76
(lp889
S':'
asbag69
(g90
g71
NtRp890
(dp891
g74
(dp892
sg83
g877
sg76
(lp893
g69
(g70
g71
NtRp894
(dp895
g74
(dp896
g82
I4
ssg83
g890
sg76
(lp897
S'keep-alive'
p898
asbasbasbag69
(g85
g71
NtRp899
(dp900
g74
(dp901
sg83
g651
sg76
(lp902
g69
(g90
g71
NtRp903
(dp904
g74
(dp905
g94
g95
ssg83
g899
sg76
(lp906
S'http_cookie'
p907
asbag69
(g90
g71
NtRp908
(dp909
g74
(dp910
g101
g102
ssg83
g899
sg76
(lp911
S':'
asbag69
(g90
g71
NtRp912
(dp913
g74
(dp914
sg83
g899
sg76
(lp915
g69
(g70
g71
NtRp916
(dp917
g74
(dp918
g82
I4
ssg83
g912
sg76
(lp919
S'session_id_ecommerce=127.0.0.1-61e66857-a1cd-422b-bcbc-b6eb18034f96; session_id_admin=127.0.0.1-b76660bc-c2e2-49e9-9b6d-dce1fea2551e'
p920
asbasbasbag69
(g85
g71
NtRp921
(dp922
g74
(dp923
sg83
g651
sg76
(lp924
g69
(g90
g71
NtRp925
(dp926
g74
(dp927
g94
g95
ssg83
g921
sg76
(lp928
S'http_host'
p929
asbag69
(g90
g71
NtRp930
(dp931
g74
(dp932
g101
g102
ssg83
g921
sg76
(lp933
S':'
asbag69
(g90
g71
NtRp934
(dp935
g74
(dp936
sg83
g921
sg76
(lp937
g69
(g70
g71
NtRp938
(dp939
g74
(dp940
g82
I4
ssg83
g934
sg76
(lp941
S'localhost:8000'
p942
asbasbasbag69
(g85
g71
NtRp943
(dp944
g74
(dp945
sg83
g651
sg76
(lp946
g69
(g90
g71
NtRp947
(dp948
g74
(dp949
g94
g95
ssg83
g943
sg76
(lp950
S'http_user_agent'
p951
asbag69
(g90
g71
NtRp952
(dp953
g74
(dp954
g101
g102
ssg83
g943
sg76
(lp955
S':'
asbag69
(g90
g71
NtRp956
(dp957
g74
(dp958
sg83
g943
sg76
(lp959
g69
(g70
g71
NtRp960
(dp961
g74
(dp962
g82
I4
ssg83
g956
sg76
(lp963
S'Mozilla/5.0 (Windows NT 6.1; rv:14.0) Gecko/20100101 Firefox/14.0.1'
p964
asbasbasbag69
(g85
g71
NtRp965
(dp966
g74
(dp967
sg83
g651
sg76
(lp968
g69
(g90
g71
NtRp969
(dp970
g74
(dp971
g94
g95
ssg83
g965
sg76
(lp972
S'is_jython'
p973
asbag69
(g90
g71
NtRp974
(dp975
g74
(dp976
g101
g102
ssg83
g965
sg76
(lp977
S':'
asbag69
(g90
g71
NtRp978
(dp979
g74
(dp980
sg83
g965
sg76
(lp981
g69
(g70
g71
NtRp982
(dp983
g74
(dp984
g82
I4
ssg83
g978
sg76
(lp985
g112
asbasbasbag69
(g85
g71
NtRp986
(dp987
g74
(dp988
sg83
g651
sg76
(lp989
g69
(g90
g71
NtRp990
(dp991
g74
(dp992
g94
g95
ssg83
g986
sg76
(lp993
S'is_pypy'
p994
asbag69
(g90
g71
NtRp995
(dp996
g74
(dp997
g101
g102
ssg83
g986
sg76
(lp998
S':'
asbag69
(g90
g71
NtRp999
(dp1000
g74
(dp1001
sg83
g986
sg76
(lp1002
g69
(g70
g71
NtRp1003
(dp1004
g74
(dp1005
g82
I4
ssg83
g999
sg76
(lp1006
g112
asbasbasbag69
(g85
g71
NtRp1007
(dp1008
g74
(dp1009
sg83
g651
sg76
(lp1010
g69
(g90
g71
NtRp1011
(dp1012
g74
(dp1013
g94
g95
ssg83
g1007
sg76
(lp1014
S'path_info'
p1015
asbag69
(g90
g71
NtRp1016
(dp1017
g74
(dp1018
g101
g102
ssg83
g1007
sg76
(lp1019
S':'
asbag69
(g90
g71
NtRp1020
(dp1021
g74
(dp1022
sg83
g1007
sg76
(lp1023
g69
(g70
g71
NtRp1024
(dp1025
g74
(dp1026
g82
I4
ssg83
g1020
sg76
(lp1027
S'/ecommerce/product/edit/'
p1028
asbasbasbag69
(g85
g71
NtRp1029
(dp1030
g74
(dp1031
sg83
g651
sg76
(lp1032
g69
(g90
g71
NtRp1033
(dp1034
g74
(dp1035
g94
g95
ssg83
g1029
sg76
(lp1036
S'query_string'
p1037
asbag69
(g90
g71
NtRp1038
(dp1039
g74
(dp1040
g101
g102
ssg83
g1029
sg76
(lp1041
S':'
asbag69
(g90
g71
NtRp1042
(dp1043
g74
(dp1044
sg83
g1029
sg76
(lp1045
g69
(g70
g71
NtRp1046
(dp1047
g74
(dp1048
g82
I4
ssg83
g1042
sg76
(lp1049
S''
asbasbasbag69
(g85
g71
NtRp1050
(dp1051
g74
(dp1052
sg83
g651
sg76
(lp1053
g69
(g90
g71
NtRp1054
(dp1055
g74
(dp1056
g94
g95
ssg83
g1050
sg76
(lp1057
S'remote_addr'
p1058
asbag69
(g90
g71
NtRp1059
(dp1060
g74
(dp1061
g101
g102
ssg83
g1050
sg76
(lp1062
S':'
asbag69
(g90
g71
NtRp1063
(dp1064
g74
(dp1065
sg83
g1050
sg76
(lp1066
g69
(g70
g71
NtRp1067
(dp1068
g74
(dp1069
g82
I4
ssg83
g1063
sg76
(lp1070
g202
asbasbasbag69
(g85
g71
NtRp1071
(dp1072
g74
(dp1073
sg83
g651
sg76
(lp1074
g69
(g90
g71
NtRp1075
(dp1076
g74
(dp1077
g94
g95
ssg83
g1071
sg76
(lp1078
S'remote_port'
p1079
asbag69
(g90
g71
NtRp1080
(dp1081
g74
(dp1082
g101
g102
ssg83
g1071
sg76
(lp1083
S':'
asbag69
(g90
g71
NtRp1084
(dp1085
g74
(dp1086
sg83
g1071
sg76
(lp1087
g69
(g70
g71
NtRp1088
(dp1089
g74
(dp1090
g82
I4
ssg83
g1084
sg76
(lp1091
S'49614'
p1092
asbasbasbag69
(g85
g71
NtRp1093
(dp1094
g74
(dp1095
sg83
g651
sg76
(lp1096
g69
(g90
g71
NtRp1097
(dp1098
g74
(dp1099
g94
g95
ssg83
g1093
sg76
(lp1100
S'request_method'
p1101
asbag69
(g90
g71
NtRp1102
(dp1103
g74
(dp1104
g101
g102
ssg83
g1093
sg76
(lp1105
S':'
asbag69
(g90
g71
NtRp1106
(dp1107
g74
(dp1108
sg83
g1093
sg76
(lp1109
g69
(g70
g71
NtRp1110
(dp1111
g74
(dp1112
g82
I4
ssg83
g1106
sg76
(lp1113
S'GET'
p1114
asbasbasbag69
(g85
g71
NtRp1115
(dp1116
g74
(dp1117
sg83
g651
sg76
(lp1118
g69
(g90
g71
NtRp1119
(dp1120
g74
(dp1121
g94
g95
ssg83
g1115
sg76
(lp1122
S'script_name'
p1123
asbag69
(g90
g71
NtRp1124
(dp1125
g74
(dp1126
g101
g102
ssg83
g1115
sg76
(lp1127
S':'
asbag69
(g90
g71
NtRp1128
(dp1129
g74
(dp1130
sg83
g1115
sg76
(lp1131
g69
(g70
g71
NtRp1132
(dp1133
g74
(dp1134
g82
I4
ssg83
g1128
sg76
(lp1135
S''
asbasbasbag69
(g85
g71
NtRp1136
(dp1137
g74
(dp1138
sg83
g651
sg76
(lp1139
g69
(g90
g71
NtRp1140
(dp1141
g74
(dp1142
g94
g95
ssg83
g1136
sg76
(lp1143
S'server_name'
p1144
asbag69
(g90
g71
NtRp1145
(dp1146
g74
(dp1147
g101
g102
ssg83
g1136
sg76
(lp1148
S':'
asbag69
(g90
g71
NtRp1149
(dp1150
g74
(dp1151
sg83
g1136
sg76
(lp1152
g69
(g70
g71
NtRp1153
(dp1154
g74
(dp1155
g82
I4
ssg83
g1149
sg76
(lp1156
S'rochacbruno-HP'
p1157
asbasbasbag69
(g85
g71
NtRp1158
(dp1159
g74
(dp1160
sg83
g651
sg76
(lp1161
g69
(g90
g71
NtRp1162
(dp1163
g74
(dp1164
g94
g95
ssg83
g1158
sg76
(lp1165
S'server_port'
p1166
asbag69
(g90
g71
NtRp1167
(dp1168
g74
(dp1169
g101
g102
ssg83
g1158
sg76
(lp1170
S':'
asbag69
(g90
g71
NtRp1171
(dp1172
g74
(dp1173
sg83
g1158
sg76
(lp1174
g69
(g70
g71
NtRp1175
(dp1176
g74
(dp1177
g82
I4
ssg83
g1171
sg76
(lp1178
S'8000'
p1179
asbasbasbag69
(g85
g71
NtRp1180
(dp1181
g74
(dp1182
sg83
g651
sg76
(lp1183
g69
(g90
g71
NtRp1184
(dp1185
g74
(dp1186
g94
g95
ssg83
g1180
sg76
(lp1187
S'server_protocol'
p1188
asbag69
(g90
g71
NtRp1189
(dp1190
g74
(dp1191
g101
g102
ssg83
g1180
sg76
(lp1192
S':'
asbag69
(g90
g71
NtRp1193
(dp1194
g74
(dp1195
sg83
g1180
sg76
(lp1196
g69
(g70
g71
NtRp1197
(dp1198
g74
(dp1199
g82
I4
ssg83
g1193
sg76
(lp1200
S'HTTP/1.1'
p1201
asbasbasbag69
(g85
g71
NtRp1202
(dp1203
g74
(dp1204
sg83
g651
sg76
(lp1205
g69
(g90
g71
NtRp1206
(dp1207
g74
(dp1208
g94
g95
ssg83
g1202
sg76
(lp1209
S'server_software'
p1210
asbag69
(g90
g71
NtRp1211
(dp1212
g74
(dp1213
g101
g102
ssg83
g1202
sg76
(lp1214
S':'
asbag69
(g90
g71
NtRp1215
(dp1216
g74
(dp1217
sg83
g1202
sg76
(lp1218
g69
(g70
g71
NtRp1219
(dp1220
g74
(dp1221
g82
I4
ssg83
g1215
sg76
(lp1222
S'Rocket 1.2.4'
p1223
asbasbasbag69
(g85
g71
NtRp1224
(dp1225
g74
(dp1226
sg83
g651
sg76
(lp1227
g69
(g90
g71
NtRp1228
(dp1229
g74
(dp1230
g94
g95
ssg83
g1224
sg76
(lp1231
S'web2py_crontype'
p1232
asbag69
(g90
g71
NtRp1233
(dp1234
g74
(dp1235
g101
g102
ssg83
g1224
sg76
(lp1236
S':'
asbag69
(g90
g71
NtRp1237
(dp1238
g74
(dp1239
sg83
g1224
sg76
(lp1240
g69
(g70
g71
NtRp1241
(dp1242
g74
(dp1243
g82
I4
ssg83
g1237
sg76
(lp1244
S'hard'
p1245
asbasbasbag69
(g85
g71
NtRp1246
(dp1247
g74
(dp1248
sg83
g651
sg76
(lp1249
g69
(g90
g71
NtRp1250
(dp1251
g74
(dp1252
g94
g95
ssg83
g1246
sg76
(lp1253
S'web2py_path'
p1254
asbag69
(g90
g71
NtRp1255
(dp1256
g74
(dp1257
g101
g102
ssg83
g1246
sg76
(lp1258
S':'
asbag69
(g90
g71
NtRp1259
(dp1260
g74
(dp1261
sg83
g1246
sg76
(lp1262
g69
(g70
g71
NtRp1263
(dp1264
g74
(dp1265
g82
I4
ssg83
g1259
sg76
(lp1266
g698
asbasbasbag69
(g85
g71
NtRp1267
(dp1268
g74
(dp1269
sg83
g651
sg76
(lp1270
g69
(g90
g71
NtRp1271
(dp1272
g74
(dp1273
g94
g95
ssg83
g1267
sg76
(lp1274
S'web2py_version'
p1275
asbag69
(g90
g71
NtRp1276
(dp1277
g74
(dp1278
g101
g102
ssg83
g1267
sg76
(lp1279
S':'
asbag69
(g90
g71
NtRp1280
(dp1281
g74
(dp1282
sg83
g1267
sg76
(lp1283
g69
(g70
g71
NtRp1284
(dp1285
g74
(dp1286
g82
I4
ssg83
g1280
sg76
(lp1287
g69
(g78
g71
NtRp1288
(dp1289
g74
(dp1290
g82
I3
ssg83
Nsg76
(lp1291
g69
(g85
g71
NtRp1292
(dp1293
g74
(dp1294
sg83
g1288
sg76
(lp1295
g69
(g90
g71
NtRp1296
(dp1297
g74
(dp1298
sg83
g1292
sg76
(lp1299
g69
(g70
g71
NtRp1300
(dp1301
g74
(dp1302
g82
I3
ssg83
g1296
sg76
(lp1303
S'2'
asbasbasbag69
(g85
g71
NtRp1304
(dp1305
g74
(dp1306
sg83
g1288
sg76
(lp1307
g69
(g90
g71
NtRp1308
(dp1309
g74
(dp1310
sg83
g1304
sg76
(lp1311
g69
(g70
g71
NtRp1312
(dp1313
g74
(dp1314
g82
I3
ssg83
g1308
sg76
(lp1315
S'0'
asbasbasbag69
(g85
g71
NtRp1316
(dp1317
g74
(dp1318
sg83
g1288
sg76
(lp1319
g69
(g90
g71
NtRp1320
(dp1321
g74
(dp1322
sg83
g1316
sg76
(lp1323
g69
(g70
g71
NtRp1324
(dp1325
g74
(dp1326
g82
I3
ssg83
g1320
sg76
(lp1327
S'0'
asbasbasbag69
(g85
g71
NtRp1328
(dp1329
g74
(dp1330
sg83
g1288
sg76
(lp1331
g69
(g90
g71
NtRp1332
(dp1333
g74
(dp1334
sg83
g1328
sg76
(lp1335
g69
(g70
g71
NtRp1336
(dp1337
g74
(dp1338
g82
I3
ssg83
g1332
sg76
(lp1339
S'datetime.datetime(2012, 8, 10, 13, 1, 31)'
p1340
asbasbasbag69
(g85
g71
NtRp1341
(dp1342
g74
(dp1343
sg83
g1288
sg76
(lp1344
g69
(g90
g71
NtRp1345
(dp1346
g74
(dp1347
sg83
g1341
sg76
(lp1348
g69
(g70
g71
NtRp1349
(dp1350
g74
(dp1351
g82
I3
ssg83
g1345
sg76
(lp1352
S'dev'
p1353
asbasbasbasbasbasbasbag69
(g85
g71
NtRp1354
(dp1355
g74
(dp1356
sg83
g651
sg76
(lp1357
g69
(g90
g71
NtRp1358
(dp1359
g74
(dp1360
g94
g95
ssg83
g1354
sg76
(lp1361
S'wsgi_errors'
p1362
asbag69
(g90
g71
NtRp1363
(dp1364
g74
(dp1365
g101
g102
ssg83
g1354
sg76
(lp1366
S':'
asbag69
(g90
g71
NtRp1367
(dp1368
g74
(dp1369
sg83
g1354
sg76
(lp1370
g69
(g70
g71
NtRp1371
(dp1372
g74
(dp1373
g82
I4
ssg83
g1367
sg76
(lp1374
S"<open file '<stderr>', mode 'w' at 0x013450D0>"
p1375
asbasbasbag69
(g85
g71
NtRp1376
(dp1377
g74
(dp1378
sg83
g651
sg76
(lp1379
g69
(g90
g71
NtRp1380
(dp1381
g74
(dp1382
g94
g95
ssg83
g1376
sg76
(lp1383
S'wsgi_file_wrapper'
p1384
asbag69
(g90
g71
NtRp1385
(dp1386
g74
(dp1387
g101
g102
ssg83
g1376
sg76
(lp1388
S':'
asbag69
(g90
g71
NtRp1389
(dp1390
g74
(dp1391
sg83
g1376
sg76
(lp1392
g69
(g70
g71
NtRp1393
(dp1394
g74
(dp1395
g82
I4
ssg83
g1389
sg76
(lp1396
S'<class wsgiref.util.FileWrapper at 0x026C43B0>'
p1397
asbasbasbag69
(g85
g71
NtRp1398
(dp1399
g74
(dp1400
sg83
g651
sg76
(lp1401
g69
(g90
g71
NtRp1402
(dp1403
g74
(dp1404
g94
g95
ssg83
g1398
sg76
(lp1405
S'wsgi_input'
p1406
asbag69
(g90
g71
NtRp1407
(dp1408
g74
(dp1409
g101
g102
ssg83
g1398
sg76
(lp1410
S':'
asbag69
(g90
g71
NtRp1411
(dp1412
g74
(dp1413
sg83
g1398
sg76
(lp1414
g69
(g70
g71
NtRp1415
(dp1416
g74
(dp1417
g82
I4
ssg83
g1411
sg76
(lp1418
S'<socket._fileobject object at 0x0298F270>'
p1419
asbasbasbag69
(g85
g71
NtRp1420
(dp1421
g74
(dp1422
sg83
g651
sg76
(lp1423
g69
(g90
g71
NtRp1424
(dp1425
g74
(dp1426
g94
g95
ssg83
g1420
sg76
(lp1427
S'wsgi_multiprocess'
p1428
asbag69
(g90
g71
NtRp1429
(dp1430
g74
(dp1431
g101
g102
ssg83
g1420
sg76
(lp1432
S':'
asbag69
(g90
g71
NtRp1433
(dp1434
g74
(dp1435
sg83
g1420
sg76
(lp1436
g69
(g70
g71
NtRp1437
(dp1438
g74
(dp1439
g82
I4
ssg83
g1433
sg76
(lp1440
g112
asbasbasbag69
(g85
g71
NtRp1441
(dp1442
g74
(dp1443
sg83
g651
sg76
(lp1444
g69
(g90
g71
NtRp1445
(dp1446
g74
(dp1447
g94
g95
ssg83
g1441
sg76
(lp1448
S'wsgi_multithread'
p1449
asbag69
(g90
g71
NtRp1450
(dp1451
g74
(dp1452
g101
g102
ssg83
g1441
sg76
(lp1453
S':'
asbag69
(g90
g71
NtRp1454
(dp1455
g74
(dp1456
sg83
g1441
sg76
(lp1457
g69
(g70
g71
NtRp1458
(dp1459
g74
(dp1460
g82
I4
ssg83
g1454
sg76
(lp1461
S'True'
p1462
asbasbasbag69
(g85
g71
NtRp1463
(dp1464
g74
(dp1465
sg83
g651
sg76
(lp1466
g69
(g90
g71
NtRp1467
(dp1468
g74
(dp1469
g94
g95
ssg83
g1463
sg76
(lp1470
S'wsgi_run_once'
p1471
asbag69
(g90
g71
NtRp1472
(dp1473
g74
(dp1474
g101
g102
ssg83
g1463
sg76
(lp1475
S':'
asbag69
(g90
g71
NtRp1476
(dp1477
g74
(dp1478
sg83
g1463
sg76
(lp1479
g69
(g70
g71
NtRp1480
(dp1481
g74
(dp1482
g82
I4
ssg83
g1476
sg76
(lp1483
g112
asbasbasbag69
(g85
g71
NtRp1484
(dp1485
g74
(dp1486
sg83
g651
sg76
(lp1487
g69
(g90
g71
NtRp1488
(dp1489
g74
(dp1490
g94
g95
ssg83
g1484
sg76
(lp1491
S'wsgi_url_scheme'
p1492
asbag69
(g90
g71
NtRp1493
(dp1494
g74
(dp1495
g101
g102
ssg83
g1484
sg76
(lp1496
S':'
asbag69
(g90
g71
NtRp1497
(dp1498
g74
(dp1499
sg83
g1484
sg76
(lp1500
g69
(g70
g71
NtRp1501
(dp1502
g74
(dp1503
g82
I4
ssg83
g1497
sg76
(lp1504
S'http'
p1505
asbasbasbag69
(g85
g71
NtRp1506
(dp1507
g74
(dp1508
sg83
g651
sg76
(lp1509
g69
(g90
g71
NtRp1510
(dp1511
g74
(dp1512
g94
g95
ssg83
g1506
sg76
(lp1513
S'wsgi_version'
p1514
asbag69
(g90
g71
NtRp1515
(dp1516
g74
(dp1517
g101
g102
ssg83
g1506
sg76
(lp1518
S':'
asbag69
(g90
g71
NtRp1519
(dp1520
g74
(dp1521
sg83
g1506
sg76
(lp1522
g69
(g70
g71
NtRp1523
(dp1524
g74
(dp1525
g82
I4
ssg83
g1519
sg76
(lp1526
g69
(g78
g71
NtRp1527
(dp1528
g74
(dp1529
g82
I3
ssg83
Nsg76
(lp1530
g69
(g85
g71
NtRp1531
(dp1532
g74
(dp1533
sg83
g1527
sg76
(lp1534
g69
(g90
g71
NtRp1535
(dp1536
g74
(dp1537
sg83
g1531
sg76
(lp1538
g69
(g70
g71
NtRp1539
(dp1540
g74
(dp1541
g82
I3
ssg83
g1535
sg76
(lp1542
S'1'
asbasbasbag69
(g85
g71
NtRp1543
(dp1544
g74
(dp1545
sg83
g1527
sg76
(lp1546
g69
(g90
g71
NtRp1547
(dp1548
g74
(dp1549
sg83
g1543
sg76
(lp1550
g69
(g70
g71
NtRp1551
(dp1552
g74
(dp1553
g82
I3
ssg83
g1547
sg76
(lp1554
S'0'
asbasbasbasbasbasbasbasbasbasbasbag69
(g85
g71
NtRp1555
(dp1556
g74
(dp1557
sg83
g79
sg76
(lp1558
g69
(g90
g71
NtRp1559
(dp1560
g74
(dp1561
g94
g95
ssg83
g1555
sg76
(lp1562
S'extension'
p1563
asbag69
(g90
g71
NtRp1564
(dp1565
g74
(dp1566
g101
g102
ssg83
g1555
sg76
(lp1567
S':'
asbag69
(g90
g71
NtRp1568
(dp1569
g74
(dp1570
sg83
g1555
sg76
(lp1571
g69
(g70
g71
NtRp1572
(dp1573
g74
(dp1574
g82
I5
ssg83
g1568
sg76
(lp1575
S'html'
p1576
asbasbasbag69
(g85
g71
NtRp1577
(dp1578
g74
(dp1579
sg83
g79
sg76
(lp1580
g69
(g90
g71
NtRp1581
(dp1582
g74
(dp1583
g94
g95
ssg83
g1577
sg76
(lp1584
S'folder'
p1585
asbag69
(g90
g71
NtRp1586
(dp1587
g74
(dp1588
g101
g102
ssg83
g1577
sg76
(lp1589
S':'
asbag69
(g90
g71
NtRp1590
(dp1591
g74
(dp1592
sg83
g1577
sg76
(lp1593
g69
(g70
g71
NtRp1594
(dp1595
g74
(dp1596
g82
I5
ssg83
g1590
sg76
(lp1597
S'c:\\Users\\rochacbruno\\jul12\\cursojulho12\\web2py\\applications\\ecommerce\\'
p1598
asbasbasbag69
(g85
g71
NtRp1599
(dp1600
g74
(dp1601
sg83
g79
sg76
(lp1602
g69
(g90
g71
NtRp1603
(dp1604
g74
(dp1605
g94
g95
ssg83
g1599
sg76
(lp1606
S'function'
p1607
asbag69
(g90
g71
NtRp1608
(dp1609
g74
(dp1610
g101
g102
ssg83
g1599
sg76
(lp1611
S':'
asbag69
(g90
g71
NtRp1612
(dp1613
g74
(dp1614
sg83
g1599
sg76
(lp1615
g69
(g70
g71
NtRp1616
(dp1617
g74
(dp1618
g82
I5
ssg83
g1612
sg76
(lp1619
S'edit'
p1620
asbasbasbag69
(g85
g71
NtRp1621
(dp1622
g74
(dp1623
sg83
g79
sg76
(lp1624
g69
(g90
g71
NtRp1625
(dp1626
g74
(dp1627
g94
g95
ssg83
g1621
sg76
(lp1628
S'get_vars'
p1629
asbag69
(g90
g71
NtRp1630
(dp1631
g74
(dp1632
g101
g102
ssg83
g1621
sg76
(lp1633
S':'
asbag69
(g90
g71
NtRp1634
(dp1635
g74
(dp1636
sg83
g1621
sg76
(lp1637
g69
(g70
g71
NtRp1638
(dp1639
g74
(dp1640
g82
I5
ssg83
g1634
sg76
(lp1641
g69
(g78
g71
NtRp1642
(dp1643
g74
(dp1644
g82
I4
ssg83
Nsg76
(lp1645
sbasbasbasbag69
(g85
g71
NtRp1646
(dp1647
g74
(dp1648
sg83
g79
sg76
(lp1649
g69
(g90
g71
NtRp1650
(dp1651
g74
(dp1652
g94
g95
ssg83
g1646
sg76
(lp1653
S'global_settings'
p1654
asbag69
(g90
g71
NtRp1655
(dp1656
g74
(dp1657
g101
g102
ssg83
g1646
sg76
(lp1658
S':'
asbag69
(g90
g71
NtRp1659
(dp1660
g74
(dp1661
sg83
g1646
sg76
(lp1662
g69
(g70
g71
NtRp1663
(dp1664
g74
(dp1665
g82
I5
ssg83
g1659
sg76
(lp1666
g69
(g78
g71
NtRp1667
(dp1668
g74
(dp1669
g82
I4
ssg83
Nsg76
(lp1670
g69
(g85
g71
NtRp1671
(dp1672
g74
(dp1673
sg83
g1667
sg76
(lp1674
g69
(g90
g71
NtRp1675
(dp1676
g74
(dp1677
g94
g95
ssg83
g1671
sg76
(lp1678
g663
asbag69
(g90
g71
NtRp1679
(dp1680
g74
(dp1681
g101
g102
ssg83
g1671
sg76
(lp1682
S':'
asbag69
(g90
g71
NtRp1683
(dp1684
g74
(dp1685
sg83
g1671
sg76
(lp1686
g69
(g70
g71
NtRp1687
(dp1688
g74
(dp1689
g82
I4
ssg83
g1683
sg76
(lp1690
S"set(['c:\\\\Users\\\\rochacbruno\\\\jul12\\\\cursojulho12\\\\web2py\\\\applications\\\\ecommerce\\\\', 'c:\\\\Users\\\\rochacbruno\\\\jul12\\\\cursojulho12\\\\web2py\\\\applications\\\\admin\\\\'])"
p1691
asbasbasbag69
(g85
g71
NtRp1692
(dp1693
g74
(dp1694
sg83
g1667
sg76
(lp1695
g69
(g90
g71
NtRp1696
(dp1697
g74
(dp1698
g94
g95
ssg83
g1692
sg76
(lp1699
g685
asbag69
(g90
g71
NtRp1700
(dp1701
g74
(dp1702
g101
g102
ssg83
g1692
sg76
(lp1703
S':'
asbag69
(g90
g71
NtRp1704
(dp1705
g74
(dp1706
sg83
g1692
sg76
(lp1707
g69
(g70
g71
NtRp1708
(dp1709
g74
(dp1710
g82
I4
ssg83
g1704
sg76
(lp1711
g698
asbasbasbag69
(g85
g71
NtRp1712
(dp1713
g74
(dp1714
sg83
g1667
sg76
(lp1715
g69
(g90
g71
NtRp1716
(dp1717
g74
(dp1718
g94
g95
ssg83
g1712
sg76
(lp1719
g707
asbag69
(g90
g71
NtRp1720
(dp1721
g74
(dp1722
g101
g102
ssg83
g1712
sg76
(lp1723
S':'
asbag69
(g90
g71
NtRp1724
(dp1725
g74
(dp1726
sg83
g1712
sg76
(lp1727
g69
(g70
g71
NtRp1728
(dp1729
g74
(dp1730
g82
I4
ssg83
g1724
sg76
(lp1731
g69
(g78
g71
NtRp1732
(dp1733
g74
(dp1734
g82
I3
ssg83
Nsg76
(lp1735
sbasbasbasbag69
(g85
g71
NtRp1736
(dp1737
g74
(dp1738
sg83
g1667
sg76
(lp1739
g69
(g90
g71
NtRp1740
(dp1741
g74
(dp1742
g94
g95
ssg83
g1736
sg76
(lp1743
g732
asbag69
(g90
g71
NtRp1744
(dp1745
g74
(dp1746
g101
g102
ssg83
g1736
sg76
(lp1747
S':'
asbag69
(g90
g71
NtRp1748
(dp1749
g74
(dp1750
sg83
g1736
sg76
(lp1751
g69
(g70
g71
NtRp1752
(dp1753
g74
(dp1754
g82
I4
ssg83
g1748
sg76
(lp1755
S"<Values at 0x278b8c8: {'verbose': False, 'ip': '127.0.0.1', 'with_scheduler': False, 'ips': ['192.168.1.100'], 'shutdown_timeout': 5, 'taskbar': False, 'port': 8000, 'maxthreads': None, 'softcron': False, 'server_name': 'rochacbruno-HP', 'bpython': False, 'nogui': False, 'nocron': False, 'extcron': False, 'run_system_tests': False, 'test': None, 'folder': 'c:\\\\Users\\\\rochacbruno\\\\jul12\\\\cursojulho12\\\\web2py', 'config': '', 'import_models': False, 'winservice': '', 'shell': None, 'run': '', 'log_filename': 'httpserver.log', 'debuglevel': 30, 'args': [''], 'socket_timeout': 5, 'ssl_ca_certificate': None, 'scheduler': None, 'profiler_filename': None, 'ssl_private_key': '', 'password': '1234', 'request_queue_size': 5, 'ssl_certificate': '', 'cronjob': False, 'numthreads': None, 'quiet': False, 'interfaces': None, 'minthreads': None, 'timeout': 10, 'plain': False, 'nobanner': False, 'pid_filename': 'httpserver.pid'}>"
p1756
asbasbasbag69
(g85
g71
NtRp1757
(dp1758
g74
(dp1759
sg83
g1667
sg76
(lp1760
g69
(g90
g71
NtRp1761
(dp1762
g74
(dp1763
g94
g95
ssg83
g1757
sg76
(lp1764
g754
asbag69
(g90
g71
NtRp1765
(dp1766
g74
(dp1767
g101
g102
ssg83
g1757
sg76
(lp1768
S':'
asbag69
(g90
g71
NtRp1769
(dp1770
g74
(dp1771
sg83
g1757
sg76
(lp1772
g69
(g70
g71
NtRp1773
(dp1774
g74
(dp1775
g82
I4
ssg83
g1769
sg76
(lp1776
S'set([])'
p1777
asbasbasbag69
(g85
g71
NtRp1778
(dp1779
g74
(dp1780
sg83
g1667
sg76
(lp1781
g69
(g90
g71
NtRp1782
(dp1783
g74
(dp1784
g94
g95
ssg83
g1778
sg76
(lp1785
g776
asbag69
(g90
g71
NtRp1786
(dp1787
g74
(dp1788
g101
g102
ssg83
g1778
sg76
(lp1789
S':'
asbag69
(g90
g71
NtRp1790
(dp1791
g74
(dp1792
sg83
g1778
sg76
(lp1793
g69
(g70
g71
NtRp1794
(dp1795
g74
(dp1796
g82
I4
ssg83
g1790
sg76
(lp1797
g112
asbasbasbag69
(g85
g71
NtRp1798
(dp1799
g74
(dp1800
sg83
g1667
sg76
(lp1801
g69
(g90
g71
NtRp1802
(dp1803
g74
(dp1804
g94
g95
ssg83
g1798
sg76
(lp1805
g797
asbag69
(g90
g71
NtRp1806
(dp1807
g74
(dp1808
g101
g102
ssg83
g1798
sg76
(lp1809
S':'
asbag69
(g90
g71
NtRp1810
(dp1811
g74
(dp1812
sg83
g1798
sg76
(lp1813
g69
(g70
g71
NtRp1814
(dp1815
g74
(dp1816
g82
I4
ssg83
g1810
sg76
(lp1817
g810
asbasbasbag69
(g85
g71
NtRp1818
(dp1819
g74
(dp1820
sg83
g1667
sg76
(lp1821
g69
(g90
g71
NtRp1822
(dp1823
g74
(dp1824
g94
g95
ssg83
g1818
sg76
(lp1825
g973
asbag69
(g90
g71
NtRp1826
(dp1827
g74
(dp1828
g101
g102
ssg83
g1818
sg76
(lp1829
S':'
asbag69
(g90
g71
NtRp1830
(dp1831
g74
(dp1832
sg83
g1818
sg76
(lp1833
g69
(g70
g71
NtRp1834
(dp1835
g74
(dp1836
g82
I4
ssg83
g1830
sg76
(lp1837
g112
asbasbasbag69
(g85
g71
NtRp1838
(dp1839
g74
(dp1840
sg83
g1667
sg76
(lp1841
g69
(g90
g71
NtRp1842
(dp1843
g74
(dp1844
g94
g95
ssg83
g1838
sg76
(lp1845
g994
asbag69
(g90
g71
NtRp1846
(dp1847
g74
(dp1848
g101
g102
ssg83
g1838
sg76
(lp1849
S':'
asbag69
(g90
g71
NtRp1850
(dp1851
g74
(dp1852
sg83
g1838
sg76
(lp1853
g69
(g70
g71
NtRp1854
(dp1855
g74
(dp1856
g82
I4
ssg83
g1850
sg76
(lp1857
g112
asbasbasbag69
(g85
g71
NtRp1858
(dp1859
g74
(dp1860
sg83
g1667
sg76
(lp1861
g69
(g90
g71
NtRp1862
(dp1863
g74
(dp1864
g94
g95
ssg83
g1858
sg76
(lp1865
g1232
asbag69
(g90
g71
NtRp1866
(dp1867
g74
(dp1868
g101
g102
ssg83
g1858
sg76
(lp1869
S':'
asbag69
(g90
g71
NtRp1870
(dp1871
g74
(dp1872
sg83
g1858
sg76
(lp1873
g69
(g70
g71
NtRp1874
(dp1875
g74
(dp1876
g82
I4
ssg83
g1870
sg76
(lp1877
g1245
asbasbasbag69
(g85
g71
NtRp1878
(dp1879
g74
(dp1880
sg83
g1667
sg76
(lp1881
g69
(g90
g71
NtRp1882
(dp1883
g74
(dp1884
g94
g95
ssg83
g1878
sg76
(lp1885
g1275
asbag69
(g90
g71
NtRp1886
(dp1887
g74
(dp1888
g101
g102
ssg83
g1878
sg76
(lp1889
S':'
asbag69
(g90
g71
NtRp1890
(dp1891
g74
(dp1892
sg83
g1878
sg76
(lp1893
g69
(g70
g71
NtRp1894
(dp1895
g74
(dp1896
g82
I4
ssg83
g1890
sg76
(lp1897
g69
(g78
g71
NtRp1898
(dp1899
g74
(dp1900
g82
I3
ssg83
Nsg76
(lp1901
g69
(g85
g71
NtRp1902
(dp1903
g74
(dp1904
sg83
g1898
sg76
(lp1905
g69
(g90
g71
NtRp1906
(dp1907
g74
(dp1908
sg83
g1902
sg76
(lp1909
g69
(g70
g71
NtRp1910
(dp1911
g74
(dp1912
g82
I3
ssg83
g1906
sg76
(lp1913
S'2'
asbasbasbag69
(g85
g71
NtRp1914
(dp1915
g74
(dp1916
sg83
g1898
sg76
(lp1917
g69
(g90
g71
NtRp1918
(dp1919
g74
(dp1920
sg83
g1914
sg76
(lp1921
g69
(g70
g71
NtRp1922
(dp1923
g74
(dp1924
g82
I3
ssg83
g1918
sg76
(lp1925
S'0'
asbasbasbag69
(g85
g71
NtRp1926
(dp1927
g74
(dp1928
sg83
g1898
sg76
(lp1929
g69
(g90
g71
NtRp1930
(dp1931
g74
(dp1932
sg83
g1926
sg76
(lp1933
g69
(g70
g71
NtRp1934
(dp1935
g74
(dp1936
g82
I3
ssg83
g1930
sg76
(lp1937
S'0'
asbasbasbag69
(g85
g71
NtRp1938
(dp1939
g74
(dp1940
sg83
g1898
sg76
(lp1941
g69
(g90
g71
NtRp1942
(dp1943
g74
(dp1944
sg83
g1938
sg76
(lp1945
g69
(g70
g71
NtRp1946
(dp1947
g74
(dp1948
g82
I3
ssg83
g1942
sg76
(lp1949
S'datetime.datetime(2012, 8, 10, 13, 1, 31)'
p1950
asbasbasbag69
(g85
g71
NtRp1951
(dp1952
g74
(dp1953
sg83
g1898
sg76
(lp1954
g69
(g90
g71
NtRp1955
(dp1956
g74
(dp1957
sg83
g1951
sg76
(lp1958
g69
(g70
g71
NtRp1959
(dp1960
g74
(dp1961
g82
I3
ssg83
g1955
sg76
(lp1962
g1353
asbasbasbasbasbasbasbasbasbasbasbag69
(g85
g71
NtRp1963
(dp1964
g74
(dp1965
sg83
g79
sg76
(lp1966
g69
(g90
g71
NtRp1967
(dp1968
g74
(dp1969
g94
g95
ssg83
g1963
sg76
(lp1970
S'is_https'
p1971
asbag69
(g90
g71
NtRp1972
(dp1973
g74
(dp1974
g101
g102
ssg83
g1963
sg76
(lp1975
S':'
asbag69
(g90
g71
NtRp1976
(dp1977
g74
(dp1978
sg83
g1963
sg76
(lp1979
g69
(g70
g71
NtRp1980
(dp1981
g74
(dp1982
g82
I5
ssg83
g1976
sg76
(lp1983
g112
asbasbasbag69
(g85
g71
NtRp1984
(dp1985
g74
(dp1986
sg83
g79
sg76
(lp1987
g69
(g90
g71
NtRp1988
(dp1989
g74
(dp1990
g94
g95
ssg83
g1984
sg76
(lp1991
S'is_local'
p1992
asbag69
(g90
g71
NtRp1993
(dp1994
g74
(dp1995
g101
g102
ssg83
g1984
sg76
(lp1996
S':'
asbag69
(g90
g71
NtRp1997
(dp1998
g74
(dp1999
sg83
g1984
sg76
(lp2000
g69
(g70
g71
NtRp2001
(dp2002
g74
(dp2003
g82
I5
ssg83
g1997
sg76
(lp2004
g1462
asbasbasbag69
(g85
g71
NtRp2005
(dp2006
g74
(dp2007
sg83
g79
sg76
(lp2008
g69
(g90
g71
NtRp2009
(dp2010
g74
(dp2011
g94
g95
ssg83
g2005
sg76
(lp2012
S'is_restful'
p2013
asbag69
(g90
g71
NtRp2014
(dp2015
g74
(dp2016
g101
g102
ssg83
g2005
sg76
(lp2017
S':'
asbag69
(g90
g71
NtRp2018
(dp2019
g74
(dp2020
sg83
g2005
sg76
(lp2021
g69
(g70
g71
NtRp2022
(dp2023
g74
(dp2024
g82
I5
ssg83
g2018
sg76
(lp2025
g112
asbasbasbag69
(g85
g71
NtRp2026
(dp2027
g74
(dp2028
sg83
g79
sg76
(lp2029
g69
(g90
g71
NtRp2030
(dp2031
g74
(dp2032
g94
g95
ssg83
g2026
sg76
(lp2033
S'now'
p2034
asbag69
(g90
g71
NtRp2035
(dp2036
g74
(dp2037
g101
g102
ssg83
g2026
sg76
(lp2038
S':'
asbag69
(g90
g71
NtRp2039
(dp2040
g74
(dp2041
sg83
g2026
sg76
(lp2042
g69
(g70
g71
NtRp2043
(dp2044
g74
(dp2045
g82
I5
ssg83
g2039
sg76
(lp2046
S'datetime.datetime(2012, 8, 19, 11, 4, 27, 489000)'
p2047
asbasbasbag69
(g85
g71
NtRp2048
(dp2049
g74
(dp2050
sg83
g79
sg76
(lp2051
g69
(g90
g71
NtRp2052
(dp2053
g74
(dp2054
g94
g95
ssg83
g2048
sg76
(lp2055
S'post_vars'
p2056
asbag69
(g90
g71
NtRp2057
(dp2058
g74
(dp2059
g101
g102
ssg83
g2048
sg76
(lp2060
S':'
asbag69
(g90
g71
NtRp2061
(dp2062
g74
(dp2063
sg83
g2048
sg76
(lp2064
g69
(g70
g71
NtRp2065
(dp2066
g74
(dp2067
g82
I5
ssg83
g2061
sg76
(lp2068
g69
(g78
g71
NtRp2069
(dp2070
g74
(dp2071
g82
I4
ssg83
Nsg76
(lp2072
sbasbasbasbag69
(g85
g71
NtRp2073
(dp2074
g74
(dp2075
sg83
g79
sg76
(lp2076
g69
(g90
g71
NtRp2077
(dp2078
g74
(dp2079
g94
g95
ssg83
g2073
sg76
(lp2080
S'raw_args'
p2081
asbag69
(g90
g71
NtRp2082
(dp2083
g74
(dp2084
g101
g102
ssg83
g2073
sg76
(lp2085
S':'
asbag69
(g90
g71
NtRp2086
(dp2087
g74
(dp2088
sg83
g2073
sg76
(lp2089
g69
(g70
g71
NtRp2090
(dp2091
g74
(dp2092
g82
I5
ssg83
g2086
sg76
(lp2093
S''
asbasbasbag69
(g85
g71
NtRp2094
(dp2095
g74
(dp2096
sg83
g79
sg76
(lp2097
g69
(g90
g71
NtRp2098
(dp2099
g74
(dp2100
g94
g95
ssg83
g2094
sg76
(lp2101
S'url'
p2102
asbag69
(g90
g71
NtRp2103
(dp2104
g74
(dp2105
g101
g102
ssg83
g2094
sg76
(lp2106
S':'
asbag69
(g90
g71
NtRp2107
(dp2108
g74
(dp2109
sg83
g2094
sg76
(lp2110
g69
(g70
g71
NtRp2111
(dp2112
g74
(dp2113
g82
I5
ssg83
g2107
sg76
(lp2114
S'/ecommerce/product/edit'
p2115
asbasbasbag69
(g85
g71
NtRp2116
(dp2117
g74
(dp2118
sg83
g79
sg76
(lp2119
g69
(g90
g71
NtRp2120
(dp2121
g74
(dp2122
g94
g95
ssg83
g2116
sg76
(lp2123
S'utcnow'
p2124
asbag69
(g90
g71
NtRp2125
(dp2126
g74
(dp2127
g101
g102
ssg83
g2116
sg76
(lp2128
S':'
asbag69
(g90
g71
NtRp2129
(dp2130
g74
(dp2131
sg83
g2116
sg76
(lp2132
g69
(g70
g71
NtRp2133
(dp2134
g74
(dp2135
g82
I5
ssg83
g2129
sg76
(lp2136
S'datetime.datetime(2012, 8, 19, 14, 4, 27, 489000)'
p2137
asbasbasbag69
(g85
g71
NtRp2138
(dp2139
g74
(dp2140
sg83
g79
sg76
(lp2141
g69
(g90
g71
NtRp2142
(dp2143
g74
(dp2144
g94
g95
ssg83
g2138
sg76
(lp2145
S'uuid'
p2146
asbag69
(g90
g71
NtRp2147
(dp2148
g74
(dp2149
g101
g102
ssg83
g2138
sg76
(lp2150
S':'
asbag69
(g90
g71
NtRp2151
(dp2152
g74
(dp2153
sg83
g2138
sg76
(lp2154
g69
(g70
g71
NtRp2155
(dp2156
g74
(dp2157
g82
I5
ssg83
g2151
sg76
(lp2158
S'ecommerce/127.0.0.1.2012-08-19.11-04-27.58258b32-1d0c-4a98-a16c-fd4354aa4595'
p2159
asbasbasbag69
(g85
g71
NtRp2160
(dp2161
g74
(dp2162
sg83
g79
sg76
(lp2163
g69
(g90
g71
NtRp2164
(dp2165
g74
(dp2166
g94
g95
ssg83
g2160
sg76
(lp2167
S'vars'
p2168
asbag69
(g90
g71
NtRp2169
(dp2170
g74
(dp2171
g101
g102
ssg83
g2160
sg76
(lp2172
S':'
asbag69
(g90
g71
NtRp2173
(dp2174
g74
(dp2175
sg83
g2160
sg76
(lp2176
g69
(g70
g71
NtRp2177
(dp2178
g74
(dp2179
g82
I5
ssg83
g2173
sg76
(lp2180
g69
(g78
g71
NtRp2181
(dp2182
g74
(dp2183
g82
I4
ssg83
Nsg76
(lp2184
sbasbasbasbag69
(g85
g71
NtRp2185
(dp2186
g74
(dp2187
sg83
g79
sg76
(lp2188
g69
(g90
g71
NtRp2189
(dp2190
g74
(dp2191
g94
g95
ssg83
g2185
sg76
(lp2192
S'wsgi'
p2193
asbag69
(g90
g71
NtRp2194
(dp2195
g74
(dp2196
g101
g102
ssg83
g2185
sg76
(lp2197
S':'
asbag69
(g90
g71
NtRp2198
(dp2199
g74
(dp2200
sg83
g2185
sg76
(lp2201
g69
(g70
g71
NtRp2202
(dp2203
g74
(dp2204
g82
I5
ssg83
g2198
sg76
(lp2205
g69
(g78
g71
NtRp2206
(dp2207
g74
(dp2208
g82
I4
ssg83
Nsg76
(lp2209
g69
(g85
g71
NtRp2210
(dp2211
g74
(dp2212
sg83
g2206
sg76
(lp2213
g69
(g90
g71
NtRp2214
(dp2215
g74
(dp2216
g94
g95
ssg83
g2210
sg76
(lp2217
S'environ'
p2218
asbag69
(g90
g71
NtRp2219
(dp2220
g74
(dp2221
g101
g102
ssg83
g2210
sg76
(lp2222
S':'
asbag69
(g90
g71
NtRp2223
(dp2224
g74
(dp2225
sg83
g2210
sg76
(lp2226
g69
(g70
g71
NtRp2227
(dp2228
g74
(dp2229
g82
I4
ssg83
g2223
sg76
(lp2230
g69
(g78
g71
NtRp2231
(dp2232
g74
(dp2233
g82
I3
ssg83
Nsg76
(lp2234
g69
(g85
g71
NtRp2235
(dp2236
g74
(dp2237
sg83
g2231
sg76
(lp2238
g69
(g90
g71
NtRp2239
(dp2240
g74
(dp2241
g94
g95
ssg83
g2235
sg76
(lp2242
S'HTTP_ACCEPT'
p2243
asbag69
(g90
g71
NtRp2244
(dp2245
g74
(dp2246
g101
g102
ssg83
g2235
sg76
(lp2247
S':'
asbag69
(g90
g71
NtRp2248
(dp2249
g74
(dp2250
sg83
g2235
sg76
(lp2251
g69
(g70
g71
NtRp2252
(dp2253
g74
(dp2254
g82
I3
ssg83
g2248
sg76
(lp2255
g832
asbasbasbag69
(g85
g71
NtRp2256
(dp2257
g74
(dp2258
sg83
g2231
sg76
(lp2259
g69
(g90
g71
NtRp2260
(dp2261
g74
(dp2262
g94
g95
ssg83
g2256
sg76
(lp2263
S'HTTP_ACCEPT_ENCODING'
p2264
asbag69
(g90
g71
NtRp2265
(dp2266
g74
(dp2267
g101
g102
ssg83
g2256
sg76
(lp2268
S':'
asbag69
(g90
g71
NtRp2269
(dp2270
g74
(dp2271
sg83
g2256
sg76
(lp2272
g69
(g70
g71
NtRp2273
(dp2274
g74
(dp2275
g82
I3
ssg83
g2269
sg76
(lp2276
g854
asbasbasbag69
(g85
g71
NtRp2277
(dp2278
g74
(dp2279
sg83
g2231
sg76
(lp2280
g69
(g90
g71
NtRp2281
(dp2282
g74
(dp2283
g94
g95
ssg83
g2277
sg76
(lp2284
S'HTTP_ACCEPT_LANGUAGE'
p2285
asbag69
(g90
g71
NtRp2286
(dp2287
g74
(dp2288
g101
g102
ssg83
g2277
sg76
(lp2289
S':'
asbag69
(g90
g71
NtRp2290
(dp2291
g74
(dp2292
sg83
g2277
sg76
(lp2293
g69
(g70
g71
NtRp2294
(dp2295
g74
(dp2296
g82
I3
ssg83
g2290
sg76
(lp2297
g876
asbasbasbag69
(g85
g71
NtRp2298
(dp2299
g74
(dp2300
sg83
g2231
sg76
(lp2301
g69
(g90
g71
NtRp2302
(dp2303
g74
(dp2304
g94
g95
ssg83
g2298
sg76
(lp2305
S'HTTP_CONNECTION'
p2306
asbag69
(g90
g71
NtRp2307
(dp2308
g74
(dp2309
g101
g102
ssg83
g2298
sg76
(lp2310
S':'
asbag69
(g90
g71
NtRp2311
(dp2312
g74
(dp2313
sg83
g2298
sg76
(lp2314
g69
(g70
g71
NtRp2315
(dp2316
g74
(dp2317
g82
I3
ssg83
g2311
sg76
(lp2318
g898
asbasbasbag69
(g85
g71
NtRp2319
(dp2320
g74
(dp2321
sg83
g2231
sg76
(lp2322
g69
(g90
g71
NtRp2323
(dp2324
g74
(dp2325
g94
g95
ssg83
g2319
sg76
(lp2326
S'HTTP_COOKIE'
p2327
asbag69
(g90
g71
NtRp2328
(dp2329
g74
(dp2330
g101
g102
ssg83
g2319
sg76
(lp2331
S':'
asbag69
(g90
g71
NtRp2332
(dp2333
g74
(dp2334
sg83
g2319
sg76
(lp2335
g69
(g70
g71
NtRp2336
(dp2337
g74
(dp2338
g82
I3
ssg83
g2332
sg76
(lp2339
g920
asbasbasbag69
(g85
g71
NtRp2340
(dp2341
g74
(dp2342
sg83
g2231
sg76
(lp2343
g69
(g90
g71
NtRp2344
(dp2345
g74
(dp2346
g94
g95
ssg83
g2340
sg76
(lp2347
S'HTTP_HOST'
p2348
asbag69
(g90
g71
NtRp2349
(dp2350
g74
(dp2351
g101
g102
ssg83
g2340
sg76
(lp2352
S':'
asbag69
(g90
g71
NtRp2353
(dp2354
g74
(dp2355
sg83
g2340
sg76
(lp2356
g69
(g70
g71
NtRp2357
(dp2358
g74
(dp2359
g82
I3
ssg83
g2353
sg76
(lp2360
g942
asbasbasbag69
(g85
g71
NtRp2361
(dp2362
g74
(dp2363
sg83
g2231
sg76
(lp2364
g69
(g90
g71
NtRp2365
(dp2366
g74
(dp2367
g94
g95
ssg83
g2361
sg76
(lp2368
S'HTTP_USER_AGENT'
p2369
asbag69
(g90
g71
NtRp2370
(dp2371
g74
(dp2372
g101
g102
ssg83
g2361
sg76
(lp2373
S':'
asbag69
(g90
g71
NtRp2374
(dp2375
g74
(dp2376
sg83
g2361
sg76
(lp2377
g69
(g70
g71
NtRp2378
(dp2379
g74
(dp2380
g82
I3
ssg83
g2374
sg76
(lp2381
g964
asbasbasbag69
(g85
g71
NtRp2382
(dp2383
g74
(dp2384
sg83
g2231
sg76
(lp2385
g69
(g90
g71
NtRp2386
(dp2387
g74
(dp2388
g94
g95
ssg83
g2382
sg76
(lp2389
S'PATH_INFO'
p2390
asbag69
(g90
g71
NtRp2391
(dp2392
g74
(dp2393
g101
g102
ssg83
g2382
sg76
(lp2394
S':'
asbag69
(g90
g71
NtRp2395
(dp2396
g74
(dp2397
sg83
g2382
sg76
(lp2398
g69
(g70
g71
NtRp2399
(dp2400
g74
(dp2401
g82
I3
ssg83
g2395
sg76
(lp2402
g1028
asbasbasbag69
(g85
g71
NtRp2403
(dp2404
g74
(dp2405
sg83
g2231
sg76
(lp2406
g69
(g90
g71
NtRp2407
(dp2408
g74
(dp2409
g94
g95
ssg83
g2403
sg76
(lp2410
S'QUERY_STRING'
p2411
asbag69
(g90
g71
NtRp2412
(dp2413
g74
(dp2414
g101
g102
ssg83
g2403
sg76
(lp2415
S':'
asbag69
(g90
g71
NtRp2416
(dp2417
g74
(dp2418
sg83
g2403
sg76
(lp2419
g69
(g70
g71
NtRp2420
(dp2421
g74
(dp2422
g82
I3
ssg83
g2416
sg76
(lp2423
S''
asbasbasbag69
(g85
g71
NtRp2424
(dp2425
g74
(dp2426
sg83
g2231
sg76
(lp2427
g69
(g90
g71
NtRp2428
(dp2429
g74
(dp2430
g94
g95
ssg83
g2424
sg76
(lp2431
S'REMOTE_ADDR'
p2432
asbag69
(g90
g71
NtRp2433
(dp2434
g74
(dp2435
g101
g102
ssg83
g2424
sg76
(lp2436
S':'
asbag69
(g90
g71
NtRp2437
(dp2438
g74
(dp2439
sg83
g2424
sg76
(lp2440
g69
(g70
g71
NtRp2441
(dp2442
g74
(dp2443
g82
I3
ssg83
g2437
sg76
(lp2444
g202
asbasbasbag69
(g85
g71
NtRp2445
(dp2446
g74
(dp2447
sg83
g2231
sg76
(lp2448
g69
(g90
g71
NtRp2449
(dp2450
g74
(dp2451
g94
g95
ssg83
g2445
sg76
(lp2452
S'REMOTE_PORT'
p2453
asbag69
(g90
g71
NtRp2454
(dp2455
g74
(dp2456
g101
g102
ssg83
g2445
sg76
(lp2457
S':'
asbag69
(g90
g71
NtRp2458
(dp2459
g74
(dp2460
sg83
g2445
sg76
(lp2461
g69
(g70
g71
NtRp2462
(dp2463
g74
(dp2464
g82
I3
ssg83
g2458
sg76
(lp2465
g1092
asbasbasbag69
(g85
g71
NtRp2466
(dp2467
g74
(dp2468
sg83
g2231
sg76
(lp2469
g69
(g90
g71
NtRp2470
(dp2471
g74
(dp2472
g94
g95
ssg83
g2466
sg76
(lp2473
S'REQUEST_METHOD'
p2474
asbag69
(g90
g71
NtRp2475
(dp2476
g74
(dp2477
g101
g102
ssg83
g2466
sg76
(lp2478
S':'
asbag69
(g90
g71
NtRp2479
(dp2480
g74
(dp2481
sg83
g2466
sg76
(lp2482
g69
(g70
g71
NtRp2483
(dp2484
g74
(dp2485
g82
I3
ssg83
g2479
sg76
(lp2486
g1114
asbasbasbag69
(g85
g71
NtRp2487
(dp2488
g74
(dp2489
sg83
g2231
sg76
(lp2490
g69
(g90
g71
NtRp2491
(dp2492
g74
(dp2493
g94
g95
ssg83
g2487
sg76
(lp2494
S'SCRIPT_NAME'
p2495
asbag69
(g90
g71
NtRp2496
(dp2497
g74
(dp2498
g101
g102
ssg83
g2487
sg76
(lp2499
S':'
asbag69
(g90
g71
NtRp2500
(dp2501
g74
(dp2502
sg83
g2487
sg76
(lp2503
g69
(g70
g71
NtRp2504
(dp2505
g74
(dp2506
g82
I3
ssg83
g2500
sg76
(lp2507
S''
asbasbasbag69
(g85
g71
NtRp2508
(dp2509
g74
(dp2510
sg83
g2231
sg76
(lp2511
g69
(g90
g71
NtRp2512
(dp2513
g74
(dp2514
g94
g95
ssg83
g2508
sg76
(lp2515
S'SERVER_NAME'
p2516
asbag69
(g90
g71
NtRp2517
(dp2518
g74
(dp2519
g101
g102
ssg83
g2508
sg76
(lp2520
S':'
asbag69
(g90
g71
NtRp2521
(dp2522
g74
(dp2523
sg83
g2508
sg76
(lp2524
g69
(g70
g71
NtRp2525
(dp2526
g74
(dp2527
g82
I3
ssg83
g2521
sg76
(lp2528
g1157
asbasbasbag69
(g85
g71
NtRp2529
(dp2530
g74
(dp2531
sg83
g2231
sg76
(lp2532
g69
(g90
g71
NtRp2533
(dp2534
g74
(dp2535
g94
g95
ssg83
g2529
sg76
(lp2536
S'SERVER_PORT'
p2537
asbag69
(g90
g71
NtRp2538
(dp2539
g74
(dp2540
g101
g102
ssg83
g2529
sg76
(lp2541
S':'
asbag69
(g90
g71
NtRp2542
(dp2543
g74
(dp2544
sg83
g2529
sg76
(lp2545
g69
(g70
g71
NtRp2546
(dp2547
g74
(dp2548
g82
I3
ssg83
g2542
sg76
(lp2549
g1179
asbasbasbag69
(g85
g71
NtRp2550
(dp2551
g74
(dp2552
sg83
g2231
sg76
(lp2553
g69
(g90
g71
NtRp2554
(dp2555
g74
(dp2556
g94
g95
ssg83
g2550
sg76
(lp2557
S'SERVER_PROTOCOL'
p2558
asbag69
(g90
g71
NtRp2559
(dp2560
g74
(dp2561
g101
g102
ssg83
g2550
sg76
(lp2562
S':'
asbag69
(g90
g71
NtRp2563
(dp2564
g74
(dp2565
sg83
g2550
sg76
(lp2566
g69
(g70
g71
NtRp2567
(dp2568
g74
(dp2569
g82
I3
ssg83
g2563
sg76
(lp2570
g1201
asbasbasbag69
(g85
g71
NtRp2571
(dp2572
g74
(dp2573
sg83
g2231
sg76
(lp2574
g69
(g90
g71
NtRp2575
(dp2576
g74
(dp2577
g94
g95
ssg83
g2571
sg76
(lp2578
S'SERVER_SOFTWARE'
p2579
asbag69
(g90
g71
NtRp2580
(dp2581
g74
(dp2582
g101
g102
ssg83
g2571
sg76
(lp2583
S':'
asbag69
(g90
g71
NtRp2584
(dp2585
g74
(dp2586
sg83
g2571
sg76
(lp2587
g69
(g70
g71
NtRp2588
(dp2589
g74
(dp2590
g82
I3
ssg83
g2584
sg76
(lp2591
g1223
asbasbasbag69
(g85
g71
NtRp2592
(dp2593
g74
(dp2594
sg83
g2231
sg76
(lp2595
g69
(g90
g71
NtRp2596
(dp2597
g74
(dp2598
g94
g95
ssg83
g2592
sg76
(lp2599
S'wsgi.errors'
p2600
asbag69
(g90
g71
NtRp2601
(dp2602
g74
(dp2603
g101
g102
ssg83
g2592
sg76
(lp2604
S':'
asbag69
(g90
g71
NtRp2605
(dp2606
g74
(dp2607
sg83
g2592
sg76
(lp2608
g69
(g70
g71
NtRp2609
(dp2610
g74
(dp2611
g82
I3
ssg83
g2605
sg76
(lp2612
S"<open file '<stderr>', mode 'w' at 0x013450D0>"
p2613
asbasbasbag69
(g85
g71
NtRp2614
(dp2615
g74
(dp2616
sg83
g2231
sg76
(lp2617
g69
(g90
g71
NtRp2618
(dp2619
g74
(dp2620
g94
g95
ssg83
g2614
sg76
(lp2621
S'wsgi.file_wrapper'
p2622
asbag69
(g90
g71
NtRp2623
(dp2624
g74
(dp2625
g101
g102
ssg83
g2614
sg76
(lp2626
S':'
asbag69
(g90
g71
NtRp2627
(dp2628
g74
(dp2629
sg83
g2614
sg76
(lp2630
g69
(g70
g71
NtRp2631
(dp2632
g74
(dp2633
g82
I3
ssg83
g2627
sg76
(lp2634
S'<class wsgiref.util.FileWrapper at 0x026C43B0>'
p2635
asbasbasbag69
(g85
g71
NtRp2636
(dp2637
g74
(dp2638
sg83
g2231
sg76
(lp2639
g69
(g90
g71
NtRp2640
(dp2641
g74
(dp2642
g94
g95
ssg83
g2636
sg76
(lp2643
S'wsgi.input'
p2644
asbag69
(g90
g71
NtRp2645
(dp2646
g74
(dp2647
g101
g102
ssg83
g2636
sg76
(lp2648
S':'
asbag69
(g90
g71
NtRp2649
(dp2650
g74
(dp2651
sg83
g2636
sg76
(lp2652
g69
(g70
g71
NtRp2653
(dp2654
g74
(dp2655
g82
I3
ssg83
g2649
sg76
(lp2656
S'<cStringIO.StringO object at 0x0520BA40>'
p2657
asbasbasbag69
(g85
g71
NtRp2658
(dp2659
g74
(dp2660
sg83
g2231
sg76
(lp2661
g69
(g90
g71
NtRp2662
(dp2663
g74
(dp2664
g94
g95
ssg83
g2658
sg76
(lp2665
S'wsgi.multiprocess'
p2666
asbag69
(g90
g71
NtRp2667
(dp2668
g74
(dp2669
g101
g102
ssg83
g2658
sg76
(lp2670
S':'
asbag69
(g90
g71
NtRp2671
(dp2672
g74
(dp2673
sg83
g2658
sg76
(lp2674
g69
(g70
g71
NtRp2675
(dp2676
g74
(dp2677
g82
I3
ssg83
g2671
sg76
(lp2678
g112
asbasbasbag69
(g85
g71
NtRp2679
(dp2680
g74
(dp2681
sg83
g2231
sg76
(lp2682
g69
(g90
g71
NtRp2683
(dp2684
g74
(dp2685
g94
g95
ssg83
g2679
sg76
(lp2686
S'wsgi.multithread'
p2687
asbag69
(g90
g71
NtRp2688
(dp2689
g74
(dp2690
g101
g102
ssg83
g2679
sg76
(lp2691
S':'
asbag69
(g90
g71
NtRp2692
(dp2693
g74
(dp2694
sg83
g2679
sg76
(lp2695
g69
(g70
g71
NtRp2696
(dp2697
g74
(dp2698
g82
I3
ssg83
g2692
sg76
(lp2699
g1462
asbasbasbag69
(g85
g71
NtRp2700
(dp2701
g74
(dp2702
sg83
g2231
sg76
(lp2703
g69
(g90
g71
NtRp2704
(dp2705
g74
(dp2706
g94
g95
ssg83
g2700
sg76
(lp2707
S'wsgi.run_once'
p2708
asbag69
(g90
g71
NtRp2709
(dp2710
g74
(dp2711
g101
g102
ssg83
g2700
sg76
(lp2712
S':'
asbag69
(g90
g71
NtRp2713
(dp2714
g74
(dp2715
sg83
g2700
sg76
(lp2716
g69
(g70
g71
NtRp2717
(dp2718
g74
(dp2719
g82
I3
ssg83
g2713
sg76
(lp2720
g112
asbasbasbag69
(g85
g71
NtRp2721
(dp2722
g74
(dp2723
sg83
g2231
sg76
(lp2724
g69
(g90
g71
NtRp2725
(dp2726
g74
(dp2727
g94
g95
ssg83
g2721
sg76
(lp2728
S'wsgi.url_scheme'
p2729
asbag69
(g90
g71
NtRp2730
(dp2731
g74
(dp2732
g101
g102
ssg83
g2721
sg76
(lp2733
S':'
asbag69
(g90
g71
NtRp2734
(dp2735
g74
(dp2736
sg83
g2721
sg76
(lp2737
g69
(g70
g71
NtRp2738
(dp2739
g74
(dp2740
g82
I3
ssg83
g2734
sg76
(lp2741
g1505
asbasbasbag69
(g85
g71
NtRp2742
(dp2743
g74
(dp2744
sg83
g2231
sg76
(lp2745
g69
(g90
g71
NtRp2746
(dp2747
g74
(dp2748
g94
g95
ssg83
g2742
sg76
(lp2749
S'wsgi.version'
p2750
asbag69
(g90
g71
NtRp2751
(dp2752
g74
(dp2753
g101
g102
ssg83
g2742
sg76
(lp2754
S':'
asbag69
(g90
g71
NtRp2755
(dp2756
g74
(dp2757
sg83
g2742
sg76
(lp2758
g69
(g70
g71
NtRp2759
(dp2760
g74
(dp2761
g82
I3
ssg83
g2755
sg76
(lp2762
S'1'
asbasbasbasbasbasbasbasbasbasbasbasbasbsS'frames'
p2763
(lp2764
(dp2765
S'file'
p2766
S'c:\\Users\\rochacbruno\\jul12\\cursojulho12\\web2py\\gluon\\restricted.py'
p2767
sS'dump'
p2768
(dp2769
S'code'
p2770
S"'# coding: utf-8\\n\\ndef show():\\n    # pegar produto...        ):\\nresponse._vars=response._caller(edit)\\n'"
p2771
sS'layer'
p2772
S"r'c:\\Users\\rochacbruno\\jul12\\cursojulho12\\web2py\\applications\\ecommerce\\controllers/product.py'"
p2773
sS'global compile2'
p2774
S'<function compile2>'
p2775
sS'ccode'
p2776
S'undefined'
p2777
ssS'lnum'
p2778
I204
sS'lines'
p2779
(dp2780
I199
S"    environment['__name__'] = '__restricted__'"
p2781
sI200
S'    try:'
p2782
sI201
S'        if type(code) == types.CodeType:'
p2783
sI202
S'            ccode = code'
p2784
sI203
S'        else:'
p2785
sI204
S'            ccode = compile2(code,layer)'
p2786
sI205
S'        exec ccode in environment'
p2787
sI206
S'    except HTTP:'
p2788
sI207
S'        raise'
p2789
sI208
S'    except RestrictedError:'
p2790
ssS'call'
p2791
S"(code='# coding: utf-8\\n\\ndef show():\\n    # pegar produto...        ):\\nresponse._vars=response._caller(edit)\\n', environment={'A': <class 'gluon.html.A'>, 'Auth': <class 'gluon.tools.Auth'>, 'B': <class 'gluon.html.B'>, 'BEAUTIFY': <class 'gluon.html.BEAUTIFY'>, 'BODY': <class 'gluon.html.BODY'>, 'BR': <class 'gluon.html.BR'>, 'BUTTON': <class 'gluon.html.BUTTON'>, 'CAT': <class 'gluon.html.CAT'>, 'CENTER': <class 'gluon.html.CENTER'>, 'CKEditor': <class 'applications.ecommerce.modules.plugin_ckeditor.CKEditor'>, ...}, layer=r'c:\\Users\\rochacbruno\\jul12\\cursojulho12\\web2py\\applications\\ecommerce\\controllers/product.py')"
p2792
sS'func'
p2793
S'restricted'
p2794
sa(dp2795
g2766
S'c:\\Users\\rochacbruno\\jul12\\cursojulho12\\web2py\\gluon\\restricted.py'
p2796
sg2768
(dp2797
S'builtincompile'
p2798
S'<built-in function compile>'
p2799
sS'code'
p2800
S"'# coding: utf-8\\n\\ndef show():\\n    # pegar produto...        ):\\nresponse._vars=response._caller(edit)\\n'"
p2801
sS'code.rstrip'
p2802
S'<built-in method rstrip of str object>'
p2803
sS').replace'
p2804
g2777
sS'layer'
p2805
S"r'c:\\Users\\rochacbruno\\jul12\\cursojulho12\\web2py\\applications\\ecommerce\\controllers/product.py'"
p2806
ssg2778
I189
sg2779
(dp2807
I192
S'    """'
p2808
sI193
S'    runs code in environment and returns the output. if an exception occurs'
p2809
sI184
S''
sI185
S'def compile2(code,layer):'
p2810
sI186
S'    """'
p2811
sI187
S"    The +'\\n' is necessary else compile fails when code ends in a comment."
p2812
sI188
S'    """'
p2813
sI189
S"    return compile(code.rstrip().replace('\\r\\n','\\n')+'\\n', layer, 'exec')"
p2814
sI190
S''
sI191
S"def restricted(code, environment=None, layer='Unknown'):"
p2815
ssg2791
S"(code='# coding: utf-8\\n\\ndef show():\\n    # pegar produto...        ):\\nresponse._vars=response._caller(edit)\\n', layer=r'c:\\Users\\rochacbruno\\jul12\\cursojulho12\\web2py\\applications\\ecommerce\\controllers/product.py')"
p2816
sg2793
S'compile2'
p2817
sasS'pyver'
p2818
S'Python 2.7.2: c:\\Python27\\python.exe'
p2819
sS'session'
p2820
g69
(g70
g71
NtRp2821
(dp2822
g74
(dp2823
sg76
(lp2824
g69
(g78
g71
NtRp2825
(dp2826
g74
(dp2827
g82
I5
ssg83
Nsg76
(lp2828
g69
(g85
g71
NtRp2829
(dp2830
g74
(dp2831
sg83
g2825
sg76
(lp2832
g69
(g90
g71
NtRp2833
(dp2834
g74
(dp2835
g94
g95
ssg83
g2829
sg76
(lp2836
S'auth'
p2837
asbag69
(g90
g71
NtRp2838
(dp2839
g74
(dp2840
g101
g102
ssg83
g2829
sg76
(lp2841
S':'
asbag69
(g90
g71
NtRp2842
(dp2843
g74
(dp2844
sg83
g2829
sg76
(lp2845
g69
(g70
g71
NtRp2846
(dp2847
g74
(dp2848
g82
I5
ssg83
g2842
sg76
(lp2849
g69
(g78
g71
NtRp2850
(dp2851
g74
(dp2852
g82
I4
ssg83
Nsg76
(lp2853
g69
(g85
g71
NtRp2854
(dp2855
g74
(dp2856
sg83
g2850
sg76
(lp2857
g69
(g90
g71
NtRp2858
(dp2859
g74
(dp2860
g94
g95
ssg83
g2854
sg76
(lp2861
S'expiration'
p2862
asbag69
(g90
g71
NtRp2863
(dp2864
g74
(dp2865
g101
g102
ssg83
g2854
sg76
(lp2866
S':'
asbag69
(g90
g71
NtRp2867
(dp2868
g74
(dp2869
sg83
g2854
sg76
(lp2870
g69
(g70
g71
NtRp2871
(dp2872
g74
(dp2873
g82
I4
ssg83
g2867
sg76
(lp2874
S'3600'
p2875
asbasbasbag69
(g85
g71
NtRp2876
(dp2877
g74
(dp2878
sg83
g2850
sg76
(lp2879
g69
(g90
g71
NtRp2880
(dp2881
g74
(dp2882
g94
g95
ssg83
g2876
sg76
(lp2883
S'hmac_key'
p2884
asbag69
(g90
g71
NtRp2885
(dp2886
g74
(dp2887
g101
g102
ssg83
g2876
sg76
(lp2888
S':'
asbag69
(g90
g71
NtRp2889
(dp2890
g74
(dp2891
sg83
g2876
sg76
(lp2892
g69
(g70
g71
NtRp2893
(dp2894
g74
(dp2895
g82
I4
ssg83
g2889
sg76
(lp2896
S'f34f74b3-8d7e-41df-b5c7-0ee9d5f87b9e'
p2897
asbasbasbag69
(g85
g71
NtRp2898
(dp2899
g74
(dp2900
sg83
g2850
sg76
(lp2901
g69
(g90
g71
NtRp2902
(dp2903
g74
(dp2904
g94
g95
ssg83
g2898
sg76
(lp2905
S'last_visit'
p2906
asbag69
(g90
g71
NtRp2907
(dp2908
g74
(dp2909
g101
g102
ssg83
g2898
sg76
(lp2910
S':'
asbag69
(g90
g71
NtRp2911
(dp2912
g74
(dp2913
sg83
g2898
sg76
(lp2914
g69
(g70
g71
NtRp2915
(dp2916
g74
(dp2917
g82
I4
ssg83
g2911
sg76
(lp2918
S'datetime.datetime(2012, 8, 19, 11, 3, 11, 554000)'
p2919
asbasbasbag69
(g85
g71
NtRp2920
(dp2921
g74
(dp2922
sg83
g2850
sg76
(lp2923
g69
(g90
g71
NtRp2924
(dp2925
g74
(dp2926
g94
g95
ssg83
g2920
sg76
(lp2927
S'remember'
p2928
asbag69
(g90
g71
NtRp2929
(dp2930
g74
(dp2931
g101
g102
ssg83
g2920
sg76
(lp2932
S':'
asbag69
(g90
g71
NtRp2933
(dp2934
g74
(dp2935
sg83
g2920
sg76
(lp2936
g69
(g70
g71
NtRp2937
(dp2938
g74
(dp2939
g82
I4
ssg83
g2933
sg76
(lp2940
g112
asbasbasbag69
(g85
g71
NtRp2941
(dp2942
g74
(dp2943
sg83
g2850
sg76
(lp2944
g69
(g90
g71
NtRp2945
(dp2946
g74
(dp2947
g94
g95
ssg83
g2941
sg76
(lp2948
S'user'
p2949
asbag69
(g90
g71
NtRp2950
(dp2951
g74
(dp2952
g101
g102
ssg83
g2941
sg76
(lp2953
S':'
asbag69
(g90
g71
NtRp2954
(dp2955
g74
(dp2956
sg83
g2941
sg76
(lp2957
g69
(g70
g71
NtRp2958
(dp2959
g74
(dp2960
g82
I4
ssg83
g2954
sg76
(lp2961
g69
(g78
g71
NtRp2962
(dp2963
g74
(dp2964
g82
I3
ssg83
Nsg76
(lp2965
g69
(g85
g71
NtRp2966
(dp2967
g74
(dp2968
sg83
g2962
sg76
(lp2969
g69
(g90
g71
NtRp2970
(dp2971
g74
(dp2972
g94
g95
ssg83
g2966
sg76
(lp2973
S'address'
p2974
asbag69
(g90
g71
NtRp2975
(dp2976
g74
(dp2977
g101
g102
ssg83
g2966
sg76
(lp2978
S':'
asbag69
(g90
g71
NtRp2979
(dp2980
g74
(dp2981
sg83
g2966
sg76
(lp2982
g69
(g70
g71
NtRp2983
(dp2984
g74
(dp2985
g82
I3
ssg83
g2979
sg76
(lp2986
S'None'
p2987
asbasbasbag69
(g85
g71
NtRp2988
(dp2989
g74
(dp2990
sg83
g2962
sg76
(lp2991
g69
(g90
g71
NtRp2992
(dp2993
g74
(dp2994
g94
g95
ssg83
g2988
sg76
(lp2995
S'email'
p2996
asbag69
(g90
g71
NtRp2997
(dp2998
g74
(dp2999
g101
g102
ssg83
g2988
sg76
(lp3000
S':'
asbag69
(g90
g71
NtRp3001
(dp3002
g74
(dp3003
sg83
g2988
sg76
(lp3004
g69
(g70
g71
NtRp3005
(dp3006
g74
(dp3007
g82
I3
ssg83
g3001
sg76
(lp3008
S'rochacbruno@gmail.com'
p3009
asbasbasbag69
(g85
g71
NtRp3010
(dp3011
g74
(dp3012
sg83
g2962
sg76
(lp3013
g69
(g90
g71
NtRp3014
(dp3015
g74
(dp3016
g94
g95
ssg83
g3010
sg76
(lp3017
S'first_name'
p3018
asbag69
(g90
g71
NtRp3019
(dp3020
g74
(dp3021
g101
g102
ssg83
g3010
sg76
(lp3022
S':'
asbag69
(g90
g71
NtRp3023
(dp3024
g74
(dp3025
sg83
g3010
sg76
(lp3026
g69
(g70
g71
NtRp3027
(dp3028
g74
(dp3029
g82
I3
ssg83
g3023
sg76
(lp3030
S'Bruno'
p3031
asbasbasbag69
(g85
g71
NtRp3032
(dp3033
g74
(dp3034
sg83
g2962
sg76
(lp3035
g69
(g90
g71
NtRp3036
(dp3037
g74
(dp3038
g94
g95
ssg83
g3032
sg76
(lp3039
S'house_number'
p3040
asbag69
(g90
g71
NtRp3041
(dp3042
g74
(dp3043
g101
g102
ssg83
g3032
sg76
(lp3044
S':'
asbag69
(g90
g71
NtRp3045
(dp3046
g74
(dp3047
sg83
g3032
sg76
(lp3048
g69
(g70
g71
NtRp3049
(dp3050
g74
(dp3051
g82
I3
ssg83
g3045
sg76
(lp3052
S'None'
p3053
asbasbasbag69
(g85
g71
NtRp3054
(dp3055
g74
(dp3056
sg83
g2962
sg76
(lp3057
g69
(g90
g71
NtRp3058
(dp3059
g74
(dp3060
g94
g95
ssg83
g3054
sg76
(lp3061
S'id'
p3062
asbag69
(g90
g71
NtRp3063
(dp3064
g74
(dp3065
g101
g102
ssg83
g3054
sg76
(lp3066
S':'
asbag69
(g90
g71
NtRp3067
(dp3068
g74
(dp3069
sg83
g3054
sg76
(lp3070
g69
(g70
g71
NtRp3071
(dp3072
g74
(dp3073
g82
I3
ssg83
g3067
sg76
(lp3074
S'1'
asbasbasbag69
(g85
g71
NtRp3075
(dp3076
g74
(dp3077
sg83
g2962
sg76
(lp3078
g69
(g90
g71
NtRp3079
(dp3080
g74
(dp3081
g94
g95
ssg83
g3075
sg76
(lp3082
S'last_name'
p3083
asbag69
(g90
g71
NtRp3084
(dp3085
g74
(dp3086
g101
g102
ssg83
g3075
sg76
(lp3087
S':'
asbag69
(g90
g71
NtRp3088
(dp3089
g74
(dp3090
sg83
g3075
sg76
(lp3091
g69
(g70
g71
NtRp3092
(dp3093
g74
(dp3094
g82
I3
ssg83
g3088
sg76
(lp3095
S'Rocha'
p3096
asbasbasbag69
(g85
g71
NtRp3097
(dp3098
g74
(dp3099
sg83
g2962
sg76
(lp3100
g69
(g90
g71
NtRp3101
(dp3102
g74
(dp3103
g94
g95
ssg83
g3097
sg76
(lp3104
S'password'
p3105
asbag69
(g90
g71
NtRp3106
(dp3107
g74
(dp3108
g101
g102
ssg83
g3097
sg76
(lp3109
S':'
asbag69
(g90
g71
NtRp3110
(dp3111
g74
(dp3112
sg83
g3097
sg76
(lp3113
g69
(g70
g71
NtRp3114
(dp3115
g74
(dp3116
g82
I3
ssg83
g3110
sg76
(lp3117
S'pbkdf2(1000,20,sha512)$9de72ab0ed475658$17f88e283a7180b05529366c40b73897e11d420f'
p3118
asbasbasbag69
(g85
g71
NtRp3119
(dp3120
g74
(dp3121
sg83
g2962
sg76
(lp3122
g69
(g90
g71
NtRp3123
(dp3124
g74
(dp3125
g94
g95
ssg83
g3119
sg76
(lp3126
S'picture'
p3127
asbag69
(g90
g71
NtRp3128
(dp3129
g74
(dp3130
g101
g102
ssg83
g3119
sg76
(lp3131
S':'
asbag69
(g90
g71
NtRp3132
(dp3133
g74
(dp3134
sg83
g3119
sg76
(lp3135
g69
(g70
g71
NtRp3136
(dp3137
g74
(dp3138
g82
I3
ssg83
g3132
sg76
(lp3139
S'None'
p3140
asbasbasbag69
(g85
g71
NtRp3141
(dp3142
g74
(dp3143
sg83
g2962
sg76
(lp3144
g69
(g90
g71
NtRp3145
(dp3146
g74
(dp3147
g94
g95
ssg83
g3141
sg76
(lp3148
S'registration_id'
p3149
asbag69
(g90
g71
NtRp3150
(dp3151
g74
(dp3152
g101
g102
ssg83
g3141
sg76
(lp3153
S':'
asbag69
(g90
g71
NtRp3154
(dp3155
g74
(dp3156
sg83
g3141
sg76
(lp3157
g69
(g70
g71
NtRp3158
(dp3159
g74
(dp3160
g82
I3
ssg83
g3154
sg76
(lp3161
S''
asbasbasbag69
(g85
g71
NtRp3162
(dp3163
g74
(dp3164
sg83
g2962
sg76
(lp3165
g69
(g90
g71
NtRp3166
(dp3167
g74
(dp3168
g94
g95
ssg83
g3162
sg76
(lp3169
S'registration_key'
p3170
asbag69
(g90
g71
NtRp3171
(dp3172
g74
(dp3173
g101
g102
ssg83
g3162
sg76
(lp3174
S':'
asbag69
(g90
g71
NtRp3175
(dp3176
g74
(dp3177
sg83
g3162
sg76
(lp3178
g69
(g70
g71
NtRp3179
(dp3180
g74
(dp3181
g82
I3
ssg83
g3175
sg76
(lp3182
S''
asbasbasbag69
(g85
g71
NtRp3183
(dp3184
g74
(dp3185
sg83
g2962
sg76
(lp3186
g69
(g90
g71
NtRp3187
(dp3188
g74
(dp3189
g94
g95
ssg83
g3183
sg76
(lp3190
S'reset_password_key'
p3191
asbag69
(g90
g71
NtRp3192
(dp3193
g74
(dp3194
g101
g102
ssg83
g3183
sg76
(lp3195
S':'
asbag69
(g90
g71
NtRp3196
(dp3197
g74
(dp3198
sg83
g3183
sg76
(lp3199
g69
(g70
g71
NtRp3200
(dp3201
g74
(dp3202
g82
I3
ssg83
g3196
sg76
(lp3203
S''
asbasbasbag69
(g85
g71
NtRp3204
(dp3205
g74
(dp3206
sg83
g2962
sg76
(lp3207
g69
(g90
g71
NtRp3208
(dp3209
g74
(dp3210
g94
g95
ssg83
g3204
sg76
(lp3211
S'zipcode'
p3212
asbag69
(g90
g71
NtRp3213
(dp3214
g74
(dp3215
g101
g102
ssg83
g3204
sg76
(lp3216
S':'
asbag69
(g90
g71
NtRp3217
(dp3218
g74
(dp3219
sg83
g3204
sg76
(lp3220
g69
(g70
g71
NtRp3221
(dp3222
g74
(dp3223
g82
I3
ssg83
g3217
sg76
(lp3224
S'None'
p3225
asbasbasbasbasbasbasbag69
(g85
g71
NtRp3226
(dp3227
g74
(dp3228
sg83
g2850
sg76
(lp3229
g69
(g90
g71
NtRp3230
(dp3231
g74
(dp3232
g94
g95
ssg83
g3226
sg76
(lp3233
S'user_groups'
p3234
asbag69
(g90
g71
NtRp3235
(dp3236
g74
(dp3237
g101
g102
ssg83
g3226
sg76
(lp3238
S':'
asbag69
(g90
g71
NtRp3239
(dp3240
g74
(dp3241
sg83
g3226
sg76
(lp3242
g69
(g70
g71
NtRp3243
(dp3244
g74
(dp3245
g82
I4
ssg83
g3239
sg76
(lp3246
g69
(g78
g71
NtRp3247
(dp3248
g74
(dp3249
g82
I3
ssg83
Nsg76
(lp3250
g69
(g85
g71
NtRp3251
(dp3252
g74
(dp3253
sg83
g3247
sg76
(lp3254
g69
(g90
g71
NtRp3255
(dp3256
g74
(dp3257
g94
g95
ssg83
g3251
sg76
(lp3258
S'1'
asbag69
(g90
g71
NtRp3259
(dp3260
g74
(dp3261
g101
g102
ssg83
g3251
sg76
(lp3262
S':'
asbag69
(g90
g71
NtRp3263
(dp3264
g74
(dp3265
sg83
g3251
sg76
(lp3266
g69
(g70
g71
NtRp3267
(dp3268
g74
(dp3269
g82
I3
ssg83
g3263
sg76
(lp3270
S'user_1'
p3271
asbasbasbag69
(g85
g71
NtRp3272
(dp3273
g74
(dp3274
sg83
g3247
sg76
(lp3275
g69
(g90
g71
NtRp3276
(dp3277
g74
(dp3278
g94
g95
ssg83
g3272
sg76
(lp3279
S'3'
asbag69
(g90
g71
NtRp3280
(dp3281
g74
(dp3282
g101
g102
ssg83
g3272
sg76
(lp3283
S':'
asbag69
(g90
g71
NtRp3284
(dp3285
g74
(dp3286
sg83
g3272
sg76
(lp3287
g69
(g70
g71
NtRp3288
(dp3289
g74
(dp3290
g82
I3
ssg83
g3284
sg76
(lp3291
S'admin'
p3292
asbasbasbasbasbasbasbasbasbasbasbag69
(g85
g71
NtRp3293
(dp3294
g74
(dp3295
sg83
g2825
sg76
(lp3296
g69
(g90
g71
NtRp3297
(dp3298
g74
(dp3299
g94
g95
ssg83
g3293
sg76
(lp3300
S'last_query'
p3301
asbag69
(g90
g71
NtRp3302
(dp3303
g74
(dp3304
g101
g102
ssg83
g3293
sg76
(lp3305
S':'
asbag69
(g90
g71
NtRp3306
(dp3307
g74
(dp3308
sg83
g3293
sg76
(lp3309
g69
(g70
g71
NtRp3310
(dp3311
g74
(dp3312
g82
I5
ssg83
g3306
sg76
(lp3313
S'db.auth_membership.id>0'
p3314
asbasbasbasbasbsS'etype'
p3315
S"<type 'exceptions.SyntaxError'>"
p3316
sS'date'
p3317
S'Sun Aug 19 11:04:27 2012'
p3318
sS'response'
p3319
g69
(g70
g71
NtRp3320
(dp3321
g74
(dp3322
sg76
(lp3323
g69
(g78
g71
NtRp3324
(dp3325
g74
(dp3326
g82
I5
ssg83
Nsg76
(lp3327
g69
(g85
g71
NtRp3328
(dp3329
g74
(dp3330
sg83
g3324
sg76
(lp3331
g69
(g90
g71
NtRp3332
(dp3333
g74
(dp3334
g94
g95
ssg83
g3328
sg76
(lp3335
g167
asbag69
(g90
g71
NtRp3336
(dp3337
g74
(dp3338
g101
g102
ssg83
g3328
sg76
(lp3339
S':'
asbag69
(g90
g71
NtRp3340
(dp3341
g74
(dp3342
sg83
g3328
sg76
(lp3343
g69
(g70
g71
NtRp3344
(dp3345
g74
(dp3346
g82
I5
ssg83
g3340
sg76
(lp3347
S'<cStringIO.StringO object at 0x029726C0>'
p3348
asbasbasbag69
(g85
g71
NtRp3349
(dp3350
g74
(dp3351
sg83
g3324
sg76
(lp3352
g69
(g90
g71
NtRp3353
(dp3354
g74
(dp3355
g94
g95
ssg83
g3349
sg76
(lp3356
g233
asbag69
(g90
g71
NtRp3357
(dp3358
g74
(dp3359
g101
g102
ssg83
g3349
sg76
(lp3360
S':'
asbag69
(g90
g71
NtRp3361
(dp3362
g74
(dp3363
sg83
g3349
sg76
(lp3364
g69
(g70
g71
NtRp3365
(dp3366
g74
(dp3367
g82
I5
ssg83
g3361
sg76
(lp3368
g69
(g78
g71
NtRp3369
(dp3370
g74
(dp3371
g82
I4
ssg83
Nsg76
(lp3372
g69
(g85
g71
NtRp3373
(dp3374
g74
(dp3375
sg83
g3369
sg76
(lp3376
g69
(g90
g71
NtRp3377
(dp3378
g74
(dp3379
g94
g95
ssg83
g3373
sg76
(lp3380
S'session_id_ecommerce'
p3381
asbag69
(g90
g71
NtRp3382
(dp3383
g74
(dp3384
g101
g102
ssg83
g3373
sg76
(lp3385
S':'
asbag69
(g90
g71
NtRp3386
(dp3387
g74
(dp3388
sg83
g3373
sg76
(lp3389
g69
(g70
g71
NtRp3390
(dp3391
g74
(dp3392
g82
I4
ssg83
g3386
sg76
(lp3393
g465
ag69
(g78
g71
NtRp3394
(dp3395
g74
(dp3396
g82
I3
ssg83
Nsg76
(lp3397
g69
(g85
g71
NtRp3398
(dp3399
g74
(dp3400
sg83
g3394
sg76
(lp3401
g69
(g90
g71
NtRp3402
(dp3403
g74
(dp3404
g94
g95
ssg83
g3398
sg76
(lp3405
g284
asbag69
(g90
g71
NtRp3406
(dp3407
g74
(dp3408
g101
g102
ssg83
g3398
sg76
(lp3409
S':'
asbag69
(g90
g71
NtRp3410
(dp3411
g74
(dp3412
sg83
g3398
sg76
(lp3413
g69
(g70
g71
NtRp3414
(dp3415
g74
(dp3416
g82
I3
ssg83
g3410
sg76
(lp3417
S''
asbasbasbag69
(g85
g71
NtRp3418
(dp3419
g74
(dp3420
sg83
g3394
sg76
(lp3421
g69
(g90
g71
NtRp3422
(dp3423
g74
(dp3424
g94
g95
ssg83
g3418
sg76
(lp3425
g305
asbag69
(g90
g71
NtRp3426
(dp3427
g74
(dp3428
g101
g102
ssg83
g3418
sg76
(lp3429
S':'
asbag69
(g90
g71
NtRp3430
(dp3431
g74
(dp3432
sg83
g3418
sg76
(lp3433
g69
(g70
g71
NtRp3434
(dp3435
g74
(dp3436
g82
I3
ssg83
g3430
sg76
(lp3437
S''
asbasbasbag69
(g85
g71
NtRp3438
(dp3439
g74
(dp3440
sg83
g3394
sg76
(lp3441
g69
(g90
g71
NtRp3442
(dp3443
g74
(dp3444
g94
g95
ssg83
g3438
sg76
(lp3445
g326
asbag69
(g90
g71
NtRp3446
(dp3447
g74
(dp3448
g101
g102
ssg83
g3438
sg76
(lp3449
S':'
asbag69
(g90
g71
NtRp3450
(dp3451
g74
(dp3452
sg83
g3438
sg76
(lp3453
g69
(g70
g71
NtRp3454
(dp3455
g74
(dp3456
g82
I3
ssg83
g3450
sg76
(lp3457
S''
asbasbasbag69
(g85
g71
NtRp3458
(dp3459
g74
(dp3460
sg83
g3394
sg76
(lp3461
g69
(g90
g71
NtRp3462
(dp3463
g74
(dp3464
g94
g95
ssg83
g3458
sg76
(lp3465
g347
asbag69
(g90
g71
NtRp3466
(dp3467
g74
(dp3468
g101
g102
ssg83
g3458
sg76
(lp3469
S':'
asbag69
(g90
g71
NtRp3470
(dp3471
g74
(dp3472
sg83
g3458
sg76
(lp3473
g69
(g70
g71
NtRp3474
(dp3475
g74
(dp3476
g82
I3
ssg83
g3470
sg76
(lp3477
S''
asbasbasbag69
(g85
g71
NtRp3478
(dp3479
g74
(dp3480
sg83
g3394
sg76
(lp3481
g69
(g90
g71
NtRp3482
(dp3483
g74
(dp3484
g94
g95
ssg83
g3478
sg76
(lp3485
g368
asbag69
(g90
g71
NtRp3486
(dp3487
g74
(dp3488
g101
g102
ssg83
g3478
sg76
(lp3489
S':'
asbag69
(g90
g71
NtRp3490
(dp3491
g74
(dp3492
sg83
g3478
sg76
(lp3493
g69
(g70
g71
NtRp3494
(dp3495
g74
(dp3496
g82
I3
ssg83
g3490
sg76
(lp3497
S''
asbasbasbag69
(g85
g71
NtRp3498
(dp3499
g74
(dp3500
sg83
g3394
sg76
(lp3501
g69
(g90
g71
NtRp3502
(dp3503
g74
(dp3504
g94
g95
ssg83
g3498
sg76
(lp3505
g389
asbag69
(g90
g71
NtRp3506
(dp3507
g74
(dp3508
g101
g102
ssg83
g3498
sg76
(lp3509
S':'
asbag69
(g90
g71
NtRp3510
(dp3511
g74
(dp3512
sg83
g3498
sg76
(lp3513
g69
(g70
g71
NtRp3514
(dp3515
g74
(dp3516
g82
I3
ssg83
g3510
sg76
(lp3517
S'/'
asbasbasbag69
(g85
g71
NtRp3518
(dp3519
g74
(dp3520
sg83
g3394
sg76
(lp3521
g69
(g90
g71
NtRp3522
(dp3523
g74
(dp3524
g94
g95
ssg83
g3518
sg76
(lp3525
g410
asbag69
(g90
g71
NtRp3526
(dp3527
g74
(dp3528
g101
g102
ssg83
g3518
sg76
(lp3529
S':'
asbag69
(g90
g71
NtRp3530
(dp3531
g74
(dp3532
sg83
g3518
sg76
(lp3533
g69
(g70
g71
NtRp3534
(dp3535
g74
(dp3536
g82
I3
ssg83
g3530
sg76
(lp3537
S''
asbasbasbag69
(g85
g71
NtRp3538
(dp3539
g74
(dp3540
sg83
g3394
sg76
(lp3541
g69
(g90
g71
NtRp3542
(dp3543
g74
(dp3544
g94
g95
ssg83
g3538
sg76
(lp3545
g431
asbag69
(g90
g71
NtRp3546
(dp3547
g74
(dp3548
g101
g102
ssg83
g3538
sg76
(lp3549
S':'
asbag69
(g90
g71
NtRp3550
(dp3551
g74
(dp3552
sg83
g3538
sg76
(lp3553
g69
(g70
g71
NtRp3554
(dp3555
g74
(dp3556
g82
I3
ssg83
g3550
sg76
(lp3557
S''
asbasbasbasbasbasbasbasbasbasbasbag69
(g85
g71
NtRp3558
(dp3559
g74
(dp3560
sg83
g3324
sg76
(lp3561
g69
(g90
g71
NtRp3562
(dp3563
g74
(dp3564
g94
g95
ssg83
g3558
sg76
(lp3565
S'delimiters'
p3566
asbag69
(g90
g71
NtRp3567
(dp3568
g74
(dp3569
g101
g102
ssg83
g3558
sg76
(lp3570
S':'
asbag69
(g90
g71
NtRp3571
(dp3572
g74
(dp3573
sg83
g3558
sg76
(lp3574
g69
(g70
g71
NtRp3575
(dp3576
g74
(dp3577
g82
I5
ssg83
g3571
sg76
(lp3578
g69
(g78
g71
NtRp3579
(dp3580
g74
(dp3581
g82
I4
ssg83
Nsg76
(lp3582
g69
(g85
g71
NtRp3583
(dp3584
g74
(dp3585
sg83
g3579
sg76
(lp3586
g69
(g90
g71
NtRp3587
(dp3588
g74
(dp3589
sg83
g3583
sg76
(lp3590
g69
(g70
g71
NtRp3591
(dp3592
g74
(dp3593
g82
I4
ssg83
g3587
sg76
(lp3594
S'{{'
p3595
asbasbasbag69
(g85
g71
NtRp3596
(dp3597
g74
(dp3598
sg83
g3579
sg76
(lp3599
g69
(g90
g71
NtRp3600
(dp3601
g74
(dp3602
sg83
g3596
sg76
(lp3603
g69
(g70
g71
NtRp3604
(dp3605
g74
(dp3606
g82
I4
ssg83
g3600
sg76
(lp3607
S'}}'
p3608
asbasbasbasbasbasbasbag69
(g85
g71
NtRp3609
(dp3610
g74
(dp3611
sg83
g3324
sg76
(lp3612
g69
(g90
g71
NtRp3613
(dp3614
g74
(dp3615
g94
g95
ssg83
g3609
sg76
(lp3616
S'description'
p3617
asbag69
(g90
g71
NtRp3618
(dp3619
g74
(dp3620
g101
g102
ssg83
g3609
sg76
(lp3621
S':'
asbag69
(g90
g71
NtRp3622
(dp3623
g74
(dp3624
sg83
g3609
sg76
(lp3625
g69
(g70
g71
NtRp3626
(dp3627
g74
(dp3628
g82
I5
ssg83
g3622
sg76
(lp3629
S'Ecommerce'
p3630
asbasbasbag69
(g85
g71
NtRp3631
(dp3632
g74
(dp3633
sg83
g3324
sg76
(lp3634
g69
(g90
g71
NtRp3635
(dp3636
g74
(dp3637
g94
g95
ssg83
g3631
sg76
(lp3638
S'files'
p3639
asbag69
(g90
g71
NtRp3640
(dp3641
g74
(dp3642
g101
g102
ssg83
g3631
sg76
(lp3643
S':'
asbag69
(g90
g71
NtRp3644
(dp3645
g74
(dp3646
sg83
g3631
sg76
(lp3647
g69
(g70
g71
NtRp3648
(dp3649
g74
(dp3650
g82
I5
ssg83
g3644
sg76
(lp3651
g69
(g78
g71
NtRp3652
(dp3653
g74
(dp3654
g82
I4
ssg83
Nsg76
(lp3655
sbasbasbasbag69
(g85
g71
NtRp3656
(dp3657
g74
(dp3658
sg83
g3324
sg76
(lp3659
g69
(g90
g71
NtRp3660
(dp3661
g74
(dp3662
g94
g95
ssg83
g3656
sg76
(lp3663
S'flash'
p3664
asbag69
(g90
g71
NtRp3665
(dp3666
g74
(dp3667
g101
g102
ssg83
g3656
sg76
(lp3668
S':'
asbag69
(g90
g71
NtRp3669
(dp3670
g74
(dp3671
sg83
g3656
sg76
(lp3672
g69
(g70
g71
NtRp3673
(dp3674
g74
(dp3675
g82
I5
ssg83
g3669
sg76
(lp3676
S''
asbasbasbag69
(g85
g71
NtRp3677
(dp3678
g74
(dp3679
sg83
g3324
sg76
(lp3680
g69
(g90
g71
NtRp3681
(dp3682
g74
(dp3683
g94
g95
ssg83
g3677
sg76
(lp3684
S'generic_patterns'
p3685
asbag69
(g90
g71
NtRp3686
(dp3687
g74
(dp3688
g101
g102
ssg83
g3677
sg76
(lp3689
S':'
asbag69
(g90
g71
NtRp3690
(dp3691
g74
(dp3692
sg83
g3677
sg76
(lp3693
g69
(g70
g71
NtRp3694
(dp3695
g74
(dp3696
g82
I5
ssg83
g3690
sg76
(lp3697
g69
(g78
g71
NtRp3698
(dp3699
g74
(dp3700
g82
I4
ssg83
Nsg76
(lp3701
g69
(g85
g71
NtRp3702
(dp3703
g74
(dp3704
sg83
g3698
sg76
(lp3705
g69
(g90
g71
NtRp3706
(dp3707
g74
(dp3708
sg83
g3702
sg76
(lp3709
g69
(g70
g71
NtRp3710
(dp3711
g74
(dp3712
g82
I4
ssg83
g3706
sg76
(lp3713
S'*'
asbasbasbasbasbasbasbag69
(g85
g71
NtRp3714
(dp3715
g74
(dp3716
sg83
g3324
sg76
(lp3717
g69
(g90
g71
NtRp3718
(dp3719
g74
(dp3720
g94
g95
ssg83
g3714
sg76
(lp3721
S'headers'
p3722
asbag69
(g90
g71
NtRp3723
(dp3724
g74
(dp3725
g101
g102
ssg83
g3714
sg76
(lp3726
S':'
asbag69
(g90
g71
NtRp3727
(dp3728
g74
(dp3729
sg83
g3714
sg76
(lp3730
g69
(g70
g71
NtRp3731
(dp3732
g74
(dp3733
g82
I5
ssg83
g3727
sg76
(lp3734
g69
(g78
g71
NtRp3735
(dp3736
g74
(dp3737
g82
I4
ssg83
Nsg76
(lp3738
g69
(g85
g71
NtRp3739
(dp3740
g74
(dp3741
sg83
g3735
sg76
(lp3742
g69
(g90
g71
NtRp3743
(dp3744
g74
(dp3745
g94
g95
ssg83
g3739
sg76
(lp3746
S'Cache-Control'
p3747
asbag69
(g90
g71
NtRp3748
(dp3749
g74
(dp3750
g101
g102
ssg83
g3739
sg76
(lp3751
S':'
asbag69
(g90
g71
NtRp3752
(dp3753
g74
(dp3754
sg83
g3739
sg76
(lp3755
g69
(g70
g71
NtRp3756
(dp3757
g74
(dp3758
g82
I4
ssg83
g3752
sg76
(lp3759
S'no-store, no-cache, must-revalidate, post-check=0, pre-check=0'
p3760
asbasbasbag69
(g85
g71
NtRp3761
(dp3762
g74
(dp3763
sg83
g3735
sg76
(lp3764
g69
(g90
g71
NtRp3765
(dp3766
g74
(dp3767
g94
g95
ssg83
g3761
sg76
(lp3768
S'Content-Type'
p3769
asbag69
(g90
g71
NtRp3770
(dp3771
g74
(dp3772
g101
g102
ssg83
g3761
sg76
(lp3773
S':'
asbag69
(g90
g71
NtRp3774
(dp3775
g74
(dp3776
sg83
g3761
sg76
(lp3777
g69
(g70
g71
NtRp3778
(dp3779
g74
(dp3780
g82
I4
ssg83
g3774
sg76
(lp3781
S'text/html; charset=utf-8'
p3782
asbasbasbag69
(g85
g71
NtRp3783
(dp3784
g74
(dp3785
sg83
g3735
sg76
(lp3786
g69
(g90
g71
NtRp3787
(dp3788
g74
(dp3789
g94
g95
ssg83
g3783
sg76
(lp3790
S'Expires'
p3791
asbag69
(g90
g71
NtRp3792
(dp3793
g74
(dp3794
g101
g102
ssg83
g3783
sg76
(lp3795
S':'
asbag69
(g90
g71
NtRp3796
(dp3797
g74
(dp3798
sg83
g3783
sg76
(lp3799
g69
(g70
g71
NtRp3800
(dp3801
g74
(dp3802
g82
I4
ssg83
g3796
sg76
(lp3803
S'Sun, 19 Aug 2012 14:04:27 GMT'
p3804
asbasbasbag69
(g85
g71
NtRp3805
(dp3806
g74
(dp3807
sg83
g3735
sg76
(lp3808
g69
(g90
g71
NtRp3809
(dp3810
g74
(dp3811
g94
g95
ssg83
g3805
sg76
(lp3812
S'Pragma'
p3813
asbag69
(g90
g71
NtRp3814
(dp3815
g74
(dp3816
g101
g102
ssg83
g3805
sg76
(lp3817
S':'
asbag69
(g90
g71
NtRp3818
(dp3819
g74
(dp3820
sg83
g3805
sg76
(lp3821
g69
(g70
g71
NtRp3822
(dp3823
g74
(dp3824
g82
I4
ssg83
g3818
sg76
(lp3825
S'no-cache'
p3826
asbasbasbag69
(g85
g71
NtRp3827
(dp3828
g74
(dp3829
sg83
g3735
sg76
(lp3830
g69
(g90
g71
NtRp3831
(dp3832
g74
(dp3833
g94
g95
ssg83
g3827
sg76
(lp3834
S'X-Powered-By'
p3835
asbag69
(g90
g71
NtRp3836
(dp3837
g74
(dp3838
g101
g102
ssg83
g3827
sg76
(lp3839
S':'
asbag69
(g90
g71
NtRp3840
(dp3841
g74
(dp3842
sg83
g3827
sg76
(lp3843
g69
(g70
g71
NtRp3844
(dp3845
g74
(dp3846
g82
I4
ssg83
g3840
sg76
(lp3847
S'web2py'
p3848
asbasbasbasbasbasbasbag69
(g85
g71
NtRp3849
(dp3850
g74
(dp3851
sg83
g3324
sg76
(lp3852
g69
(g90
g71
NtRp3853
(dp3854
g74
(dp3855
g94
g95
ssg83
g3849
sg76
(lp3856
S'menu'
p3857
asbag69
(g90
g71
NtRp3858
(dp3859
g74
(dp3860
g101
g102
ssg83
g3849
sg76
(lp3861
S':'
asbag69
(g90
g71
NtRp3862
(dp3863
g74
(dp3864
sg83
g3849
sg76
(lp3865
g69
(g70
g71
NtRp3866
(dp3867
g74
(dp3868
g82
I5
ssg83
g3862
sg76
(lp3869
g69
(g78
g71
NtRp3870
(dp3871
g74
(dp3872
g82
I4
ssg83
Nsg76
(lp3873
sbasbasbasbag69
(g85
g71
NtRp3874
(dp3875
g74
(dp3876
sg83
g3324
sg76
(lp3877
g69
(g90
g71
NtRp3878
(dp3879
g74
(dp3880
g94
g95
ssg83
g3874
sg76
(lp3881
S'meta'
p3882
asbag69
(g90
g71
NtRp3883
(dp3884
g74
(dp3885
g101
g102
ssg83
g3874
sg76
(lp3886
S':'
asbag69
(g90
g71
NtRp3887
(dp3888
g74
(dp3889
sg83
g3874
sg76
(lp3890
g69
(g70
g71
NtRp3891
(dp3892
g74
(dp3893
g82
I5
ssg83
g3887
sg76
(lp3894
g69
(g78
g71
NtRp3895
(dp3896
g74
(dp3897
g82
I4
ssg83
Nsg76
(lp3898
sbasbasbasbag69
(g85
g71
NtRp3899
(dp3900
g74
(dp3901
sg83
g3324
sg76
(lp3902
g69
(g90
g71
NtRp3903
(dp3904
g74
(dp3905
g94
g95
ssg83
g3899
sg76
(lp3906
S'postprocessing'
p3907
asbag69
(g90
g71
NtRp3908
(dp3909
g74
(dp3910
g101
g102
ssg83
g3899
sg76
(lp3911
S':'
asbag69
(g90
g71
NtRp3912
(dp3913
g74
(dp3914
sg83
g3899
sg76
(lp3915
g69
(g70
g71
NtRp3916
(dp3917
g74
(dp3918
g82
I5
ssg83
g3912
sg76
(lp3919
g69
(g78
g71
NtRp3920
(dp3921
g74
(dp3922
g82
I4
ssg83
Nsg76
(lp3923
sbasbasbasbag69
(g85
g71
NtRp3924
(dp3925
g74
(dp3926
sg83
g3324
sg76
(lp3927
g69
(g90
g71
NtRp3928
(dp3929
g74
(dp3930
g94
g95
ssg83
g3924
sg76
(lp3931
S'session_file'
p3932
asbag69
(g90
g71
NtRp3933
(dp3934
g74
(dp3935
g101
g102
ssg83
g3924
sg76
(lp3936
S':'
asbag69
(g90
g71
NtRp3937
(dp3938
g74
(dp3939
sg83
g3924
sg76
(lp3940
g69
(g70
g71
NtRp3941
(dp3942
g74
(dp3943
g82
I5
ssg83
g3937
sg76
(lp3944
S"<open file 'c:\\Users\\rochacbruno\\jul12\\cursojulho12\\web2py\\applications\\ecommerce\\sessions\\127.0.0.1-61e66857-a1cd-422b-bcbc-b6eb18034f96', mode 'rb+' at 0x0295B5A0>"
p3945
asbasbasbag69
(g85
g71
NtRp3946
(dp3947
g74
(dp3948
sg83
g3324
sg76
(lp3949
g69
(g90
g71
NtRp3950
(dp3951
g74
(dp3952
g94
g95
ssg83
g3946
sg76
(lp3953
S'session_filename'
p3954
asbag69
(g90
g71
NtRp3955
(dp3956
g74
(dp3957
g101
g102
ssg83
g3946
sg76
(lp3958
S':'
asbag69
(g90
g71
NtRp3959
(dp3960
g74
(dp3961
sg83
g3946
sg76
(lp3962
g69
(g70
g71
NtRp3963
(dp3964
g74
(dp3965
g82
I5
ssg83
g3959
sg76
(lp3966
S'c:\\Users\\rochacbruno\\jul12\\cursojulho12\\web2py\\applications\\ecommerce\\sessions\\127.0.0.1-61e66857-a1cd-422b-bcbc-b6eb18034f96'
p3967
asbasbasbag69
(g85
g71
NtRp3968
(dp3969
g74
(dp3970
sg83
g3324
sg76
(lp3971
g69
(g90
g71
NtRp3972
(dp3973
g74
(dp3974
g94
g95
ssg83
g3968
sg76
(lp3975
S'session_id'
p3976
asbag69
(g90
g71
NtRp3977
(dp3978
g74
(dp3979
g101
g102
ssg83
g3968
sg76
(lp3980
S':'
asbag69
(g90
g71
NtRp3981
(dp3982
g74
(dp3983
sg83
g3968
sg76
(lp3984
g69
(g70
g71
NtRp3985
(dp3986
g74
(dp3987
g82
I5
ssg83
g3981
sg76
(lp3988
g465
asbasbasbag69
(g85
g71
NtRp3989
(dp3990
g74
(dp3991
sg83
g3324
sg76
(lp3992
g69
(g90
g71
NtRp3993
(dp3994
g74
(dp3995
g94
g95
ssg83
g3989
sg76
(lp3996
S'session_id_name'
p3997
asbag69
(g90
g71
NtRp3998
(dp3999
g74
(dp4000
g101
g102
ssg83
g3989
sg76
(lp4001
S':'
asbag69
(g90
g71
NtRp4002
(dp4003
g74
(dp4004
sg83
g3989
sg76
(lp4005
g69
(g70
g71
NtRp4006
(dp4007
g74
(dp4008
g82
I5
ssg83
g4002
sg76
(lp4009
g3381
asbasbasbag69
(g85
g71
NtRp4010
(dp4011
g74
(dp4012
sg83
g3324
sg76
(lp4013
g69
(g90
g71
NtRp4014
(dp4015
g74
(dp4016
g94
g95
ssg83
g4010
sg76
(lp4017
S'session_locked'
p4018
asbag69
(g90
g71
NtRp4019
(dp4020
g74
(dp4021
g101
g102
ssg83
g4010
sg76
(lp4022
S':'
asbag69
(g90
g71
NtRp4023
(dp4024
g74
(dp4025
sg83
g4010
sg76
(lp4026
g69
(g70
g71
NtRp4027
(dp4028
g74
(dp4029
g82
I5
ssg83
g4023
sg76
(lp4030
g1462
asbasbasbag69
(g85
g71
NtRp4031
(dp4032
g74
(dp4033
sg83
g3324
sg76
(lp4034
g69
(g90
g71
NtRp4035
(dp4036
g74
(dp4037
g94
g95
ssg83
g4031
sg76
(lp4038
S'session_new'
p4039
asbag69
(g90
g71
NtRp4040
(dp4041
g74
(dp4042
g101
g102
ssg83
g4031
sg76
(lp4043
S':'
asbag69
(g90
g71
NtRp4044
(dp4045
g74
(dp4046
sg83
g4031
sg76
(lp4047
g69
(g70
g71
NtRp4048
(dp4049
g74
(dp4050
g82
I5
ssg83
g4044
sg76
(lp4051
g112
asbasbasbag69
(g85
g71
NtRp4052
(dp4053
g74
(dp4054
sg83
g3324
sg76
(lp4055
g69
(g90
g71
NtRp4056
(dp4057
g74
(dp4058
g94
g95
ssg83
g4052
sg76
(lp4059
S'status'
p4060
asbag69
(g90
g71
NtRp4061
(dp4062
g74
(dp4063
g101
g102
ssg83
g4052
sg76
(lp4064
S':'
asbag69
(g90
g71
NtRp4065
(dp4066
g74
(dp4067
sg83
g4052
sg76
(lp4068
g69
(g70
g71
NtRp4069
(dp4070
g74
(dp4071
g82
I5
ssg83
g4065
sg76
(lp4072
S'200'
p4073
asbasbasbag69
(g85
g71
NtRp4074
(dp4075
g74
(dp4076
sg83
g3324
sg76
(lp4077
g69
(g90
g71
NtRp4078
(dp4079
g74
(dp4080
g94
g95
ssg83
g4074
sg76
(lp4081
S'title'
p4082
asbag69
(g90
g71
NtRp4083
(dp4084
g74
(dp4085
g101
g102
ssg83
g4074
sg76
(lp4086
S':'
asbag69
(g90
g71
NtRp4087
(dp4088
g74
(dp4089
sg83
g4074
sg76
(lp4090
g69
(g70
g71
NtRp4091
(dp4092
g74
(dp4093
g82
I5
ssg83
g4087
sg76
(lp4094
S'Ecommerce do Bruno | CursodePython.com.br'
p4095
asbasbasbag69
(g85
g71
NtRp4096
(dp4097
g74
(dp4098
sg83
g3324
sg76
(lp4099
g69
(g90
g71
NtRp4100
(dp4101
g74
(dp4102
g94
g95
ssg83
g4096
sg76
(lp4103
g2146
asbag69
(g90
g71
NtRp4104
(dp4105
g74
(dp4106
g101
g102
ssg83
g4096
sg76
(lp4107
S':'
asbag69
(g90
g71
NtRp4108
(dp4109
g74
(dp4110
sg83
g4096
sg76
(lp4111
g69
(g70
g71
NtRp4112
(dp4113
g74
(dp4114
g82
I5
ssg83
g4108
sg76
(lp4115
g2159
asbasbasbag69
(g85
g71
NtRp4116
(dp4117
g74
(dp4118
sg83
g3324
sg76
(lp4119
g69
(g90
g71
NtRp4120
(dp4121
g74
(dp4122
g94
g95
ssg83
g4116
sg76
(lp4123
S'view'
p4124
asbag69
(g90
g71
NtRp4125
(dp4126
g74
(dp4127
g101
g102
ssg83
g4116
sg76
(lp4128
S':'
asbag69
(g90
g71
NtRp4129
(dp4130
g74
(dp4131
sg83
g4116
sg76
(lp4132
g69
(g70
g71
NtRp4133
(dp4134
g74
(dp4135
g82
I5
ssg83
g4129
sg76
(lp4136
S'product/edit.html'
p4137
asbasbasbasbasbsS'locals'
p4138
(dp4139
g4
S"r'c:\\Users\\rochacbruno\\jul12\\cursojulho12\\web2py\\applications\\ecommerce\\controllers/product.py'"
p4140
sg6
S"'# coding: utf-8\\n\\ndef show():\\n    # pegar produto...        ):\\nresponse._vars=response._caller(edit)\\n'"
p4141
sssS'traceback'
p4142
S'Traceback (most recent call last):\n  File "c:\\Users\\rochacbruno\\jul12\\cursojulho12\\web2py\\gluon\\restricted.py", line 204, in restricted\n    ccode = compile2(code,layer)\n  File "c:\\Users\\rochacbruno\\jul12\\cursojulho12\\web2py\\gluon\\restricted.py", line 189, in compile2\n    return compile(code.rstrip().replace(\'\\r\\n\',\'\\n\')+\'\\n\', layer, \'exec\')\n  File "c:\\Users\\rochacbruno\\jul12\\cursojulho12\\web2py\\applications\\ecommerce\\controllers/product.py", line 66\n    return pid\n         ^\nSyntaxError: invalid syntax\n'
p4143
s.