(dp1
S'output'
p2
S"<type 'exceptions.SyntaxError'> not enough information to build the url (ecommerce home )"
p3
sS'layer'
p4
S'c:\\Users\\rochacbruno\\jul12\\cursojulho12\\web2py\\applications\\ecommerce\\views\\home/index.html'
p5
sS'code'
p6
S'response.write(\'<!DOCTYPE html>\\r\\n<html lang="en">\\r\\n  <head>\\r\\n    <meta charset="utf-8">\\r\\n    <title>\', escape=False)\nresponse.write(response.title)\nresponse.write(\'</title>\\r\\n    <meta name="viewport" content="width=device-width, initial-scale=1.0">\\r\\n    <meta name="description" content="\', escape=False)\nresponse.write(response.description)\nresponse.write(\'">\\r\\n    <!-- Le styles -->\\r\\n    <link href="\', escape=False)\nresponse.write(URL(\'static\', \'css\', args=\'bootstrap.css\'))\nresponse.write(\'" rel="stylesheet">\\r\\n\\r\\n    <!-- web2py css -->\\r\\n    <link href="\', escape=False)\nresponse.write(URL(\'static\', \'css\', args=\'calendar.css\'))\nresponse.write(\'" rel="stylesheet">\\r\\n    <link href="\', escape=False)\nresponse.write(URL(\'static\', \'css\', args=\'web2py.css\'))\nresponse.write(\'" rel="stylesheet">\\r\\n    \\r\\n    <!-- navbar -->\\r\\n    <style type="text/css">\\r\\n      body {\\r\\n        padding-top: 60px;\\r\\n        padding-bottom: 40px;\\r\\n      }\\r\\n    </style>\\r\\n    \\r\\n    <link href="\', escape=False)\nresponse.write(URL(\'static\', \'css\', args=\'bootstrap-responsive.css\'))\nresponse.write(\'" rel="stylesheet">\\r\\n    \\r\\n    <!-- Le HTML5 shim, for IE6-8 support of HTML5 elements -->\\r\\n    <!--[if lt IE 9]>\\r\\n      <script src="http://html5shim.googlecode.com/svn/trunk/html5.js"></script>\\r\\n    <![endif]-->\\r\\n    \\r\\n    <!-- web2py JS -->\\r\\n    \\r\\n    <script type="text/javascript"><!--\\r\\n    // These variables are used by the web2py_ajax_init function in web2py_ajax.js (which is loaded below).\\r\\n    var w2p_ajax_confirm_message = "\', escape=False)\nresponse.write(T(\'Are you sure you want to delete this object?\'))\nresponse.write(\'";\\r\\n    var w2p_ajax_date_format = "\', escape=False)\nresponse.write(T(\'%Y-%m-%d\'))\nresponse.write(\'";\\r\\n    var w2p_ajax_datetime_format = "\', escape=False)\nresponse.write(T(\'%Y-%m-%d %H:%M:%S\'))\nresponse.write(\'";\\r\\n    //--></script>\\r\\n\\r\\n    <script src="\', escape=False)\nresponse.write(URL(\'static\', \'js\', args=\'jquery.js\'))\nresponse.write(\'"></script>\\r\\n    <script src="\', escape=False)\nresponse.write(URL(\'static\', \'js\', args=\'calendar.js\'))\nresponse.write(\'"></script>\\r\\n    <script src="\', escape=False)\nresponse.write(URL(\'static\', \'js\', args=\'web2py.js\'))\nresponse.write(\'"></script>\\r\\n    \\r\\n    <!-- bootstrap JS -->\\r\\n    <script src="\', escape=False)\nresponse.write(URL(\'static\', \'js\', args=\'bootstrap.js\'))\nresponse.write(\'"></script>\\r\\n    \\r\\n    \', escape=False)\nresponse.write(\'\\r\\n\\t<style type="text/css">\\r\\n\\t.cat {\\r\\n\\t    background: blue;\\r\\n\\t    color:white;\\r\\n\\t}\\r\\n\\t</style>\\r\\n\\r\\n    \', escape=False)\ndef get_thumbnails(products, box=\'span3\', size=(200,200)):\n    response.write(\'\\r\\n\\t<ul class="thumbnails">\\r\\n\\t\', escape=False)\n    for product in products:\n        response.write(\'\\t\\r\\n\\t\\t<li class="\', escape=False)\n        response.write(box)\n        response.write(\'">\\r\\n\\t\\t<div class="thumbnail">\\r\\n\\t\\t  <img width="\', escape=False)\n        response.write(size[0])\n        response.write(\'" height="\', escape=False)\n        response.write(size[1])\n        response.write(\'" src="http://placehold.it/260x180" alt="">\\r\\n\\t\\t  <h4>\', escape=False)\n        response.write(product.name)\n        response.write(\'</h4>\\r\\n\\t\\t  <p><span>\', escape=False)\n        response.write(product.unit_price)\n        response.write(\'</span></p>\\r\\n\\t\\t</div>\\r\\n\\t\\t</li>\\r\\n\\t\', escape=False)\n        pass\n    response.write(\'\\r\\n\\t</ul>\\r\\n\', escape=False)\n    return\nresponse.write(\'\\t\\r\\n\', escape=False)\nresponse.write(\'    \\r\\n  </head>\\r\\n  <body>\\r\\n    \', escape=False)\nresponse.write(\'\\r\\n    <div class="navbar navbar-fixed-top">\\r\\n      <div class="navbar-inner">\\r\\n        <div class="container">\\r\\n          <a class="btn btn-navbar" data-toggle="collapse" data-target=".nav-collapse">\\r\\n            <span class="icon-bar"></span>\\r\\n            <span class="icon-bar"></span>\\r\\n            <span class="icon-bar"></span>\\r\\n          </a>\\r\\n          <a class="brand" href="/">Ecommerce</a>\\r\\n          <div class="nav-collapse">\\r\\n            <ul class="nav">\\r\\n              <li class="active"><a href="#">Home</a></li>\\r\\n              <li><a href="#about">About</a></li>\\r\\n              <li><a href="#contact">Contact</a></li>\\r\\n            </ul>\\r\\n          </div><!--/.nav-collapse -->\\r\\n        </div>\\r\\n      </div>\\r\\n    </div>\\r\\n    \', escape=False)\nresponse.write(\'\\r\\n\\r\\n    <div class="container">\\r\\n      \', escape=False)\nresponse.write(\'\\r\\n    <div class="hero-unit">\\r\\n    \\t<h3> FEATURED </h3>\\r\\n    \\t\', escape=False)\nget_thumbnails(featured, size=(260, 180), box="span3")\nresponse.write(\'\\r\\n    </div>\\t\\r\\n\', escape=False)\nresponse.write(\'\\r\\n\\r\\n      \', escape=False)\nresponse.write(\'\\r\\n    <h1> GALLERY </h1>\\r\\n    \', escape=False)\nget_thumbnails(products, size=(260, 180), box="span3")\nresponse.write(\'\\r\\n\', escape=False)\nresponse.write(\'\\r\\n\\r\\n      \', escape=False)\n#include \'../static/fail.html\'\nresponse.write(\'\\r\\n      <hr>\\r\\n      \\r\\n      \', escape=False)\nresponse.write(\'\\r\\n\\r\\n\', escape=False)\nresponse.write(UL(*[LI(A(menu["title"], _href=URL(menu["url"]))) for menu in meus_menus]))\nresponse.write(\'\\r\\n\\r\\n\', escape=False)\nresponse.write(\'\\r\\n    </div> <!-- /container -->\\r\\n  </body>\\r\\n</html>\\r\\n\', escape=False)'
p7
sS'snapshot'
p8
(dp9
S'exception'
p10
(dp11
S'__getslice__'
p12
S"<method-wrapper '__getslice__' of exceptions.SyntaxError object>"
p13
sS'text'
p14
S'None'
p15
sS'__str__'
p16
S"<method-wrapper '__str__' of exceptions.SyntaxError object>"
p17
sS'__reduce__'
p18
S'<built-in method __reduce__ of exceptions.SyntaxError object>'
p19
sS'__dict__'
p20
S'{}'
p21
sS'__sizeof__'
p22
S'<built-in method __sizeof__ of exceptions.SyntaxError object>'
p23
sS'__init__'
p24
S"<method-wrapper '__init__' of exceptions.SyntaxError object>"
p25
sS'__setattr__'
p26
S"<method-wrapper '__setattr__' of exceptions.SyntaxError object>"
p27
sS'__reduce_ex__'
p28
S'<built-in method __reduce_ex__ of exceptions.SyntaxError object>'
p29
sS'__new__'
p30
S'<built-in method __new__ of type object>'
p31
sS'__format__'
p32
S'<built-in method __format__ of exceptions.SyntaxError object>'
p33
sS'__class__'
p34
S"<type 'exceptions.SyntaxError'>"
p35
sS'filename'
p36
S'None'
p37
sS'lineno'
p38
S'None'
p39
sS'msg'
p40
S"'not enough information to build the url (ecommerce home )'"
p41
sS'__doc__'
p42
S"'Invalid syntax.'"
p43
sS'__getitem__'
p44
S"<method-wrapper '__getitem__' of exceptions.SyntaxError object>"
p45
sS'__setstate__'
p46
S'<built-in method __setstate__ of exceptions.SyntaxError object>'
p47
sS'__getattribute__'
p48
S"<method-wrapper '__getattribute__' of exceptions.SyntaxError object>"
p49
sS'print_file_and_line'
p50
S'None'
p51
sS'args'
p52
S"('not enough information to build the url (ecommerce home )',)"
p53
sS'__subclasshook__'
p54
S'<built-in method __subclasshook__ of type object>'
p55
sS'offset'
p56
S'None'
p57
sS'__unicode__'
p58
S'<built-in method __unicode__ of exceptions.SyntaxError object>'
p59
sS'__delattr__'
p60
S"<method-wrapper '__delattr__' of exceptions.SyntaxError object>"
p61
sS'__repr__'
p62
S"<method-wrapper '__repr__' of exceptions.SyntaxError object>"
p63
sS'__hash__'
p64
S"<method-wrapper '__hash__' of exceptions.SyntaxError object>"
p65
ssS'evalue'
p66
S'not enough information to build the url (ecommerce home )'
p67
sS'request'
p68
ccopy_reg
_reconstructor
p69
(cgluon.html
BEAUTIFY
p70
c__builtin__
object
p71
NtRp72
(dp73
S'attributes'
p74
(dp75
sS'components'
p76
(lp77
g69
(cgluon.html
TABLE
p78
g71
NtRp79
(dp80
g74
(dp81
S'level'
p82
I5
ssS'parent'
p83
Nsg76
(lp84
g69
(cgluon.html
TR
p85
g71
NtRp86
(dp87
g74
(dp88
sg83
g79
sg76
(lp89
g69
(cgluon.html
TD
p90
g71
NtRp91
(dp92
g74
(dp93
S'_style'
p94
S'font-weight:bold;vertical-align:top'
p95
ssg83
g86
sg76
(lp96
S'ajax'
p97
asbag69
(g90
g71
NtRp98
(dp99
g74
(dp100
S'_valign'
p101
S'top'
p102
ssg83
g86
sg76
(lp103
S':'
asbag69
(g90
g71
NtRp104
(dp105
g74
(dp106
sg83
g86
sg76
(lp107
g69
(g70
g71
NtRp108
(dp109
g74
(dp110
g82
I5
ssg83
g104
sg76
(lp111
S'False'
p112
asbasbasbag69
(g85
g71
NtRp113
(dp114
g74
(dp115
sg83
g79
sg76
(lp116
g69
(g90
g71
NtRp117
(dp118
g74
(dp119
g94
g95
ssg83
g113
sg76
(lp120
S'application'
p121
asbag69
(g90
g71
NtRp122
(dp123
g74
(dp124
g101
g102
ssg83
g113
sg76
(lp125
S':'
asbag69
(g90
g71
NtRp126
(dp127
g74
(dp128
sg83
g113
sg76
(lp129
g69
(g70
g71
NtRp130
(dp131
g74
(dp132
g82
I5
ssg83
g126
sg76
(lp133
S'ecommerce'
p134
asbasbasbag69
(g85
g71
NtRp135
(dp136
g74
(dp137
sg83
g79
sg76
(lp138
g69
(g90
g71
NtRp139
(dp140
g74
(dp141
g94
g95
ssg83
g135
sg76
(lp142
g52
asbag69
(g90
g71
NtRp143
(dp144
g74
(dp145
g101
g102
ssg83
g135
sg76
(lp146
S':'
asbag69
(g90
g71
NtRp147
(dp148
g74
(dp149
sg83
g135
sg76
(lp150
g69
(g70
g71
NtRp151
(dp152
g74
(dp153
g82
I5
ssg83
g147
sg76
(lp154
g69
(g78
g71
NtRp155
(dp156
g74
(dp157
g82
I4
ssg83
Nsg76
(lp158
sbasbasbasbag69
(g85
g71
NtRp159
(dp160
g74
(dp161
sg83
g79
sg76
(lp162
g69
(g90
g71
NtRp163
(dp164
g74
(dp165
g94
g95
ssg83
g159
sg76
(lp166
S'body'
p167
asbag69
(g90
g71
NtRp168
(dp169
g74
(dp170
g101
g102
ssg83
g159
sg76
(lp171
S':'
asbag69
(g90
g71
NtRp172
(dp173
g74
(dp174
sg83
g159
sg76
(lp175
g69
(g70
g71
NtRp176
(dp177
g74
(dp178
g82
I5
ssg83
g172
sg76
(lp179
S'<cStringIO.StringO object at 0x02DD4DE0>'
p180
asbasbasbag69
(g85
g71
NtRp181
(dp182
g74
(dp183
sg83
g79
sg76
(lp184
g69
(g90
g71
NtRp185
(dp186
g74
(dp187
g94
g95
ssg83
g181
sg76
(lp188
S'client'
p189
asbag69
(g90
g71
NtRp190
(dp191
g74
(dp192
g101
g102
ssg83
g181
sg76
(lp193
S':'
asbag69
(g90
g71
NtRp194
(dp195
g74
(dp196
sg83
g181
sg76
(lp197
g69
(g70
g71
NtRp198
(dp199
g74
(dp200
g82
I5
ssg83
g194
sg76
(lp201
S'127.0.0.1'
p202
asbasbasbag69
(g85
g71
NtRp203
(dp204
g74
(dp205
sg83
g79
sg76
(lp206
g69
(g90
g71
NtRp207
(dp208
g74
(dp209
g94
g95
ssg83
g203
sg76
(lp210
S'controller'
p211
asbag69
(g90
g71
NtRp212
(dp213
g74
(dp214
g101
g102
ssg83
g203
sg76
(lp215
S':'
asbag69
(g90
g71
NtRp216
(dp217
g74
(dp218
sg83
g203
sg76
(lp219
g69
(g70
g71
NtRp220
(dp221
g74
(dp222
g82
I5
ssg83
g216
sg76
(lp223
S'home'
p224
asbasbasbag69
(g85
g71
NtRp225
(dp226
g74
(dp227
sg83
g79
sg76
(lp228
g69
(g90
g71
NtRp229
(dp230
g74
(dp231
g94
g95
ssg83
g225
sg76
(lp232
S'cookies'
p233
asbag69
(g90
g71
NtRp234
(dp235
g74
(dp236
g101
g102
ssg83
g225
sg76
(lp237
S':'
asbag69
(g90
g71
NtRp238
(dp239
g74
(dp240
sg83
g225
sg76
(lp241
g69
(g70
g71
NtRp242
(dp243
g74
(dp244
g82
I5
ssg83
g238
sg76
(lp245
g69
(g78
g71
NtRp246
(dp247
g74
(dp248
g82
I4
ssg83
Nsg76
(lp249
g69
(g85
g71
NtRp250
(dp251
g74
(dp252
sg83
g246
sg76
(lp253
g69
(g90
g71
NtRp254
(dp255
g74
(dp256
g94
g95
ssg83
g250
sg76
(lp257
S'session_id_admin'
p258
asbag69
(g90
g71
NtRp259
(dp260
g74
(dp261
g101
g102
ssg83
g250
sg76
(lp262
S':'
asbag69
(g90
g71
NtRp263
(dp264
g74
(dp265
sg83
g250
sg76
(lp266
g69
(g70
g71
NtRp267
(dp268
g74
(dp269
g82
I4
ssg83
g263
sg76
(lp270
S'127.0.0.1-4873ed00-b716-4b13-a1bb-7fdaa43562f3'
p271
ag69
(g78
g71
NtRp272
(dp273
g74
(dp274
g82
I3
ssg83
Nsg76
(lp275
g69
(g85
g71
NtRp276
(dp277
g74
(dp278
sg83
g272
sg76
(lp279
g69
(g90
g71
NtRp280
(dp281
g74
(dp282
g94
g95
ssg83
g276
sg76
(lp283
S'comment'
p284
asbag69
(g90
g71
NtRp285
(dp286
g74
(dp287
g101
g102
ssg83
g276
sg76
(lp288
S':'
asbag69
(g90
g71
NtRp289
(dp290
g74
(dp291
sg83
g276
sg76
(lp292
g69
(g70
g71
NtRp293
(dp294
g74
(dp295
g82
I3
ssg83
g289
sg76
(lp296
S''
asbasbasbag69
(g85
g71
NtRp297
(dp298
g74
(dp299
sg83
g272
sg76
(lp300
g69
(g90
g71
NtRp301
(dp302
g74
(dp303
g94
g95
ssg83
g297
sg76
(lp304
S'domain'
p305
asbag69
(g90
g71
NtRp306
(dp307
g74
(dp308
g101
g102
ssg83
g297
sg76
(lp309
S':'
asbag69
(g90
g71
NtRp310
(dp311
g74
(dp312
sg83
g297
sg76
(lp313
g69
(g70
g71
NtRp314
(dp315
g74
(dp316
g82
I3
ssg83
g310
sg76
(lp317
S''
asbasbasbag69
(g85
g71
NtRp318
(dp319
g74
(dp320
sg83
g272
sg76
(lp321
g69
(g90
g71
NtRp322
(dp323
g74
(dp324
g94
g95
ssg83
g318
sg76
(lp325
S'expires'
p326
asbag69
(g90
g71
NtRp327
(dp328
g74
(dp329
g101
g102
ssg83
g318
sg76
(lp330
S':'
asbag69
(g90
g71
NtRp331
(dp332
g74
(dp333
sg83
g318
sg76
(lp334
g69
(g70
g71
NtRp335
(dp336
g74
(dp337
g82
I3
ssg83
g331
sg76
(lp338
S''
asbasbasbag69
(g85
g71
NtRp339
(dp340
g74
(dp341
sg83
g272
sg76
(lp342
g69
(g90
g71
NtRp343
(dp344
g74
(dp345
g94
g95
ssg83
g339
sg76
(lp346
S'httponly'
p347
asbag69
(g90
g71
NtRp348
(dp349
g74
(dp350
g101
g102
ssg83
g339
sg76
(lp351
S':'
asbag69
(g90
g71
NtRp352
(dp353
g74
(dp354
sg83
g339
sg76
(lp355
g69
(g70
g71
NtRp356
(dp357
g74
(dp358
g82
I3
ssg83
g352
sg76
(lp359
S''
asbasbasbag69
(g85
g71
NtRp360
(dp361
g74
(dp362
sg83
g272
sg76
(lp363
g69
(g90
g71
NtRp364
(dp365
g74
(dp366
g94
g95
ssg83
g360
sg76
(lp367
S'max-age'
p368
asbag69
(g90
g71
NtRp369
(dp370
g74
(dp371
g101
g102
ssg83
g360
sg76
(lp372
S':'
asbag69
(g90
g71
NtRp373
(dp374
g74
(dp375
sg83
g360
sg76
(lp376
g69
(g70
g71
NtRp377
(dp378
g74
(dp379
g82
I3
ssg83
g373
sg76
(lp380
S''
asbasbasbag69
(g85
g71
NtRp381
(dp382
g74
(dp383
sg83
g272
sg76
(lp384
g69
(g90
g71
NtRp385
(dp386
g74
(dp387
g94
g95
ssg83
g381
sg76
(lp388
S'path'
p389
asbag69
(g90
g71
NtRp390
(dp391
g74
(dp392
g101
g102
ssg83
g381
sg76
(lp393
S':'
asbag69
(g90
g71
NtRp394
(dp395
g74
(dp396
sg83
g381
sg76
(lp397
g69
(g70
g71
NtRp398
(dp399
g74
(dp400
g82
I3
ssg83
g394
sg76
(lp401
S''
asbasbasbag69
(g85
g71
NtRp402
(dp403
g74
(dp404
sg83
g272
sg76
(lp405
g69
(g90
g71
NtRp406
(dp407
g74
(dp408
g94
g95
ssg83
g402
sg76
(lp409
S'secure'
p410
asbag69
(g90
g71
NtRp411
(dp412
g74
(dp413
g101
g102
ssg83
g402
sg76
(lp414
S':'
asbag69
(g90
g71
NtRp415
(dp416
g74
(dp417
sg83
g402
sg76
(lp418
g69
(g70
g71
NtRp419
(dp420
g74
(dp421
g82
I3
ssg83
g415
sg76
(lp422
S''
asbasbasbag69
(g85
g71
NtRp423
(dp424
g74
(dp425
sg83
g272
sg76
(lp426
g69
(g90
g71
NtRp427
(dp428
g74
(dp429
g94
g95
ssg83
g423
sg76
(lp430
S'version'
p431
asbag69
(g90
g71
NtRp432
(dp433
g74
(dp434
g101
g102
ssg83
g423
sg76
(lp435
S':'
asbag69
(g90
g71
NtRp436
(dp437
g74
(dp438
sg83
g423
sg76
(lp439
g69
(g70
g71
NtRp440
(dp441
g74
(dp442
g82
I3
ssg83
g436
sg76
(lp443
S''
asbasbasbasbasbasbasbag69
(g85
g71
NtRp444
(dp445
g74
(dp446
sg83
g246
sg76
(lp447
g69
(g90
g71
NtRp448
(dp449
g74
(dp450
g94
g95
ssg83
g444
sg76
(lp451
S'session_id_ecommerce'
p452
asbag69
(g90
g71
NtRp453
(dp454
g74
(dp455
g101
g102
ssg83
g444
sg76
(lp456
S':'
asbag69
(g90
g71
NtRp457
(dp458
g74
(dp459
sg83
g444
sg76
(lp460
g69
(g70
g71
NtRp461
(dp462
g74
(dp463
g82
I4
ssg83
g457
sg76
(lp464
S'127.0.0.1-0fe94d39-4aae-427f-bfbc-597a65cd32c1'
p465
ag69
(g78
g71
NtRp466
(dp467
g74
(dp468
g82
I3
ssg83
Nsg76
(lp469
g69
(g85
g71
NtRp470
(dp471
g74
(dp472
sg83
g466
sg76
(lp473
g69
(g90
g71
NtRp474
(dp475
g74
(dp476
g94
g95
ssg83
g470
sg76
(lp477
g284
asbag69
(g90
g71
NtRp478
(dp479
g74
(dp480
g101
g102
ssg83
g470
sg76
(lp481
S':'
asbag69
(g90
g71
NtRp482
(dp483
g74
(dp484
sg83
g470
sg76
(lp485
g69
(g70
g71
NtRp486
(dp487
g74
(dp488
g82
I3
ssg83
g482
sg76
(lp489
S''
asbasbasbag69
(g85
g71
NtRp490
(dp491
g74
(dp492
sg83
g466
sg76
(lp493
g69
(g90
g71
NtRp494
(dp495
g74
(dp496
g94
g95
ssg83
g490
sg76
(lp497
g305
asbag69
(g90
g71
NtRp498
(dp499
g74
(dp500
g101
g102
ssg83
g490
sg76
(lp501
S':'
asbag69
(g90
g71
NtRp502
(dp503
g74
(dp504
sg83
g490
sg76
(lp505
g69
(g70
g71
NtRp506
(dp507
g74
(dp508
g82
I3
ssg83
g502
sg76
(lp509
S''
asbasbasbag69
(g85
g71
NtRp510
(dp511
g74
(dp512
sg83
g466
sg76
(lp513
g69
(g90
g71
NtRp514
(dp515
g74
(dp516
g94
g95
ssg83
g510
sg76
(lp517
g326
asbag69
(g90
g71
NtRp518
(dp519
g74
(dp520
g101
g102
ssg83
g510
sg76
(lp521
S':'
asbag69
(g90
g71
NtRp522
(dp523
g74
(dp524
sg83
g510
sg76
(lp525
g69
(g70
g71
NtRp526
(dp527
g74
(dp528
g82
I3
ssg83
g522
sg76
(lp529
S''
asbasbasbag69
(g85
g71
NtRp530
(dp531
g74
(dp532
sg83
g466
sg76
(lp533
g69
(g90
g71
NtRp534
(dp535
g74
(dp536
g94
g95
ssg83
g530
sg76
(lp537
g347
asbag69
(g90
g71
NtRp538
(dp539
g74
(dp540
g101
g102
ssg83
g530
sg76
(lp541
S':'
asbag69
(g90
g71
NtRp542
(dp543
g74
(dp544
sg83
g530
sg76
(lp545
g69
(g70
g71
NtRp546
(dp547
g74
(dp548
g82
I3
ssg83
g542
sg76
(lp549
S''
asbasbasbag69
(g85
g71
NtRp550
(dp551
g74
(dp552
sg83
g466
sg76
(lp553
g69
(g90
g71
NtRp554
(dp555
g74
(dp556
g94
g95
ssg83
g550
sg76
(lp557
g368
asbag69
(g90
g71
NtRp558
(dp559
g74
(dp560
g101
g102
ssg83
g550
sg76
(lp561
S':'
asbag69
(g90
g71
NtRp562
(dp563
g74
(dp564
sg83
g550
sg76
(lp565
g69
(g70
g71
NtRp566
(dp567
g74
(dp568
g82
I3
ssg83
g562
sg76
(lp569
S''
asbasbasbag69
(g85
g71
NtRp570
(dp571
g74
(dp572
sg83
g466
sg76
(lp573
g69
(g90
g71
NtRp574
(dp575
g74
(dp576
g94
g95
ssg83
g570
sg76
(lp577
g389
asbag69
(g90
g71
NtRp578
(dp579
g74
(dp580
g101
g102
ssg83
g570
sg76
(lp581
S':'
asbag69
(g90
g71
NtRp582
(dp583
g74
(dp584
sg83
g570
sg76
(lp585
g69
(g70
g71
NtRp586
(dp587
g74
(dp588
g82
I3
ssg83
g582
sg76
(lp589
S''
asbasbasbag69
(g85
g71
NtRp590
(dp591
g74
(dp592
sg83
g466
sg76
(lp593
g69
(g90
g71
NtRp594
(dp595
g74
(dp596
g94
g95
ssg83
g590
sg76
(lp597
g410
asbag69
(g90
g71
NtRp598
(dp599
g74
(dp600
g101
g102
ssg83
g590
sg76
(lp601
S':'
asbag69
(g90
g71
NtRp602
(dp603
g74
(dp604
sg83
g590
sg76
(lp605
g69
(g70
g71
NtRp606
(dp607
g74
(dp608
g82
I3
ssg83
g602
sg76
(lp609
S''
asbasbasbag69
(g85
g71
NtRp610
(dp611
g74
(dp612
sg83
g466
sg76
(lp613
g69
(g90
g71
NtRp614
(dp615
g74
(dp616
g94
g95
ssg83
g610
sg76
(lp617
g431
asbag69
(g90
g71
NtRp618
(dp619
g74
(dp620
g101
g102
ssg83
g610
sg76
(lp621
S':'
asbag69
(g90
g71
NtRp622
(dp623
g74
(dp624
sg83
g610
sg76
(lp625
g69
(g70
g71
NtRp626
(dp627
g74
(dp628
g82
I3
ssg83
g622
sg76
(lp629
S''
asbasbasbasbasbasbasbag69
(g85
g71
NtRp630
(dp631
g74
(dp632
sg83
g246
sg76
(lp633
g69
(g90
g71
NtRp634
(dp635
g74
(dp636
g94
g95
ssg83
g630
sg76
(lp637
S'session_id_init'
p638
asbag69
(g90
g71
NtRp639
(dp640
g74
(dp641
g101
g102
ssg83
g630
sg76
(lp642
S':'
asbag69
(g90
g71
NtRp643
(dp644
g74
(dp645
sg83
g630
sg76
(lp646
g69
(g70
g71
NtRp647
(dp648
g74
(dp649
g82
I4
ssg83
g643
sg76
(lp650
S'127.0.0.1-5d866f8a-e112-44ab-84a9-267caae08c70'
p651
ag69
(g78
g71
NtRp652
(dp653
g74
(dp654
g82
I3
ssg83
Nsg76
(lp655
g69
(g85
g71
NtRp656
(dp657
g74
(dp658
sg83
g652
sg76
(lp659
g69
(g90
g71
NtRp660
(dp661
g74
(dp662
g94
g95
ssg83
g656
sg76
(lp663
g284
asbag69
(g90
g71
NtRp664
(dp665
g74
(dp666
g101
g102
ssg83
g656
sg76
(lp667
S':'
asbag69
(g90
g71
NtRp668
(dp669
g74
(dp670
sg83
g656
sg76
(lp671
g69
(g70
g71
NtRp672
(dp673
g74
(dp674
g82
I3
ssg83
g668
sg76
(lp675
S''
asbasbasbag69
(g85
g71
NtRp676
(dp677
g74
(dp678
sg83
g652
sg76
(lp679
g69
(g90
g71
NtRp680
(dp681
g74
(dp682
g94
g95
ssg83
g676
sg76
(lp683
g305
asbag69
(g90
g71
NtRp684
(dp685
g74
(dp686
g101
g102
ssg83
g676
sg76
(lp687
S':'
asbag69
(g90
g71
NtRp688
(dp689
g74
(dp690
sg83
g676
sg76
(lp691
g69
(g70
g71
NtRp692
(dp693
g74
(dp694
g82
I3
ssg83
g688
sg76
(lp695
S''
asbasbasbag69
(g85
g71
NtRp696
(dp697
g74
(dp698
sg83
g652
sg76
(lp699
g69
(g90
g71
NtRp700
(dp701
g74
(dp702
g94
g95
ssg83
g696
sg76
(lp703
g326
asbag69
(g90
g71
NtRp704
(dp705
g74
(dp706
g101
g102
ssg83
g696
sg76
(lp707
S':'
asbag69
(g90
g71
NtRp708
(dp709
g74
(dp710
sg83
g696
sg76
(lp711
g69
(g70
g71
NtRp712
(dp713
g74
(dp714
g82
I3
ssg83
g708
sg76
(lp715
S''
asbasbasbag69
(g85
g71
NtRp716
(dp717
g74
(dp718
sg83
g652
sg76
(lp719
g69
(g90
g71
NtRp720
(dp721
g74
(dp722
g94
g95
ssg83
g716
sg76
(lp723
g347
asbag69
(g90
g71
NtRp724
(dp725
g74
(dp726
g101
g102
ssg83
g716
sg76
(lp727
S':'
asbag69
(g90
g71
NtRp728
(dp729
g74
(dp730
sg83
g716
sg76
(lp731
g69
(g70
g71
NtRp732
(dp733
g74
(dp734
g82
I3
ssg83
g728
sg76
(lp735
S''
asbasbasbag69
(g85
g71
NtRp736
(dp737
g74
(dp738
sg83
g652
sg76
(lp739
g69
(g90
g71
NtRp740
(dp741
g74
(dp742
g94
g95
ssg83
g736
sg76
(lp743
g368
asbag69
(g90
g71
NtRp744
(dp745
g74
(dp746
g101
g102
ssg83
g736
sg76
(lp747
S':'
asbag69
(g90
g71
NtRp748
(dp749
g74
(dp750
sg83
g736
sg76
(lp751
g69
(g70
g71
NtRp752
(dp753
g74
(dp754
g82
I3
ssg83
g748
sg76
(lp755
S''
asbasbasbag69
(g85
g71
NtRp756
(dp757
g74
(dp758
sg83
g652
sg76
(lp759
g69
(g90
g71
NtRp760
(dp761
g74
(dp762
g94
g95
ssg83
g756
sg76
(lp763
g389
asbag69
(g90
g71
NtRp764
(dp765
g74
(dp766
g101
g102
ssg83
g756
sg76
(lp767
S':'
asbag69
(g90
g71
NtRp768
(dp769
g74
(dp770
sg83
g756
sg76
(lp771
g69
(g70
g71
NtRp772
(dp773
g74
(dp774
g82
I3
ssg83
g768
sg76
(lp775
S''
asbasbasbag69
(g85
g71
NtRp776
(dp777
g74
(dp778
sg83
g652
sg76
(lp779
g69
(g90
g71
NtRp780
(dp781
g74
(dp782
g94
g95
ssg83
g776
sg76
(lp783
g410
asbag69
(g90
g71
NtRp784
(dp785
g74
(dp786
g101
g102
ssg83
g776
sg76
(lp787
S':'
asbag69
(g90
g71
NtRp788
(dp789
g74
(dp790
sg83
g776
sg76
(lp791
g69
(g70
g71
NtRp792
(dp793
g74
(dp794
g82
I3
ssg83
g788
sg76
(lp795
S''
asbasbasbag69
(g85
g71
NtRp796
(dp797
g74
(dp798
sg83
g652
sg76
(lp799
g69
(g90
g71
NtRp800
(dp801
g74
(dp802
g94
g95
ssg83
g796
sg76
(lp803
g431
asbag69
(g90
g71
NtRp804
(dp805
g74
(dp806
g101
g102
ssg83
g796
sg76
(lp807
S':'
asbag69
(g90
g71
NtRp808
(dp809
g74
(dp810
sg83
g796
sg76
(lp811
g69
(g70
g71
NtRp812
(dp813
g74
(dp814
g82
I3
ssg83
g808
sg76
(lp815
S''
asbasbasbasbasbasbasbag69
(g85
g71
NtRp816
(dp817
g74
(dp818
sg83
g246
sg76
(lp819
g69
(g90
g71
NtRp820
(dp821
g74
(dp822
g94
g95
ssg83
g816
sg76
(lp823
S'session_id_welcome'
p824
asbag69
(g90
g71
NtRp825
(dp826
g74
(dp827
g101
g102
ssg83
g816
sg76
(lp828
S':'
asbag69
(g90
g71
NtRp829
(dp830
g74
(dp831
sg83
g816
sg76
(lp832
g69
(g70
g71
NtRp833
(dp834
g74
(dp835
g82
I4
ssg83
g829
sg76
(lp836
S'127.0.0.1-413fbb53-8fc7-4016-8695-7ff91d564649'
p837
ag69
(g78
g71
NtRp838
(dp839
g74
(dp840
g82
I3
ssg83
Nsg76
(lp841
g69
(g85
g71
NtRp842
(dp843
g74
(dp844
sg83
g838
sg76
(lp845
g69
(g90
g71
NtRp846
(dp847
g74
(dp848
g94
g95
ssg83
g842
sg76
(lp849
g284
asbag69
(g90
g71
NtRp850
(dp851
g74
(dp852
g101
g102
ssg83
g842
sg76
(lp853
S':'
asbag69
(g90
g71
NtRp854
(dp855
g74
(dp856
sg83
g842
sg76
(lp857
g69
(g70
g71
NtRp858
(dp859
g74
(dp860
g82
I3
ssg83
g854
sg76
(lp861
S''
asbasbasbag69
(g85
g71
NtRp862
(dp863
g74
(dp864
sg83
g838
sg76
(lp865
g69
(g90
g71
NtRp866
(dp867
g74
(dp868
g94
g95
ssg83
g862
sg76
(lp869
g305
asbag69
(g90
g71
NtRp870
(dp871
g74
(dp872
g101
g102
ssg83
g862
sg76
(lp873
S':'
asbag69
(g90
g71
NtRp874
(dp875
g74
(dp876
sg83
g862
sg76
(lp877
g69
(g70
g71
NtRp878
(dp879
g74
(dp880
g82
I3
ssg83
g874
sg76
(lp881
S''
asbasbasbag69
(g85
g71
NtRp882
(dp883
g74
(dp884
sg83
g838
sg76
(lp885
g69
(g90
g71
NtRp886
(dp887
g74
(dp888
g94
g95
ssg83
g882
sg76
(lp889
g326
asbag69
(g90
g71
NtRp890
(dp891
g74
(dp892
g101
g102
ssg83
g882
sg76
(lp893
S':'
asbag69
(g90
g71
NtRp894
(dp895
g74
(dp896
sg83
g882
sg76
(lp897
g69
(g70
g71
NtRp898
(dp899
g74
(dp900
g82
I3
ssg83
g894
sg76
(lp901
S''
asbasbasbag69
(g85
g71
NtRp902
(dp903
g74
(dp904
sg83
g838
sg76
(lp905
g69
(g90
g71
NtRp906
(dp907
g74
(dp908
g94
g95
ssg83
g902
sg76
(lp909
g347
asbag69
(g90
g71
NtRp910
(dp911
g74
(dp912
g101
g102
ssg83
g902
sg76
(lp913
S':'
asbag69
(g90
g71
NtRp914
(dp915
g74
(dp916
sg83
g902
sg76
(lp917
g69
(g70
g71
NtRp918
(dp919
g74
(dp920
g82
I3
ssg83
g914
sg76
(lp921
S''
asbasbasbag69
(g85
g71
NtRp922
(dp923
g74
(dp924
sg83
g838
sg76
(lp925
g69
(g90
g71
NtRp926
(dp927
g74
(dp928
g94
g95
ssg83
g922
sg76
(lp929
g368
asbag69
(g90
g71
NtRp930
(dp931
g74
(dp932
g101
g102
ssg83
g922
sg76
(lp933
S':'
asbag69
(g90
g71
NtRp934
(dp935
g74
(dp936
sg83
g922
sg76
(lp937
g69
(g70
g71
NtRp938
(dp939
g74
(dp940
g82
I3
ssg83
g934
sg76
(lp941
S''
asbasbasbag69
(g85
g71
NtRp942
(dp943
g74
(dp944
sg83
g838
sg76
(lp945
g69
(g90
g71
NtRp946
(dp947
g74
(dp948
g94
g95
ssg83
g942
sg76
(lp949
g389
asbag69
(g90
g71
NtRp950
(dp951
g74
(dp952
g101
g102
ssg83
g942
sg76
(lp953
S':'
asbag69
(g90
g71
NtRp954
(dp955
g74
(dp956
sg83
g942
sg76
(lp957
g69
(g70
g71
NtRp958
(dp959
g74
(dp960
g82
I3
ssg83
g954
sg76
(lp961
S''
asbasbasbag69
(g85
g71
NtRp962
(dp963
g74
(dp964
sg83
g838
sg76
(lp965
g69
(g90
g71
NtRp966
(dp967
g74
(dp968
g94
g95
ssg83
g962
sg76
(lp969
g410
asbag69
(g90
g71
NtRp970
(dp971
g74
(dp972
g101
g102
ssg83
g962
sg76
(lp973
S':'
asbag69
(g90
g71
NtRp974
(dp975
g74
(dp976
sg83
g962
sg76
(lp977
g69
(g70
g71
NtRp978
(dp979
g74
(dp980
g82
I3
ssg83
g974
sg76
(lp981
S''
asbasbasbag69
(g85
g71
NtRp982
(dp983
g74
(dp984
sg83
g838
sg76
(lp985
g69
(g90
g71
NtRp986
(dp987
g74
(dp988
g94
g95
ssg83
g982
sg76
(lp989
g431
asbag69
(g90
g71
NtRp990
(dp991
g74
(dp992
g101
g102
ssg83
g982
sg76
(lp993
S':'
asbag69
(g90
g71
NtRp994
(dp995
g74
(dp996
sg83
g982
sg76
(lp997
g69
(g70
g71
NtRp998
(dp999
g74
(dp1000
g82
I3
ssg83
g994
sg76
(lp1001
S''
asbasbasbasbasbasbasbasbasbasbasbag69
(g85
g71
NtRp1002
(dp1003
g74
(dp1004
sg83
g79
sg76
(lp1005
g69
(g90
g71
NtRp1006
(dp1007
g74
(dp1008
g94
g95
ssg83
g1002
sg76
(lp1009
S'env'
p1010
asbag69
(g90
g71
NtRp1011
(dp1012
g74
(dp1013
g101
g102
ssg83
g1002
sg76
(lp1014
S':'
asbag69
(g90
g71
NtRp1015
(dp1016
g74
(dp1017
sg83
g1002
sg76
(lp1018
g69
(g70
g71
NtRp1019
(dp1020
g74
(dp1021
g82
I5
ssg83
g1015
sg76
(lp1022
g69
(g78
g71
NtRp1023
(dp1024
g74
(dp1025
g82
I4
ssg83
Nsg76
(lp1026
g69
(g85
g71
NtRp1027
(dp1028
g74
(dp1029
sg83
g1023
sg76
(lp1030
g69
(g90
g71
NtRp1031
(dp1032
g74
(dp1033
g94
g95
ssg83
g1027
sg76
(lp1034
S'app_folders'
p1035
asbag69
(g90
g71
NtRp1036
(dp1037
g74
(dp1038
g101
g102
ssg83
g1027
sg76
(lp1039
S':'
asbag69
(g90
g71
NtRp1040
(dp1041
g74
(dp1042
sg83
g1027
sg76
(lp1043
g69
(g70
g71
NtRp1044
(dp1045
g74
(dp1046
g82
I4
ssg83
g1040
sg76
(lp1047
S"set(['c:\\\\Users\\\\rochacbruno\\\\jul12\\\\cursojulho12\\\\web2py\\\\applications\\\\ecommerce\\\\', 'c:\\\\Users\\\\rochacbruno\\\\jul12\\\\cursojulho12\\\\web2py\\\\applications\\\\admin\\\\'])"
p1048
asbasbasbag69
(g85
g71
NtRp1049
(dp1050
g74
(dp1051
sg83
g1023
sg76
(lp1052
g69
(g90
g71
NtRp1053
(dp1054
g74
(dp1055
g94
g95
ssg83
g1049
sg76
(lp1056
S'applications_parent'
p1057
asbag69
(g90
g71
NtRp1058
(dp1059
g74
(dp1060
g101
g102
ssg83
g1049
sg76
(lp1061
S':'
asbag69
(g90
g71
NtRp1062
(dp1063
g74
(dp1064
sg83
g1049
sg76
(lp1065
g69
(g70
g71
NtRp1066
(dp1067
g74
(dp1068
g82
I4
ssg83
g1062
sg76
(lp1069
S'c:\\Users\\rochacbruno\\jul12\\cursojulho12\\web2py'
p1070
asbasbasbag69
(g85
g71
NtRp1071
(dp1072
g74
(dp1073
sg83
g1023
sg76
(lp1074
g69
(g90
g71
NtRp1075
(dp1076
g74
(dp1077
g94
g95
ssg83
g1071
sg76
(lp1078
S'cmd_args'
p1079
asbag69
(g90
g71
NtRp1080
(dp1081
g74
(dp1082
g101
g102
ssg83
g1071
sg76
(lp1083
S':'
asbag69
(g90
g71
NtRp1084
(dp1085
g74
(dp1086
sg83
g1071
sg76
(lp1087
g69
(g70
g71
NtRp1088
(dp1089
g74
(dp1090
g82
I4
ssg83
g1084
sg76
(lp1091
g69
(g78
g71
NtRp1092
(dp1093
g74
(dp1094
g82
I3
ssg83
Nsg76
(lp1095
sbasbasbasbag69
(g85
g71
NtRp1096
(dp1097
g74
(dp1098
sg83
g1023
sg76
(lp1099
g69
(g90
g71
NtRp1100
(dp1101
g74
(dp1102
g94
g95
ssg83
g1096
sg76
(lp1103
S'cmd_options'
p1104
asbag69
(g90
g71
NtRp1105
(dp1106
g74
(dp1107
g101
g102
ssg83
g1096
sg76
(lp1108
S':'
asbag69
(g90
g71
NtRp1109
(dp1110
g74
(dp1111
sg83
g1096
sg76
(lp1112
g69
(g70
g71
NtRp1113
(dp1114
g74
(dp1115
g82
I4
ssg83
g1109
sg76
(lp1116
S"<Values at 0x2ab8be8: {'verbose': False, 'ip': '127.0.0.1', 'with_scheduler': False, 'ips': ['192.168.1.100'], 'shutdown_timeout': 5, 'taskbar': False, 'port': 8000, 'maxthreads': None, 'softcron': False, 'server_name': 'rochacbruno-HP', 'bpython': False, 'nogui': False, 'nocron': True, 'extcron': False, 'run_system_tests': False, 'test': None, 'folder': 'c:\\\\Users\\\\rochacbruno\\\\jul12\\\\cursojulho12\\\\web2py', 'config': '', 'import_models': False, 'winservice': '', 'shell': None, 'run': '', 'log_filename': 'httpserver.log', 'debuglevel': 30, 'args': [''], 'socket_timeout': 5, 'ssl_ca_certificate': None, 'scheduler': None, 'profiler_filename': None, 'ssl_private_key': '', 'password': '1234', 'request_queue_size': 5, 'ssl_certificate': '', 'cronjob': False, 'numthreads': None, 'quiet': False, 'interfaces': None, 'minthreads': None, 'timeout': 10, 'plain': False, 'nobanner': False, 'pid_filename': 'httpserver.pid'}>"
p1117
asbasbasbag69
(g85
g71
NtRp1118
(dp1119
g74
(dp1120
sg83
g1023
sg76
(lp1121
g69
(g90
g71
NtRp1122
(dp1123
g74
(dp1124
g94
g95
ssg83
g1118
sg76
(lp1125
S'db_sessions'
p1126
asbag69
(g90
g71
NtRp1127
(dp1128
g74
(dp1129
g101
g102
ssg83
g1118
sg76
(lp1130
S':'
asbag69
(g90
g71
NtRp1131
(dp1132
g74
(dp1133
sg83
g1118
sg76
(lp1134
g69
(g70
g71
NtRp1135
(dp1136
g74
(dp1137
g82
I4
ssg83
g1131
sg76
(lp1138
S'set([])'
p1139
asbasbasbag69
(g85
g71
NtRp1140
(dp1141
g74
(dp1142
sg83
g1023
sg76
(lp1143
g69
(g90
g71
NtRp1144
(dp1145
g74
(dp1146
g94
g95
ssg83
g1140
sg76
(lp1147
S'debugging'
p1148
asbag69
(g90
g71
NtRp1149
(dp1150
g74
(dp1151
g101
g102
ssg83
g1140
sg76
(lp1152
S':'
asbag69
(g90
g71
NtRp1153
(dp1154
g74
(dp1155
sg83
g1140
sg76
(lp1156
g69
(g70
g71
NtRp1157
(dp1158
g74
(dp1159
g82
I4
ssg83
g1153
sg76
(lp1160
g112
asbasbasbag69
(g85
g71
NtRp1161
(dp1162
g74
(dp1163
sg83
g1023
sg76
(lp1164
g69
(g90
g71
NtRp1165
(dp1166
g74
(dp1167
g94
g95
ssg83
g1161
sg76
(lp1168
S'gluon_parent'
p1169
asbag69
(g90
g71
NtRp1170
(dp1171
g74
(dp1172
g101
g102
ssg83
g1161
sg76
(lp1173
S':'
asbag69
(g90
g71
NtRp1174
(dp1175
g74
(dp1176
sg83
g1161
sg76
(lp1177
g69
(g70
g71
NtRp1178
(dp1179
g74
(dp1180
g82
I4
ssg83
g1174
sg76
(lp1181
S'c:\\Users\\rochacbruno\\jul12\\cursojulho12\\web2py'
p1182
asbasbasbag69
(g85
g71
NtRp1183
(dp1184
g74
(dp1185
sg83
g1023
sg76
(lp1186
g69
(g90
g71
NtRp1187
(dp1188
g74
(dp1189
g94
g95
ssg83
g1183
sg76
(lp1190
S'http_accept'
p1191
asbag69
(g90
g71
NtRp1192
(dp1193
g74
(dp1194
g101
g102
ssg83
g1183
sg76
(lp1195
S':'
asbag69
(g90
g71
NtRp1196
(dp1197
g74
(dp1198
sg83
g1183
sg76
(lp1199
g69
(g70
g71
NtRp1200
(dp1201
g74
(dp1202
g82
I4
ssg83
g1196
sg76
(lp1203
S'text/html,application/xhtml+xml,application/xml;q=0.9,*/*;q=0.8'
p1204
asbasbasbag69
(g85
g71
NtRp1205
(dp1206
g74
(dp1207
sg83
g1023
sg76
(lp1208
g69
(g90
g71
NtRp1209
(dp1210
g74
(dp1211
g94
g95
ssg83
g1205
sg76
(lp1212
S'http_accept_encoding'
p1213
asbag69
(g90
g71
NtRp1214
(dp1215
g74
(dp1216
g101
g102
ssg83
g1205
sg76
(lp1217
S':'
asbag69
(g90
g71
NtRp1218
(dp1219
g74
(dp1220
sg83
g1205
sg76
(lp1221
g69
(g70
g71
NtRp1222
(dp1223
g74
(dp1224
g82
I4
ssg83
g1218
sg76
(lp1225
S'gzip, deflate'
p1226
asbasbasbag69
(g85
g71
NtRp1227
(dp1228
g74
(dp1229
sg83
g1023
sg76
(lp1230
g69
(g90
g71
NtRp1231
(dp1232
g74
(dp1233
g94
g95
ssg83
g1227
sg76
(lp1234
S'http_accept_language'
p1235
asbag69
(g90
g71
NtRp1236
(dp1237
g74
(dp1238
g101
g102
ssg83
g1227
sg76
(lp1239
S':'
asbag69
(g90
g71
NtRp1240
(dp1241
g74
(dp1242
sg83
g1227
sg76
(lp1243
g69
(g70
g71
NtRp1244
(dp1245
g74
(dp1246
g82
I4
ssg83
g1240
sg76
(lp1247
S'en,pt-br;q=0.8,pt;q=0.5,en-us;q=0.3'
p1248
asbasbasbag69
(g85
g71
NtRp1249
(dp1250
g74
(dp1251
sg83
g1023
sg76
(lp1252
g69
(g90
g71
NtRp1253
(dp1254
g74
(dp1255
g94
g95
ssg83
g1249
sg76
(lp1256
S'http_cache_control'
p1257
asbag69
(g90
g71
NtRp1258
(dp1259
g74
(dp1260
g101
g102
ssg83
g1249
sg76
(lp1261
S':'
asbag69
(g90
g71
NtRp1262
(dp1263
g74
(dp1264
sg83
g1249
sg76
(lp1265
g69
(g70
g71
NtRp1266
(dp1267
g74
(dp1268
g82
I4
ssg83
g1262
sg76
(lp1269
S'max-age=0'
p1270
asbasbasbag69
(g85
g71
NtRp1271
(dp1272
g74
(dp1273
sg83
g1023
sg76
(lp1274
g69
(g90
g71
NtRp1275
(dp1276
g74
(dp1277
g94
g95
ssg83
g1271
sg76
(lp1278
S'http_connection'
p1279
asbag69
(g90
g71
NtRp1280
(dp1281
g74
(dp1282
g101
g102
ssg83
g1271
sg76
(lp1283
S':'
asbag69
(g90
g71
NtRp1284
(dp1285
g74
(dp1286
sg83
g1271
sg76
(lp1287
g69
(g70
g71
NtRp1288
(dp1289
g74
(dp1290
g82
I4
ssg83
g1284
sg76
(lp1291
S'keep-alive'
p1292
asbasbasbag69
(g85
g71
NtRp1293
(dp1294
g74
(dp1295
sg83
g1023
sg76
(lp1296
g69
(g90
g71
NtRp1297
(dp1298
g74
(dp1299
g94
g95
ssg83
g1293
sg76
(lp1300
S'http_cookie'
p1301
asbag69
(g90
g71
NtRp1302
(dp1303
g74
(dp1304
g101
g102
ssg83
g1293
sg76
(lp1305
S':'
asbag69
(g90
g71
NtRp1306
(dp1307
g74
(dp1308
sg83
g1293
sg76
(lp1309
g69
(g70
g71
NtRp1310
(dp1311
g74
(dp1312
g82
I4
ssg83
g1306
sg76
(lp1313
S'session_id_admin=127.0.0.1-4873ed00-b716-4b13-a1bb-7fdaa43562f3; session_id_ecommerce=127.0.0.1-0fe94d39-4aae-427f-bfbc-597a65cd32c1; session_id_welcome=127.0.0.1-413fbb53-8fc7-4016-8695-7ff91d564649; session_id_init=127.0.0.1-5d866f8a-e112-44ab-84a9-267caae08c70'
p1314
asbasbasbag69
(g85
g71
NtRp1315
(dp1316
g74
(dp1317
sg83
g1023
sg76
(lp1318
g69
(g90
g71
NtRp1319
(dp1320
g74
(dp1321
g94
g95
ssg83
g1315
sg76
(lp1322
S'http_host'
p1323
asbag69
(g90
g71
NtRp1324
(dp1325
g74
(dp1326
g101
g102
ssg83
g1315
sg76
(lp1327
S':'
asbag69
(g90
g71
NtRp1328
(dp1329
g74
(dp1330
sg83
g1315
sg76
(lp1331
g69
(g70
g71
NtRp1332
(dp1333
g74
(dp1334
g82
I4
ssg83
g1328
sg76
(lp1335
S'localhost:8000'
p1336
asbasbasbag69
(g85
g71
NtRp1337
(dp1338
g74
(dp1339
sg83
g1023
sg76
(lp1340
g69
(g90
g71
NtRp1341
(dp1342
g74
(dp1343
g94
g95
ssg83
g1337
sg76
(lp1344
S'http_if_modified_since'
p1345
asbag69
(g90
g71
NtRp1346
(dp1347
g74
(dp1348
g101
g102
ssg83
g1337
sg76
(lp1349
S':'
asbag69
(g90
g71
NtRp1350
(dp1351
g74
(dp1352
sg83
g1337
sg76
(lp1353
g69
(g70
g71
NtRp1354
(dp1355
g74
(dp1356
g82
I4
ssg83
g1350
sg76
(lp1357
S'Sun, 12 Aug 2012 12:09:16 GMT'
p1358
asbasbasbag69
(g85
g71
NtRp1359
(dp1360
g74
(dp1361
sg83
g1023
sg76
(lp1362
g69
(g90
g71
NtRp1363
(dp1364
g74
(dp1365
g94
g95
ssg83
g1359
sg76
(lp1366
S'http_user_agent'
p1367
asbag69
(g90
g71
NtRp1368
(dp1369
g74
(dp1370
g101
g102
ssg83
g1359
sg76
(lp1371
S':'
asbag69
(g90
g71
NtRp1372
(dp1373
g74
(dp1374
sg83
g1359
sg76
(lp1375
g69
(g70
g71
NtRp1376
(dp1377
g74
(dp1378
g82
I4
ssg83
g1372
sg76
(lp1379
S'Mozilla/5.0 (Windows NT 6.1; rv:14.0) Gecko/20100101 Firefox/14.0.1'
p1380
asbasbasbag69
(g85
g71
NtRp1381
(dp1382
g74
(dp1383
sg83
g1023
sg76
(lp1384
g69
(g90
g71
NtRp1385
(dp1386
g74
(dp1387
g94
g95
ssg83
g1381
sg76
(lp1388
S'is_jython'
p1389
asbag69
(g90
g71
NtRp1390
(dp1391
g74
(dp1392
g101
g102
ssg83
g1381
sg76
(lp1393
S':'
asbag69
(g90
g71
NtRp1394
(dp1395
g74
(dp1396
sg83
g1381
sg76
(lp1397
g69
(g70
g71
NtRp1398
(dp1399
g74
(dp1400
g82
I4
ssg83
g1394
sg76
(lp1401
g112
asbasbasbag69
(g85
g71
NtRp1402
(dp1403
g74
(dp1404
sg83
g1023
sg76
(lp1405
g69
(g90
g71
NtRp1406
(dp1407
g74
(dp1408
g94
g95
ssg83
g1402
sg76
(lp1409
S'is_pypy'
p1410
asbag69
(g90
g71
NtRp1411
(dp1412
g74
(dp1413
g101
g102
ssg83
g1402
sg76
(lp1414
S':'
asbag69
(g90
g71
NtRp1415
(dp1416
g74
(dp1417
sg83
g1402
sg76
(lp1418
g69
(g70
g71
NtRp1419
(dp1420
g74
(dp1421
g82
I4
ssg83
g1415
sg76
(lp1422
g112
asbasbasbag69
(g85
g71
NtRp1423
(dp1424
g74
(dp1425
sg83
g1023
sg76
(lp1426
g69
(g90
g71
NtRp1427
(dp1428
g74
(dp1429
g94
g95
ssg83
g1423
sg76
(lp1430
S'path_info'
p1431
asbag69
(g90
g71
NtRp1432
(dp1433
g74
(dp1434
g101
g102
ssg83
g1423
sg76
(lp1435
S':'
asbag69
(g90
g71
NtRp1436
(dp1437
g74
(dp1438
sg83
g1423
sg76
(lp1439
g69
(g70
g71
NtRp1440
(dp1441
g74
(dp1442
g82
I4
ssg83
g1436
sg76
(lp1443
S'/index'
p1444
asbasbasbag69
(g85
g71
NtRp1445
(dp1446
g74
(dp1447
sg83
g1023
sg76
(lp1448
g69
(g90
g71
NtRp1449
(dp1450
g74
(dp1451
g94
g95
ssg83
g1445
sg76
(lp1452
S'query_string'
p1453
asbag69
(g90
g71
NtRp1454
(dp1455
g74
(dp1456
g101
g102
ssg83
g1445
sg76
(lp1457
S':'
asbag69
(g90
g71
NtRp1458
(dp1459
g74
(dp1460
sg83
g1445
sg76
(lp1461
g69
(g70
g71
NtRp1462
(dp1463
g74
(dp1464
g82
I4
ssg83
g1458
sg76
(lp1465
S''
asbasbasbag69
(g85
g71
NtRp1466
(dp1467
g74
(dp1468
sg83
g1023
sg76
(lp1469
g69
(g90
g71
NtRp1470
(dp1471
g74
(dp1472
g94
g95
ssg83
g1466
sg76
(lp1473
S'remote_addr'
p1474
asbag69
(g90
g71
NtRp1475
(dp1476
g74
(dp1477
g101
g102
ssg83
g1466
sg76
(lp1478
S':'
asbag69
(g90
g71
NtRp1479
(dp1480
g74
(dp1481
sg83
g1466
sg76
(lp1482
g69
(g70
g71
NtRp1483
(dp1484
g74
(dp1485
g82
I4
ssg83
g1479
sg76
(lp1486
g202
asbasbasbag69
(g85
g71
NtRp1487
(dp1488
g74
(dp1489
sg83
g1023
sg76
(lp1490
g69
(g90
g71
NtRp1491
(dp1492
g74
(dp1493
g94
g95
ssg83
g1487
sg76
(lp1494
S'remote_port'
p1495
asbag69
(g90
g71
NtRp1496
(dp1497
g74
(dp1498
g101
g102
ssg83
g1487
sg76
(lp1499
S':'
asbag69
(g90
g71
NtRp1500
(dp1501
g74
(dp1502
sg83
g1487
sg76
(lp1503
g69
(g70
g71
NtRp1504
(dp1505
g74
(dp1506
g82
I4
ssg83
g1500
sg76
(lp1507
S'49934'
p1508
asbasbasbag69
(g85
g71
NtRp1509
(dp1510
g74
(dp1511
sg83
g1023
sg76
(lp1512
g69
(g90
g71
NtRp1513
(dp1514
g74
(dp1515
g94
g95
ssg83
g1509
sg76
(lp1516
S'request_method'
p1517
asbag69
(g90
g71
NtRp1518
(dp1519
g74
(dp1520
g101
g102
ssg83
g1509
sg76
(lp1521
S':'
asbag69
(g90
g71
NtRp1522
(dp1523
g74
(dp1524
sg83
g1509
sg76
(lp1525
g69
(g70
g71
NtRp1526
(dp1527
g74
(dp1528
g82
I4
ssg83
g1522
sg76
(lp1529
S'GET'
p1530
asbasbasbag69
(g85
g71
NtRp1531
(dp1532
g74
(dp1533
sg83
g1023
sg76
(lp1534
g69
(g90
g71
NtRp1535
(dp1536
g74
(dp1537
g94
g95
ssg83
g1531
sg76
(lp1538
S'request_uri'
p1539
asbag69
(g90
g71
NtRp1540
(dp1541
g74
(dp1542
g101
g102
ssg83
g1531
sg76
(lp1543
S':'
asbag69
(g90
g71
NtRp1544
(dp1545
g74
(dp1546
sg83
g1531
sg76
(lp1547
g69
(g70
g71
NtRp1548
(dp1549
g74
(dp1550
g82
I4
ssg83
g1544
sg76
(lp1551
S'/ecommerce/home/index'
p1552
asbasbasbag69
(g85
g71
NtRp1553
(dp1554
g74
(dp1555
sg83
g1023
sg76
(lp1556
g69
(g90
g71
NtRp1557
(dp1558
g74
(dp1559
g94
g95
ssg83
g1553
sg76
(lp1560
S'script_name'
p1561
asbag69
(g90
g71
NtRp1562
(dp1563
g74
(dp1564
g101
g102
ssg83
g1553
sg76
(lp1565
S':'
asbag69
(g90
g71
NtRp1566
(dp1567
g74
(dp1568
sg83
g1553
sg76
(lp1569
g69
(g70
g71
NtRp1570
(dp1571
g74
(dp1572
g82
I4
ssg83
g1566
sg76
(lp1573
S''
asbasbasbag69
(g85
g71
NtRp1574
(dp1575
g74
(dp1576
sg83
g1023
sg76
(lp1577
g69
(g90
g71
NtRp1578
(dp1579
g74
(dp1580
g94
g95
ssg83
g1574
sg76
(lp1581
S'server_name'
p1582
asbag69
(g90
g71
NtRp1583
(dp1584
g74
(dp1585
g101
g102
ssg83
g1574
sg76
(lp1586
S':'
asbag69
(g90
g71
NtRp1587
(dp1588
g74
(dp1589
sg83
g1574
sg76
(lp1590
g69
(g70
g71
NtRp1591
(dp1592
g74
(dp1593
g82
I4
ssg83
g1587
sg76
(lp1594
S'rochacbruno-HP'
p1595
asbasbasbag69
(g85
g71
NtRp1596
(dp1597
g74
(dp1598
sg83
g1023
sg76
(lp1599
g69
(g90
g71
NtRp1600
(dp1601
g74
(dp1602
g94
g95
ssg83
g1596
sg76
(lp1603
S'server_port'
p1604
asbag69
(g90
g71
NtRp1605
(dp1606
g74
(dp1607
g101
g102
ssg83
g1596
sg76
(lp1608
S':'
asbag69
(g90
g71
NtRp1609
(dp1610
g74
(dp1611
sg83
g1596
sg76
(lp1612
g69
(g70
g71
NtRp1613
(dp1614
g74
(dp1615
g82
I4
ssg83
g1609
sg76
(lp1616
S'8000'
p1617
asbasbasbag69
(g85
g71
NtRp1618
(dp1619
g74
(dp1620
sg83
g1023
sg76
(lp1621
g69
(g90
g71
NtRp1622
(dp1623
g74
(dp1624
g94
g95
ssg83
g1618
sg76
(lp1625
S'server_protocol'
p1626
asbag69
(g90
g71
NtRp1627
(dp1628
g74
(dp1629
g101
g102
ssg83
g1618
sg76
(lp1630
S':'
asbag69
(g90
g71
NtRp1631
(dp1632
g74
(dp1633
sg83
g1618
sg76
(lp1634
g69
(g70
g71
NtRp1635
(dp1636
g74
(dp1637
g82
I4
ssg83
g1631
sg76
(lp1638
S'HTTP/1.1'
p1639
asbasbasbag69
(g85
g71
NtRp1640
(dp1641
g74
(dp1642
sg83
g1023
sg76
(lp1643
g69
(g90
g71
NtRp1644
(dp1645
g74
(dp1646
g94
g95
ssg83
g1640
sg76
(lp1647
S'server_software'
p1648
asbag69
(g90
g71
NtRp1649
(dp1650
g74
(dp1651
g101
g102
ssg83
g1640
sg76
(lp1652
S':'
asbag69
(g90
g71
NtRp1653
(dp1654
g74
(dp1655
sg83
g1640
sg76
(lp1656
g69
(g70
g71
NtRp1657
(dp1658
g74
(dp1659
g82
I4
ssg83
g1653
sg76
(lp1660
S'Rocket 1.2.4'
p1661
asbasbasbag69
(g85
g71
NtRp1662
(dp1663
g74
(dp1664
sg83
g1023
sg76
(lp1665
g69
(g90
g71
NtRp1666
(dp1667
g74
(dp1668
g94
g95
ssg83
g1662
sg76
(lp1669
S'web2py_original_uri'
p1670
asbag69
(g90
g71
NtRp1671
(dp1672
g74
(dp1673
g101
g102
ssg83
g1662
sg76
(lp1674
S':'
asbag69
(g90
g71
NtRp1675
(dp1676
g74
(dp1677
sg83
g1662
sg76
(lp1678
g69
(g70
g71
NtRp1679
(dp1680
g74
(dp1681
g82
I4
ssg83
g1675
sg76
(lp1682
g1444
asbasbasbag69
(g85
g71
NtRp1683
(dp1684
g74
(dp1685
sg83
g1023
sg76
(lp1686
g69
(g90
g71
NtRp1687
(dp1688
g74
(dp1689
g94
g95
ssg83
g1683
sg76
(lp1690
S'web2py_path'
p1691
asbag69
(g90
g71
NtRp1692
(dp1693
g74
(dp1694
g101
g102
ssg83
g1683
sg76
(lp1695
S':'
asbag69
(g90
g71
NtRp1696
(dp1697
g74
(dp1698
sg83
g1683
sg76
(lp1699
g69
(g70
g71
NtRp1700
(dp1701
g74
(dp1702
g82
I4
ssg83
g1696
sg76
(lp1703
g1070
asbasbasbag69
(g85
g71
NtRp1704
(dp1705
g74
(dp1706
sg83
g1023
sg76
(lp1707
g69
(g90
g71
NtRp1708
(dp1709
g74
(dp1710
g94
g95
ssg83
g1704
sg76
(lp1711
S'web2py_version'
p1712
asbag69
(g90
g71
NtRp1713
(dp1714
g74
(dp1715
g101
g102
ssg83
g1704
sg76
(lp1716
S':'
asbag69
(g90
g71
NtRp1717
(dp1718
g74
(dp1719
sg83
g1704
sg76
(lp1720
g69
(g70
g71
NtRp1721
(dp1722
g74
(dp1723
g82
I4
ssg83
g1717
sg76
(lp1724
g69
(g78
g71
NtRp1725
(dp1726
g74
(dp1727
g82
I3
ssg83
Nsg76
(lp1728
g69
(g85
g71
NtRp1729
(dp1730
g74
(dp1731
sg83
g1725
sg76
(lp1732
g69
(g90
g71
NtRp1733
(dp1734
g74
(dp1735
sg83
g1729
sg76
(lp1736
g69
(g70
g71
NtRp1737
(dp1738
g74
(dp1739
g82
I3
ssg83
g1733
sg76
(lp1740
S'2'
asbasbasbag69
(g85
g71
NtRp1741
(dp1742
g74
(dp1743
sg83
g1725
sg76
(lp1744
g69
(g90
g71
NtRp1745
(dp1746
g74
(dp1747
sg83
g1741
sg76
(lp1748
g69
(g70
g71
NtRp1749
(dp1750
g74
(dp1751
g82
I3
ssg83
g1745
sg76
(lp1752
S'0'
asbasbasbag69
(g85
g71
NtRp1753
(dp1754
g74
(dp1755
sg83
g1725
sg76
(lp1756
g69
(g90
g71
NtRp1757
(dp1758
g74
(dp1759
sg83
g1753
sg76
(lp1760
g69
(g70
g71
NtRp1761
(dp1762
g74
(dp1763
g82
I3
ssg83
g1757
sg76
(lp1764
S'0'
asbasbasbag69
(g85
g71
NtRp1765
(dp1766
g74
(dp1767
sg83
g1725
sg76
(lp1768
g69
(g90
g71
NtRp1769
(dp1770
g74
(dp1771
sg83
g1765
sg76
(lp1772
g69
(g70
g71
NtRp1773
(dp1774
g74
(dp1775
g82
I3
ssg83
g1769
sg76
(lp1776
S'datetime.datetime(2012, 8, 10, 13, 1, 31)'
p1777
asbasbasbag69
(g85
g71
NtRp1778
(dp1779
g74
(dp1780
sg83
g1725
sg76
(lp1781
g69
(g90
g71
NtRp1782
(dp1783
g74
(dp1784
sg83
g1778
sg76
(lp1785
g69
(g70
g71
NtRp1786
(dp1787
g74
(dp1788
g82
I3
ssg83
g1782
sg76
(lp1789
S'dev'
p1790
asbasbasbasbasbasbasbag69
(g85
g71
NtRp1791
(dp1792
g74
(dp1793
sg83
g1023
sg76
(lp1794
g69
(g90
g71
NtRp1795
(dp1796
g74
(dp1797
g94
g95
ssg83
g1791
sg76
(lp1798
S'wsgi_errors'
p1799
asbag69
(g90
g71
NtRp1800
(dp1801
g74
(dp1802
g101
g102
ssg83
g1791
sg76
(lp1803
S':'
asbag69
(g90
g71
NtRp1804
(dp1805
g74
(dp1806
sg83
g1791
sg76
(lp1807
g69
(g70
g71
NtRp1808
(dp1809
g74
(dp1810
g82
I4
ssg83
g1804
sg76
(lp1811
S"<open file '<stderr>', mode 'w' at 0x013750D0>"
p1812
asbasbasbag69
(g85
g71
NtRp1813
(dp1814
g74
(dp1815
sg83
g1023
sg76
(lp1816
g69
(g90
g71
NtRp1817
(dp1818
g74
(dp1819
g94
g95
ssg83
g1813
sg76
(lp1820
S'wsgi_file_wrapper'
p1821
asbag69
(g90
g71
NtRp1822
(dp1823
g74
(dp1824
g101
g102
ssg83
g1813
sg76
(lp1825
S':'
asbag69
(g90
g71
NtRp1826
(dp1827
g74
(dp1828
sg83
g1813
sg76
(lp1829
g69
(g70
g71
NtRp1830
(dp1831
g74
(dp1832
g82
I4
ssg83
g1826
sg76
(lp1833
S'<class wsgiref.util.FileWrapper at 0x029F83B0>'
p1834
asbasbasbag69
(g85
g71
NtRp1835
(dp1836
g74
(dp1837
sg83
g1023
sg76
(lp1838
g69
(g90
g71
NtRp1839
(dp1840
g74
(dp1841
g94
g95
ssg83
g1835
sg76
(lp1842
S'wsgi_input'
p1843
asbag69
(g90
g71
NtRp1844
(dp1845
g74
(dp1846
g101
g102
ssg83
g1835
sg76
(lp1847
S':'
asbag69
(g90
g71
NtRp1848
(dp1849
g74
(dp1850
sg83
g1835
sg76
(lp1851
g69
(g70
g71
NtRp1852
(dp1853
g74
(dp1854
g82
I4
ssg83
g1848
sg76
(lp1855
S'<socket._fileobject object at 0x056BF8F0>'
p1856
asbasbasbag69
(g85
g71
NtRp1857
(dp1858
g74
(dp1859
sg83
g1023
sg76
(lp1860
g69
(g90
g71
NtRp1861
(dp1862
g74
(dp1863
g94
g95
ssg83
g1857
sg76
(lp1864
S'wsgi_multiprocess'
p1865
asbag69
(g90
g71
NtRp1866
(dp1867
g74
(dp1868
g101
g102
ssg83
g1857
sg76
(lp1869
S':'
asbag69
(g90
g71
NtRp1870
(dp1871
g74
(dp1872
sg83
g1857
sg76
(lp1873
g69
(g70
g71
NtRp1874
(dp1875
g74
(dp1876
g82
I4
ssg83
g1870
sg76
(lp1877
g112
asbasbasbag69
(g85
g71
NtRp1878
(dp1879
g74
(dp1880
sg83
g1023
sg76
(lp1881
g69
(g90
g71
NtRp1882
(dp1883
g74
(dp1884
g94
g95
ssg83
g1878
sg76
(lp1885
S'wsgi_multithread'
p1886
asbag69
(g90
g71
NtRp1887
(dp1888
g74
(dp1889
g101
g102
ssg83
g1878
sg76
(lp1890
S':'
asbag69
(g90
g71
NtRp1891
(dp1892
g74
(dp1893
sg83
g1878
sg76
(lp1894
g69
(g70
g71
NtRp1895
(dp1896
g74
(dp1897
g82
I4
ssg83
g1891
sg76
(lp1898
S'True'
p1899
asbasbasbag69
(g85
g71
NtRp1900
(dp1901
g74
(dp1902
sg83
g1023
sg76
(lp1903
g69
(g90
g71
NtRp1904
(dp1905
g74
(dp1906
g94
g95
ssg83
g1900
sg76
(lp1907
S'wsgi_run_once'
p1908
asbag69
(g90
g71
NtRp1909
(dp1910
g74
(dp1911
g101
g102
ssg83
g1900
sg76
(lp1912
S':'
asbag69
(g90
g71
NtRp1913
(dp1914
g74
(dp1915
sg83
g1900
sg76
(lp1916
g69
(g70
g71
NtRp1917
(dp1918
g74
(dp1919
g82
I4
ssg83
g1913
sg76
(lp1920
g112
asbasbasbag69
(g85
g71
NtRp1921
(dp1922
g74
(dp1923
sg83
g1023
sg76
(lp1924
g69
(g90
g71
NtRp1925
(dp1926
g74
(dp1927
g94
g95
ssg83
g1921
sg76
(lp1928
S'wsgi_url_scheme'
p1929
asbag69
(g90
g71
NtRp1930
(dp1931
g74
(dp1932
g101
g102
ssg83
g1921
sg76
(lp1933
S':'
asbag69
(g90
g71
NtRp1934
(dp1935
g74
(dp1936
sg83
g1921
sg76
(lp1937
g69
(g70
g71
NtRp1938
(dp1939
g74
(dp1940
g82
I4
ssg83
g1934
sg76
(lp1941
S'http'
p1942
asbasbasbag69
(g85
g71
NtRp1943
(dp1944
g74
(dp1945
sg83
g1023
sg76
(lp1946
g69
(g90
g71
NtRp1947
(dp1948
g74
(dp1949
g94
g95
ssg83
g1943
sg76
(lp1950
S'wsgi_version'
p1951
asbag69
(g90
g71
NtRp1952
(dp1953
g74
(dp1954
g101
g102
ssg83
g1943
sg76
(lp1955
S':'
asbag69
(g90
g71
NtRp1956
(dp1957
g74
(dp1958
sg83
g1943
sg76
(lp1959
g69
(g70
g71
NtRp1960
(dp1961
g74
(dp1962
g82
I4
ssg83
g1956
sg76
(lp1963
g69
(g78
g71
NtRp1964
(dp1965
g74
(dp1966
g82
I3
ssg83
Nsg76
(lp1967
g69
(g85
g71
NtRp1968
(dp1969
g74
(dp1970
sg83
g1964
sg76
(lp1971
g69
(g90
g71
NtRp1972
(dp1973
g74
(dp1974
sg83
g1968
sg76
(lp1975
g69
(g70
g71
NtRp1976
(dp1977
g74
(dp1978
g82
I3
ssg83
g1972
sg76
(lp1979
S'1'
asbasbasbag69
(g85
g71
NtRp1980
(dp1981
g74
(dp1982
sg83
g1964
sg76
(lp1983
g69
(g90
g71
NtRp1984
(dp1985
g74
(dp1986
sg83
g1980
sg76
(lp1987
g69
(g70
g71
NtRp1988
(dp1989
g74
(dp1990
g82
I3
ssg83
g1984
sg76
(lp1991
S'0'
asbasbasbasbasbasbasbasbasbasbasbag69
(g85
g71
NtRp1992
(dp1993
g74
(dp1994
sg83
g79
sg76
(lp1995
g69
(g90
g71
NtRp1996
(dp1997
g74
(dp1998
g94
g95
ssg83
g1992
sg76
(lp1999
S'extension'
p2000
asbag69
(g90
g71
NtRp2001
(dp2002
g74
(dp2003
g101
g102
ssg83
g1992
sg76
(lp2004
S':'
asbag69
(g90
g71
NtRp2005
(dp2006
g74
(dp2007
sg83
g1992
sg76
(lp2008
g69
(g70
g71
NtRp2009
(dp2010
g74
(dp2011
g82
I5
ssg83
g2005
sg76
(lp2012
S'html'
p2013
asbasbasbag69
(g85
g71
NtRp2014
(dp2015
g74
(dp2016
sg83
g79
sg76
(lp2017
g69
(g90
g71
NtRp2018
(dp2019
g74
(dp2020
g94
g95
ssg83
g2014
sg76
(lp2021
S'folder'
p2022
asbag69
(g90
g71
NtRp2023
(dp2024
g74
(dp2025
g101
g102
ssg83
g2014
sg76
(lp2026
S':'
asbag69
(g90
g71
NtRp2027
(dp2028
g74
(dp2029
sg83
g2014
sg76
(lp2030
g69
(g70
g71
NtRp2031
(dp2032
g74
(dp2033
g82
I5
ssg83
g2027
sg76
(lp2034
S'c:\\Users\\rochacbruno\\jul12\\cursojulho12\\web2py\\applications\\ecommerce\\'
p2035
asbasbasbag69
(g85
g71
NtRp2036
(dp2037
g74
(dp2038
sg83
g79
sg76
(lp2039
g69
(g90
g71
NtRp2040
(dp2041
g74
(dp2042
g94
g95
ssg83
g2036
sg76
(lp2043
S'function'
p2044
asbag69
(g90
g71
NtRp2045
(dp2046
g74
(dp2047
g101
g102
ssg83
g2036
sg76
(lp2048
S':'
asbag69
(g90
g71
NtRp2049
(dp2050
g74
(dp2051
sg83
g2036
sg76
(lp2052
g69
(g70
g71
NtRp2053
(dp2054
g74
(dp2055
g82
I5
ssg83
g2049
sg76
(lp2056
S'index'
p2057
asbasbasbag69
(g85
g71
NtRp2058
(dp2059
g74
(dp2060
sg83
g79
sg76
(lp2061
g69
(g90
g71
NtRp2062
(dp2063
g74
(dp2064
g94
g95
ssg83
g2058
sg76
(lp2065
S'get_vars'
p2066
asbag69
(g90
g71
NtRp2067
(dp2068
g74
(dp2069
g101
g102
ssg83
g2058
sg76
(lp2070
S':'
asbag69
(g90
g71
NtRp2071
(dp2072
g74
(dp2073
sg83
g2058
sg76
(lp2074
g69
(g70
g71
NtRp2075
(dp2076
g74
(dp2077
g82
I5
ssg83
g2071
sg76
(lp2078
g69
(g78
g71
NtRp2079
(dp2080
g74
(dp2081
g82
I4
ssg83
Nsg76
(lp2082
sbasbasbasbag69
(g85
g71
NtRp2083
(dp2084
g74
(dp2085
sg83
g79
sg76
(lp2086
g69
(g90
g71
NtRp2087
(dp2088
g74
(dp2089
g94
g95
ssg83
g2083
sg76
(lp2090
S'global_settings'
p2091
asbag69
(g90
g71
NtRp2092
(dp2093
g74
(dp2094
g101
g102
ssg83
g2083
sg76
(lp2095
S':'
asbag69
(g90
g71
NtRp2096
(dp2097
g74
(dp2098
sg83
g2083
sg76
(lp2099
g69
(g70
g71
NtRp2100
(dp2101
g74
(dp2102
g82
I5
ssg83
g2096
sg76
(lp2103
g69
(g78
g71
NtRp2104
(dp2105
g74
(dp2106
g82
I4
ssg83
Nsg76
(lp2107
g69
(g85
g71
NtRp2108
(dp2109
g74
(dp2110
sg83
g2104
sg76
(lp2111
g69
(g90
g71
NtRp2112
(dp2113
g74
(dp2114
g94
g95
ssg83
g2108
sg76
(lp2115
g1035
asbag69
(g90
g71
NtRp2116
(dp2117
g74
(dp2118
g101
g102
ssg83
g2108
sg76
(lp2119
S':'
asbag69
(g90
g71
NtRp2120
(dp2121
g74
(dp2122
sg83
g2108
sg76
(lp2123
g69
(g70
g71
NtRp2124
(dp2125
g74
(dp2126
g82
I4
ssg83
g2120
sg76
(lp2127
S"set(['c:\\\\Users\\\\rochacbruno\\\\jul12\\\\cursojulho12\\\\web2py\\\\applications\\\\ecommerce\\\\', 'c:\\\\Users\\\\rochacbruno\\\\jul12\\\\cursojulho12\\\\web2py\\\\applications\\\\admin\\\\'])"
p2128
asbasbasbag69
(g85
g71
NtRp2129
(dp2130
g74
(dp2131
sg83
g2104
sg76
(lp2132
g69
(g90
g71
NtRp2133
(dp2134
g74
(dp2135
g94
g95
ssg83
g2129
sg76
(lp2136
g1057
asbag69
(g90
g71
NtRp2137
(dp2138
g74
(dp2139
g101
g102
ssg83
g2129
sg76
(lp2140
S':'
asbag69
(g90
g71
NtRp2141
(dp2142
g74
(dp2143
sg83
g2129
sg76
(lp2144
g69
(g70
g71
NtRp2145
(dp2146
g74
(dp2147
g82
I4
ssg83
g2141
sg76
(lp2148
g1070
asbasbasbag69
(g85
g71
NtRp2149
(dp2150
g74
(dp2151
sg83
g2104
sg76
(lp2152
g69
(g90
g71
NtRp2153
(dp2154
g74
(dp2155
g94
g95
ssg83
g2149
sg76
(lp2156
g1079
asbag69
(g90
g71
NtRp2157
(dp2158
g74
(dp2159
g101
g102
ssg83
g2149
sg76
(lp2160
S':'
asbag69
(g90
g71
NtRp2161
(dp2162
g74
(dp2163
sg83
g2149
sg76
(lp2164
g69
(g70
g71
NtRp2165
(dp2166
g74
(dp2167
g82
I4
ssg83
g2161
sg76
(lp2168
g69
(g78
g71
NtRp2169
(dp2170
g74
(dp2171
g82
I3
ssg83
Nsg76
(lp2172
sbasbasbasbag69
(g85
g71
NtRp2173
(dp2174
g74
(dp2175
sg83
g2104
sg76
(lp2176
g69
(g90
g71
NtRp2177
(dp2178
g74
(dp2179
g94
g95
ssg83
g2173
sg76
(lp2180
g1104
asbag69
(g90
g71
NtRp2181
(dp2182
g74
(dp2183
g101
g102
ssg83
g2173
sg76
(lp2184
S':'
asbag69
(g90
g71
NtRp2185
(dp2186
g74
(dp2187
sg83
g2173
sg76
(lp2188
g69
(g70
g71
NtRp2189
(dp2190
g74
(dp2191
g82
I4
ssg83
g2185
sg76
(lp2192
S"<Values at 0x2ab8be8: {'verbose': False, 'ip': '127.0.0.1', 'with_scheduler': False, 'ips': ['192.168.1.100'], 'shutdown_timeout': 5, 'taskbar': False, 'port': 8000, 'maxthreads': None, 'softcron': False, 'server_name': 'rochacbruno-HP', 'bpython': False, 'nogui': False, 'nocron': True, 'extcron': False, 'run_system_tests': False, 'test': None, 'folder': 'c:\\\\Users\\\\rochacbruno\\\\jul12\\\\cursojulho12\\\\web2py', 'config': '', 'import_models': False, 'winservice': '', 'shell': None, 'run': '', 'log_filename': 'httpserver.log', 'debuglevel': 30, 'args': [''], 'socket_timeout': 5, 'ssl_ca_certificate': None, 'scheduler': None, 'profiler_filename': None, 'ssl_private_key': '', 'password': '1234', 'request_queue_size': 5, 'ssl_certificate': '', 'cronjob': False, 'numthreads': None, 'quiet': False, 'interfaces': None, 'minthreads': None, 'timeout': 10, 'plain': False, 'nobanner': False, 'pid_filename': 'httpserver.pid'}>"
p2193
asbasbasbag69
(g85
g71
NtRp2194
(dp2195
g74
(dp2196
sg83
g2104
sg76
(lp2197
g69
(g90
g71
NtRp2198
(dp2199
g74
(dp2200
g94
g95
ssg83
g2194
sg76
(lp2201
g1126
asbag69
(g90
g71
NtRp2202
(dp2203
g74
(dp2204
g101
g102
ssg83
g2194
sg76
(lp2205
S':'
asbag69
(g90
g71
NtRp2206
(dp2207
g74
(dp2208
sg83
g2194
sg76
(lp2209
g69
(g70
g71
NtRp2210
(dp2211
g74
(dp2212
g82
I4
ssg83
g2206
sg76
(lp2213
S'set([])'
p2214
asbasbasbag69
(g85
g71
NtRp2215
(dp2216
g74
(dp2217
sg83
g2104
sg76
(lp2218
g69
(g90
g71
NtRp2219
(dp2220
g74
(dp2221
g94
g95
ssg83
g2215
sg76
(lp2222
g1148
asbag69
(g90
g71
NtRp2223
(dp2224
g74
(dp2225
g101
g102
ssg83
g2215
sg76
(lp2226
S':'
asbag69
(g90
g71
NtRp2227
(dp2228
g74
(dp2229
sg83
g2215
sg76
(lp2230
g69
(g70
g71
NtRp2231
(dp2232
g74
(dp2233
g82
I4
ssg83
g2227
sg76
(lp2234
g112
asbasbasbag69
(g85
g71
NtRp2235
(dp2236
g74
(dp2237
sg83
g2104
sg76
(lp2238
g69
(g90
g71
NtRp2239
(dp2240
g74
(dp2241
g94
g95
ssg83
g2235
sg76
(lp2242
g1169
asbag69
(g90
g71
NtRp2243
(dp2244
g74
(dp2245
g101
g102
ssg83
g2235
sg76
(lp2246
S':'
asbag69
(g90
g71
NtRp2247
(dp2248
g74
(dp2249
sg83
g2235
sg76
(lp2250
g69
(g70
g71
NtRp2251
(dp2252
g74
(dp2253
g82
I4
ssg83
g2247
sg76
(lp2254
g1182
asbasbasbag69
(g85
g71
NtRp2255
(dp2256
g74
(dp2257
sg83
g2104
sg76
(lp2258
g69
(g90
g71
NtRp2259
(dp2260
g74
(dp2261
g94
g95
ssg83
g2255
sg76
(lp2262
g1389
asbag69
(g90
g71
NtRp2263
(dp2264
g74
(dp2265
g101
g102
ssg83
g2255
sg76
(lp2266
S':'
asbag69
(g90
g71
NtRp2267
(dp2268
g74
(dp2269
sg83
g2255
sg76
(lp2270
g69
(g70
g71
NtRp2271
(dp2272
g74
(dp2273
g82
I4
ssg83
g2267
sg76
(lp2274
g112
asbasbasbag69
(g85
g71
NtRp2275
(dp2276
g74
(dp2277
sg83
g2104
sg76
(lp2278
g69
(g90
g71
NtRp2279
(dp2280
g74
(dp2281
g94
g95
ssg83
g2275
sg76
(lp2282
g1410
asbag69
(g90
g71
NtRp2283
(dp2284
g74
(dp2285
g101
g102
ssg83
g2275
sg76
(lp2286
S':'
asbag69
(g90
g71
NtRp2287
(dp2288
g74
(dp2289
sg83
g2275
sg76
(lp2290
g69
(g70
g71
NtRp2291
(dp2292
g74
(dp2293
g82
I4
ssg83
g2287
sg76
(lp2294
g112
asbasbasbag69
(g85
g71
NtRp2295
(dp2296
g74
(dp2297
sg83
g2104
sg76
(lp2298
g69
(g90
g71
NtRp2299
(dp2300
g74
(dp2301
g94
g95
ssg83
g2295
sg76
(lp2302
g1712
asbag69
(g90
g71
NtRp2303
(dp2304
g74
(dp2305
g101
g102
ssg83
g2295
sg76
(lp2306
S':'
asbag69
(g90
g71
NtRp2307
(dp2308
g74
(dp2309
sg83
g2295
sg76
(lp2310
g69
(g70
g71
NtRp2311
(dp2312
g74
(dp2313
g82
I4
ssg83
g2307
sg76
(lp2314
g69
(g78
g71
NtRp2315
(dp2316
g74
(dp2317
g82
I3
ssg83
Nsg76
(lp2318
g69
(g85
g71
NtRp2319
(dp2320
g74
(dp2321
sg83
g2315
sg76
(lp2322
g69
(g90
g71
NtRp2323
(dp2324
g74
(dp2325
sg83
g2319
sg76
(lp2326
g69
(g70
g71
NtRp2327
(dp2328
g74
(dp2329
g82
I3
ssg83
g2323
sg76
(lp2330
S'2'
asbasbasbag69
(g85
g71
NtRp2331
(dp2332
g74
(dp2333
sg83
g2315
sg76
(lp2334
g69
(g90
g71
NtRp2335
(dp2336
g74
(dp2337
sg83
g2331
sg76
(lp2338
g69
(g70
g71
NtRp2339
(dp2340
g74
(dp2341
g82
I3
ssg83
g2335
sg76
(lp2342
S'0'
asbasbasbag69
(g85
g71
NtRp2343
(dp2344
g74
(dp2345
sg83
g2315
sg76
(lp2346
g69
(g90
g71
NtRp2347
(dp2348
g74
(dp2349
sg83
g2343
sg76
(lp2350
g69
(g70
g71
NtRp2351
(dp2352
g74
(dp2353
g82
I3
ssg83
g2347
sg76
(lp2354
S'0'
asbasbasbag69
(g85
g71
NtRp2355
(dp2356
g74
(dp2357
sg83
g2315
sg76
(lp2358
g69
(g90
g71
NtRp2359
(dp2360
g74
(dp2361
sg83
g2355
sg76
(lp2362
g69
(g70
g71
NtRp2363
(dp2364
g74
(dp2365
g82
I3
ssg83
g2359
sg76
(lp2366
S'datetime.datetime(2012, 8, 10, 13, 1, 31)'
p2367
asbasbasbag69
(g85
g71
NtRp2368
(dp2369
g74
(dp2370
sg83
g2315
sg76
(lp2371
g69
(g90
g71
NtRp2372
(dp2373
g74
(dp2374
sg83
g2368
sg76
(lp2375
g69
(g70
g71
NtRp2376
(dp2377
g74
(dp2378
g82
I3
ssg83
g2372
sg76
(lp2379
g1790
asbasbasbasbasbasbasbasbasbasbasbag69
(g85
g71
NtRp2380
(dp2381
g74
(dp2382
sg83
g79
sg76
(lp2383
g69
(g90
g71
NtRp2384
(dp2385
g74
(dp2386
g94
g95
ssg83
g2380
sg76
(lp2387
S'is_https'
p2388
asbag69
(g90
g71
NtRp2389
(dp2390
g74
(dp2391
g101
g102
ssg83
g2380
sg76
(lp2392
S':'
asbag69
(g90
g71
NtRp2393
(dp2394
g74
(dp2395
sg83
g2380
sg76
(lp2396
g69
(g70
g71
NtRp2397
(dp2398
g74
(dp2399
g82
I5
ssg83
g2393
sg76
(lp2400
g112
asbasbasbag69
(g85
g71
NtRp2401
(dp2402
g74
(dp2403
sg83
g79
sg76
(lp2404
g69
(g90
g71
NtRp2405
(dp2406
g74
(dp2407
g94
g95
ssg83
g2401
sg76
(lp2408
S'is_local'
p2409
asbag69
(g90
g71
NtRp2410
(dp2411
g74
(dp2412
g101
g102
ssg83
g2401
sg76
(lp2413
S':'
asbag69
(g90
g71
NtRp2414
(dp2415
g74
(dp2416
sg83
g2401
sg76
(lp2417
g69
(g70
g71
NtRp2418
(dp2419
g74
(dp2420
g82
I5
ssg83
g2414
sg76
(lp2421
g1899
asbasbasbag69
(g85
g71
NtRp2422
(dp2423
g74
(dp2424
sg83
g79
sg76
(lp2425
g69
(g90
g71
NtRp2426
(dp2427
g74
(dp2428
g94
g95
ssg83
g2422
sg76
(lp2429
S'is_restful'
p2430
asbag69
(g90
g71
NtRp2431
(dp2432
g74
(dp2433
g101
g102
ssg83
g2422
sg76
(lp2434
S':'
asbag69
(g90
g71
NtRp2435
(dp2436
g74
(dp2437
sg83
g2422
sg76
(lp2438
g69
(g70
g71
NtRp2439
(dp2440
g74
(dp2441
g82
I5
ssg83
g2435
sg76
(lp2442
g112
asbasbasbag69
(g85
g71
NtRp2443
(dp2444
g74
(dp2445
sg83
g79
sg76
(lp2446
g69
(g90
g71
NtRp2447
(dp2448
g74
(dp2449
g94
g95
ssg83
g2443
sg76
(lp2450
S'now'
p2451
asbag69
(g90
g71
NtRp2452
(dp2453
g74
(dp2454
g101
g102
ssg83
g2443
sg76
(lp2455
S':'
asbag69
(g90
g71
NtRp2456
(dp2457
g74
(dp2458
sg83
g2443
sg76
(lp2459
g69
(g70
g71
NtRp2460
(dp2461
g74
(dp2462
g82
I5
ssg83
g2456
sg76
(lp2463
S'datetime.datetime(2012, 8, 12, 11, 17, 38, 568000)'
p2464
asbasbasbag69
(g85
g71
NtRp2465
(dp2466
g74
(dp2467
sg83
g79
sg76
(lp2468
g69
(g90
g71
NtRp2469
(dp2470
g74
(dp2471
g94
g95
ssg83
g2465
sg76
(lp2472
S'post_vars'
p2473
asbag69
(g90
g71
NtRp2474
(dp2475
g74
(dp2476
g101
g102
ssg83
g2465
sg76
(lp2477
S':'
asbag69
(g90
g71
NtRp2478
(dp2479
g74
(dp2480
sg83
g2465
sg76
(lp2481
g69
(g70
g71
NtRp2482
(dp2483
g74
(dp2484
g82
I5
ssg83
g2478
sg76
(lp2485
g69
(g78
g71
NtRp2486
(dp2487
g74
(dp2488
g82
I4
ssg83
Nsg76
(lp2489
sbasbasbasbag69
(g85
g71
NtRp2490
(dp2491
g74
(dp2492
sg83
g79
sg76
(lp2493
g69
(g90
g71
NtRp2494
(dp2495
g74
(dp2496
g94
g95
ssg83
g2490
sg76
(lp2497
S'url'
p2498
asbag69
(g90
g71
NtRp2499
(dp2500
g74
(dp2501
g101
g102
ssg83
g2490
sg76
(lp2502
S':'
asbag69
(g90
g71
NtRp2503
(dp2504
g74
(dp2505
sg83
g2490
sg76
(lp2506
g69
(g70
g71
NtRp2507
(dp2508
g74
(dp2509
g82
I5
ssg83
g2503
sg76
(lp2510
S'/'
asbasbasbag69
(g85
g71
NtRp2511
(dp2512
g74
(dp2513
sg83
g79
sg76
(lp2514
g69
(g90
g71
NtRp2515
(dp2516
g74
(dp2517
g94
g95
ssg83
g2511
sg76
(lp2518
S'utcnow'
p2519
asbag69
(g90
g71
NtRp2520
(dp2521
g74
(dp2522
g101
g102
ssg83
g2511
sg76
(lp2523
S':'
asbag69
(g90
g71
NtRp2524
(dp2525
g74
(dp2526
sg83
g2511
sg76
(lp2527
g69
(g70
g71
NtRp2528
(dp2529
g74
(dp2530
g82
I5
ssg83
g2524
sg76
(lp2531
S'datetime.datetime(2012, 8, 12, 14, 17, 38, 568000)'
p2532
asbasbasbag69
(g85
g71
NtRp2533
(dp2534
g74
(dp2535
sg83
g79
sg76
(lp2536
g69
(g90
g71
NtRp2537
(dp2538
g74
(dp2539
g94
g95
ssg83
g2533
sg76
(lp2540
S'uuid'
p2541
asbag69
(g90
g71
NtRp2542
(dp2543
g74
(dp2544
g101
g102
ssg83
g2533
sg76
(lp2545
S':'
asbag69
(g90
g71
NtRp2546
(dp2547
g74
(dp2548
sg83
g2533
sg76
(lp2549
g69
(g70
g71
NtRp2550
(dp2551
g74
(dp2552
g82
I5
ssg83
g2546
sg76
(lp2553
S'ecommerce/127.0.0.1.2012-08-12.11-17-38.1ed59f40-dcdd-45c8-acc4-3dba378f5369'
p2554
asbasbasbag69
(g85
g71
NtRp2555
(dp2556
g74
(dp2557
sg83
g79
sg76
(lp2558
g69
(g90
g71
NtRp2559
(dp2560
g74
(dp2561
g94
g95
ssg83
g2555
sg76
(lp2562
S'vars'
p2563
asbag69
(g90
g71
NtRp2564
(dp2565
g74
(dp2566
g101
g102
ssg83
g2555
sg76
(lp2567
S':'
asbag69
(g90
g71
NtRp2568
(dp2569
g74
(dp2570
sg83
g2555
sg76
(lp2571
g69
(g70
g71
NtRp2572
(dp2573
g74
(dp2574
g82
I5
ssg83
g2568
sg76
(lp2575
g69
(g78
g71
NtRp2576
(dp2577
g74
(dp2578
g82
I4
ssg83
Nsg76
(lp2579
sbasbasbasbag69
(g85
g71
NtRp2580
(dp2581
g74
(dp2582
sg83
g79
sg76
(lp2583
g69
(g90
g71
NtRp2584
(dp2585
g74
(dp2586
g94
g95
ssg83
g2580
sg76
(lp2587
S'wsgi'
p2588
asbag69
(g90
g71
NtRp2589
(dp2590
g74
(dp2591
g101
g102
ssg83
g2580
sg76
(lp2592
S':'
asbag69
(g90
g71
NtRp2593
(dp2594
g74
(dp2595
sg83
g2580
sg76
(lp2596
g69
(g70
g71
NtRp2597
(dp2598
g74
(dp2599
g82
I5
ssg83
g2593
sg76
(lp2600
g69
(g78
g71
NtRp2601
(dp2602
g74
(dp2603
g82
I4
ssg83
Nsg76
(lp2604
g69
(g85
g71
NtRp2605
(dp2606
g74
(dp2607
sg83
g2601
sg76
(lp2608
g69
(g90
g71
NtRp2609
(dp2610
g74
(dp2611
g94
g95
ssg83
g2605
sg76
(lp2612
S'environ'
p2613
asbag69
(g90
g71
NtRp2614
(dp2615
g74
(dp2616
g101
g102
ssg83
g2605
sg76
(lp2617
S':'
asbag69
(g90
g71
NtRp2618
(dp2619
g74
(dp2620
sg83
g2605
sg76
(lp2621
g69
(g70
g71
NtRp2622
(dp2623
g74
(dp2624
g82
I4
ssg83
g2618
sg76
(lp2625
g69
(g78
g71
NtRp2626
(dp2627
g74
(dp2628
g82
I3
ssg83
Nsg76
(lp2629
g69
(g85
g71
NtRp2630
(dp2631
g74
(dp2632
sg83
g2626
sg76
(lp2633
g69
(g90
g71
NtRp2634
(dp2635
g74
(dp2636
g94
g95
ssg83
g2630
sg76
(lp2637
S'HTTP_ACCEPT'
p2638
asbag69
(g90
g71
NtRp2639
(dp2640
g74
(dp2641
g101
g102
ssg83
g2630
sg76
(lp2642
S':'
asbag69
(g90
g71
NtRp2643
(dp2644
g74
(dp2645
sg83
g2630
sg76
(lp2646
g69
(g70
g71
NtRp2647
(dp2648
g74
(dp2649
g82
I3
ssg83
g2643
sg76
(lp2650
g1204
asbasbasbag69
(g85
g71
NtRp2651
(dp2652
g74
(dp2653
sg83
g2626
sg76
(lp2654
g69
(g90
g71
NtRp2655
(dp2656
g74
(dp2657
g94
g95
ssg83
g2651
sg76
(lp2658
S'HTTP_ACCEPT_ENCODING'
p2659
asbag69
(g90
g71
NtRp2660
(dp2661
g74
(dp2662
g101
g102
ssg83
g2651
sg76
(lp2663
S':'
asbag69
(g90
g71
NtRp2664
(dp2665
g74
(dp2666
sg83
g2651
sg76
(lp2667
g69
(g70
g71
NtRp2668
(dp2669
g74
(dp2670
g82
I3
ssg83
g2664
sg76
(lp2671
g1226
asbasbasbag69
(g85
g71
NtRp2672
(dp2673
g74
(dp2674
sg83
g2626
sg76
(lp2675
g69
(g90
g71
NtRp2676
(dp2677
g74
(dp2678
g94
g95
ssg83
g2672
sg76
(lp2679
S'HTTP_ACCEPT_LANGUAGE'
p2680
asbag69
(g90
g71
NtRp2681
(dp2682
g74
(dp2683
g101
g102
ssg83
g2672
sg76
(lp2684
S':'
asbag69
(g90
g71
NtRp2685
(dp2686
g74
(dp2687
sg83
g2672
sg76
(lp2688
g69
(g70
g71
NtRp2689
(dp2690
g74
(dp2691
g82
I3
ssg83
g2685
sg76
(lp2692
g1248
asbasbasbag69
(g85
g71
NtRp2693
(dp2694
g74
(dp2695
sg83
g2626
sg76
(lp2696
g69
(g90
g71
NtRp2697
(dp2698
g74
(dp2699
g94
g95
ssg83
g2693
sg76
(lp2700
S'HTTP_CACHE_CONTROL'
p2701
asbag69
(g90
g71
NtRp2702
(dp2703
g74
(dp2704
g101
g102
ssg83
g2693
sg76
(lp2705
S':'
asbag69
(g90
g71
NtRp2706
(dp2707
g74
(dp2708
sg83
g2693
sg76
(lp2709
g69
(g70
g71
NtRp2710
(dp2711
g74
(dp2712
g82
I3
ssg83
g2706
sg76
(lp2713
g1270
asbasbasbag69
(g85
g71
NtRp2714
(dp2715
g74
(dp2716
sg83
g2626
sg76
(lp2717
g69
(g90
g71
NtRp2718
(dp2719
g74
(dp2720
g94
g95
ssg83
g2714
sg76
(lp2721
S'HTTP_CONNECTION'
p2722
asbag69
(g90
g71
NtRp2723
(dp2724
g74
(dp2725
g101
g102
ssg83
g2714
sg76
(lp2726
S':'
asbag69
(g90
g71
NtRp2727
(dp2728
g74
(dp2729
sg83
g2714
sg76
(lp2730
g69
(g70
g71
NtRp2731
(dp2732
g74
(dp2733
g82
I3
ssg83
g2727
sg76
(lp2734
g1292
asbasbasbag69
(g85
g71
NtRp2735
(dp2736
g74
(dp2737
sg83
g2626
sg76
(lp2738
g69
(g90
g71
NtRp2739
(dp2740
g74
(dp2741
g94
g95
ssg83
g2735
sg76
(lp2742
S'HTTP_COOKIE'
p2743
asbag69
(g90
g71
NtRp2744
(dp2745
g74
(dp2746
g101
g102
ssg83
g2735
sg76
(lp2747
S':'
asbag69
(g90
g71
NtRp2748
(dp2749
g74
(dp2750
sg83
g2735
sg76
(lp2751
g69
(g70
g71
NtRp2752
(dp2753
g74
(dp2754
g82
I3
ssg83
g2748
sg76
(lp2755
g1314
asbasbasbag69
(g85
g71
NtRp2756
(dp2757
g74
(dp2758
sg83
g2626
sg76
(lp2759
g69
(g90
g71
NtRp2760
(dp2761
g74
(dp2762
g94
g95
ssg83
g2756
sg76
(lp2763
S'HTTP_HOST'
p2764
asbag69
(g90
g71
NtRp2765
(dp2766
g74
(dp2767
g101
g102
ssg83
g2756
sg76
(lp2768
S':'
asbag69
(g90
g71
NtRp2769
(dp2770
g74
(dp2771
sg83
g2756
sg76
(lp2772
g69
(g70
g71
NtRp2773
(dp2774
g74
(dp2775
g82
I3
ssg83
g2769
sg76
(lp2776
g1336
asbasbasbag69
(g85
g71
NtRp2777
(dp2778
g74
(dp2779
sg83
g2626
sg76
(lp2780
g69
(g90
g71
NtRp2781
(dp2782
g74
(dp2783
g94
g95
ssg83
g2777
sg76
(lp2784
S'HTTP_IF_MODIFIED_SINCE'
p2785
asbag69
(g90
g71
NtRp2786
(dp2787
g74
(dp2788
g101
g102
ssg83
g2777
sg76
(lp2789
S':'
asbag69
(g90
g71
NtRp2790
(dp2791
g74
(dp2792
sg83
g2777
sg76
(lp2793
g69
(g70
g71
NtRp2794
(dp2795
g74
(dp2796
g82
I3
ssg83
g2790
sg76
(lp2797
g1358
asbasbasbag69
(g85
g71
NtRp2798
(dp2799
g74
(dp2800
sg83
g2626
sg76
(lp2801
g69
(g90
g71
NtRp2802
(dp2803
g74
(dp2804
g94
g95
ssg83
g2798
sg76
(lp2805
S'HTTP_USER_AGENT'
p2806
asbag69
(g90
g71
NtRp2807
(dp2808
g74
(dp2809
g101
g102
ssg83
g2798
sg76
(lp2810
S':'
asbag69
(g90
g71
NtRp2811
(dp2812
g74
(dp2813
sg83
g2798
sg76
(lp2814
g69
(g70
g71
NtRp2815
(dp2816
g74
(dp2817
g82
I3
ssg83
g2811
sg76
(lp2818
g1380
asbasbasbag69
(g85
g71
NtRp2819
(dp2820
g74
(dp2821
sg83
g2626
sg76
(lp2822
g69
(g90
g71
NtRp2823
(dp2824
g74
(dp2825
g94
g95
ssg83
g2819
sg76
(lp2826
S'PATH_INFO'
p2827
asbag69
(g90
g71
NtRp2828
(dp2829
g74
(dp2830
g101
g102
ssg83
g2819
sg76
(lp2831
S':'
asbag69
(g90
g71
NtRp2832
(dp2833
g74
(dp2834
sg83
g2819
sg76
(lp2835
g69
(g70
g71
NtRp2836
(dp2837
g74
(dp2838
g82
I3
ssg83
g2832
sg76
(lp2839
g1444
asbasbasbag69
(g85
g71
NtRp2840
(dp2841
g74
(dp2842
sg83
g2626
sg76
(lp2843
g69
(g90
g71
NtRp2844
(dp2845
g74
(dp2846
g94
g95
ssg83
g2840
sg76
(lp2847
S'QUERY_STRING'
p2848
asbag69
(g90
g71
NtRp2849
(dp2850
g74
(dp2851
g101
g102
ssg83
g2840
sg76
(lp2852
S':'
asbag69
(g90
g71
NtRp2853
(dp2854
g74
(dp2855
sg83
g2840
sg76
(lp2856
g69
(g70
g71
NtRp2857
(dp2858
g74
(dp2859
g82
I3
ssg83
g2853
sg76
(lp2860
S''
asbasbasbag69
(g85
g71
NtRp2861
(dp2862
g74
(dp2863
sg83
g2626
sg76
(lp2864
g69
(g90
g71
NtRp2865
(dp2866
g74
(dp2867
g94
g95
ssg83
g2861
sg76
(lp2868
S'REMOTE_ADDR'
p2869
asbag69
(g90
g71
NtRp2870
(dp2871
g74
(dp2872
g101
g102
ssg83
g2861
sg76
(lp2873
S':'
asbag69
(g90
g71
NtRp2874
(dp2875
g74
(dp2876
sg83
g2861
sg76
(lp2877
g69
(g70
g71
NtRp2878
(dp2879
g74
(dp2880
g82
I3
ssg83
g2874
sg76
(lp2881
g202
asbasbasbag69
(g85
g71
NtRp2882
(dp2883
g74
(dp2884
sg83
g2626
sg76
(lp2885
g69
(g90
g71
NtRp2886
(dp2887
g74
(dp2888
g94
g95
ssg83
g2882
sg76
(lp2889
S'REMOTE_PORT'
p2890
asbag69
(g90
g71
NtRp2891
(dp2892
g74
(dp2893
g101
g102
ssg83
g2882
sg76
(lp2894
S':'
asbag69
(g90
g71
NtRp2895
(dp2896
g74
(dp2897
sg83
g2882
sg76
(lp2898
g69
(g70
g71
NtRp2899
(dp2900
g74
(dp2901
g82
I3
ssg83
g2895
sg76
(lp2902
g1508
asbasbasbag69
(g85
g71
NtRp2903
(dp2904
g74
(dp2905
sg83
g2626
sg76
(lp2906
g69
(g90
g71
NtRp2907
(dp2908
g74
(dp2909
g94
g95
ssg83
g2903
sg76
(lp2910
S'REQUEST_METHOD'
p2911
asbag69
(g90
g71
NtRp2912
(dp2913
g74
(dp2914
g101
g102
ssg83
g2903
sg76
(lp2915
S':'
asbag69
(g90
g71
NtRp2916
(dp2917
g74
(dp2918
sg83
g2903
sg76
(lp2919
g69
(g70
g71
NtRp2920
(dp2921
g74
(dp2922
g82
I3
ssg83
g2916
sg76
(lp2923
g1530
asbasbasbag69
(g85
g71
NtRp2924
(dp2925
g74
(dp2926
sg83
g2626
sg76
(lp2927
g69
(g90
g71
NtRp2928
(dp2929
g74
(dp2930
g94
g95
ssg83
g2924
sg76
(lp2931
S'REQUEST_URI'
p2932
asbag69
(g90
g71
NtRp2933
(dp2934
g74
(dp2935
g101
g102
ssg83
g2924
sg76
(lp2936
S':'
asbag69
(g90
g71
NtRp2937
(dp2938
g74
(dp2939
sg83
g2924
sg76
(lp2940
g69
(g70
g71
NtRp2941
(dp2942
g74
(dp2943
g82
I3
ssg83
g2937
sg76
(lp2944
g1552
asbasbasbag69
(g85
g71
NtRp2945
(dp2946
g74
(dp2947
sg83
g2626
sg76
(lp2948
g69
(g90
g71
NtRp2949
(dp2950
g74
(dp2951
g94
g95
ssg83
g2945
sg76
(lp2952
S'SCRIPT_NAME'
p2953
asbag69
(g90
g71
NtRp2954
(dp2955
g74
(dp2956
g101
g102
ssg83
g2945
sg76
(lp2957
S':'
asbag69
(g90
g71
NtRp2958
(dp2959
g74
(dp2960
sg83
g2945
sg76
(lp2961
g69
(g70
g71
NtRp2962
(dp2963
g74
(dp2964
g82
I3
ssg83
g2958
sg76
(lp2965
S''
asbasbasbag69
(g85
g71
NtRp2966
(dp2967
g74
(dp2968
sg83
g2626
sg76
(lp2969
g69
(g90
g71
NtRp2970
(dp2971
g74
(dp2972
g94
g95
ssg83
g2966
sg76
(lp2973
S'SERVER_NAME'
p2974
asbag69
(g90
g71
NtRp2975
(dp2976
g74
(dp2977
g101
g102
ssg83
g2966
sg76
(lp2978
S':'
asbag69
(g90
g71
NtRp2979
(dp2980
g74
(dp2981
sg83
g2966
sg76
(lp2982
g69
(g70
g71
NtRp2983
(dp2984
g74
(dp2985
g82
I3
ssg83
g2979
sg76
(lp2986
g1595
asbasbasbag69
(g85
g71
NtRp2987
(dp2988
g74
(dp2989
sg83
g2626
sg76
(lp2990
g69
(g90
g71
NtRp2991
(dp2992
g74
(dp2993
g94
g95
ssg83
g2987
sg76
(lp2994
S'SERVER_PORT'
p2995
asbag69
(g90
g71
NtRp2996
(dp2997
g74
(dp2998
g101
g102
ssg83
g2987
sg76
(lp2999
S':'
asbag69
(g90
g71
NtRp3000
(dp3001
g74
(dp3002
sg83
g2987
sg76
(lp3003
g69
(g70
g71
NtRp3004
(dp3005
g74
(dp3006
g82
I3
ssg83
g3000
sg76
(lp3007
g1617
asbasbasbag69
(g85
g71
NtRp3008
(dp3009
g74
(dp3010
sg83
g2626
sg76
(lp3011
g69
(g90
g71
NtRp3012
(dp3013
g74
(dp3014
g94
g95
ssg83
g3008
sg76
(lp3015
S'SERVER_PROTOCOL'
p3016
asbag69
(g90
g71
NtRp3017
(dp3018
g74
(dp3019
g101
g102
ssg83
g3008
sg76
(lp3020
S':'
asbag69
(g90
g71
NtRp3021
(dp3022
g74
(dp3023
sg83
g3008
sg76
(lp3024
g69
(g70
g71
NtRp3025
(dp3026
g74
(dp3027
g82
I3
ssg83
g3021
sg76
(lp3028
g1639
asbasbasbag69
(g85
g71
NtRp3029
(dp3030
g74
(dp3031
sg83
g2626
sg76
(lp3032
g69
(g90
g71
NtRp3033
(dp3034
g74
(dp3035
g94
g95
ssg83
g3029
sg76
(lp3036
S'SERVER_SOFTWARE'
p3037
asbag69
(g90
g71
NtRp3038
(dp3039
g74
(dp3040
g101
g102
ssg83
g3029
sg76
(lp3041
S':'
asbag69
(g90
g71
NtRp3042
(dp3043
g74
(dp3044
sg83
g3029
sg76
(lp3045
g69
(g70
g71
NtRp3046
(dp3047
g74
(dp3048
g82
I3
ssg83
g3042
sg76
(lp3049
g1661
asbasbasbag69
(g85
g71
NtRp3050
(dp3051
g74
(dp3052
sg83
g2626
sg76
(lp3053
g69
(g90
g71
NtRp3054
(dp3055
g74
(dp3056
g94
g95
ssg83
g3050
sg76
(lp3057
S'WEB2PY_ORIGINAL_URI'
p3058
asbag69
(g90
g71
NtRp3059
(dp3060
g74
(dp3061
g101
g102
ssg83
g3050
sg76
(lp3062
S':'
asbag69
(g90
g71
NtRp3063
(dp3064
g74
(dp3065
sg83
g3050
sg76
(lp3066
g69
(g70
g71
NtRp3067
(dp3068
g74
(dp3069
g82
I3
ssg83
g3063
sg76
(lp3070
g1444
asbasbasbag69
(g85
g71
NtRp3071
(dp3072
g74
(dp3073
sg83
g2626
sg76
(lp3074
g69
(g90
g71
NtRp3075
(dp3076
g74
(dp3077
g94
g95
ssg83
g3071
sg76
(lp3078
S'wsgi.errors'
p3079
asbag69
(g90
g71
NtRp3080
(dp3081
g74
(dp3082
g101
g102
ssg83
g3071
sg76
(lp3083
S':'
asbag69
(g90
g71
NtRp3084
(dp3085
g74
(dp3086
sg83
g3071
sg76
(lp3087
g69
(g70
g71
NtRp3088
(dp3089
g74
(dp3090
g82
I3
ssg83
g3084
sg76
(lp3091
S"<open file '<stderr>', mode 'w' at 0x013750D0>"
p3092
asbasbasbag69
(g85
g71
NtRp3093
(dp3094
g74
(dp3095
sg83
g2626
sg76
(lp3096
g69
(g90
g71
NtRp3097
(dp3098
g74
(dp3099
g94
g95
ssg83
g3093
sg76
(lp3100
S'wsgi.file_wrapper'
p3101
asbag69
(g90
g71
NtRp3102
(dp3103
g74
(dp3104
g101
g102
ssg83
g3093
sg76
(lp3105
S':'
asbag69
(g90
g71
NtRp3106
(dp3107
g74
(dp3108
sg83
g3093
sg76
(lp3109
g69
(g70
g71
NtRp3110
(dp3111
g74
(dp3112
g82
I3
ssg83
g3106
sg76
(lp3113
S'<class wsgiref.util.FileWrapper at 0x029F83B0>'
p3114
asbasbasbag69
(g85
g71
NtRp3115
(dp3116
g74
(dp3117
sg83
g2626
sg76
(lp3118
g69
(g90
g71
NtRp3119
(dp3120
g74
(dp3121
g94
g95
ssg83
g3115
sg76
(lp3122
S'wsgi.input'
p3123
asbag69
(g90
g71
NtRp3124
(dp3125
g74
(dp3126
g101
g102
ssg83
g3115
sg76
(lp3127
S':'
asbag69
(g90
g71
NtRp3128
(dp3129
g74
(dp3130
sg83
g3115
sg76
(lp3131
g69
(g70
g71
NtRp3132
(dp3133
g74
(dp3134
g82
I3
ssg83
g3128
sg76
(lp3135
S'<cStringIO.StringO object at 0x02DD4DE0>'
p3136
asbasbasbag69
(g85
g71
NtRp3137
(dp3138
g74
(dp3139
sg83
g2626
sg76
(lp3140
g69
(g90
g71
NtRp3141
(dp3142
g74
(dp3143
g94
g95
ssg83
g3137
sg76
(lp3144
S'wsgi.multiprocess'
p3145
asbag69
(g90
g71
NtRp3146
(dp3147
g74
(dp3148
g101
g102
ssg83
g3137
sg76
(lp3149
S':'
asbag69
(g90
g71
NtRp3150
(dp3151
g74
(dp3152
sg83
g3137
sg76
(lp3153
g69
(g70
g71
NtRp3154
(dp3155
g74
(dp3156
g82
I3
ssg83
g3150
sg76
(lp3157
g112
asbasbasbag69
(g85
g71
NtRp3158
(dp3159
g74
(dp3160
sg83
g2626
sg76
(lp3161
g69
(g90
g71
NtRp3162
(dp3163
g74
(dp3164
g94
g95
ssg83
g3158
sg76
(lp3165
S'wsgi.multithread'
p3166
asbag69
(g90
g71
NtRp3167
(dp3168
g74
(dp3169
g101
g102
ssg83
g3158
sg76
(lp3170
S':'
asbag69
(g90
g71
NtRp3171
(dp3172
g74
(dp3173
sg83
g3158
sg76
(lp3174
g69
(g70
g71
NtRp3175
(dp3176
g74
(dp3177
g82
I3
ssg83
g3171
sg76
(lp3178
g1899
asbasbasbag69
(g85
g71
NtRp3179
(dp3180
g74
(dp3181
sg83
g2626
sg76
(lp3182
g69
(g90
g71
NtRp3183
(dp3184
g74
(dp3185
g94
g95
ssg83
g3179
sg76
(lp3186
S'wsgi.run_once'
p3187
asbag69
(g90
g71
NtRp3188
(dp3189
g74
(dp3190
g101
g102
ssg83
g3179
sg76
(lp3191
S':'
asbag69
(g90
g71
NtRp3192
(dp3193
g74
(dp3194
sg83
g3179
sg76
(lp3195
g69
(g70
g71
NtRp3196
(dp3197
g74
(dp3198
g82
I3
ssg83
g3192
sg76
(lp3199
g112
asbasbasbag69
(g85
g71
NtRp3200
(dp3201
g74
(dp3202
sg83
g2626
sg76
(lp3203
g69
(g90
g71
NtRp3204
(dp3205
g74
(dp3206
g94
g95
ssg83
g3200
sg76
(lp3207
S'wsgi.url_scheme'
p3208
asbag69
(g90
g71
NtRp3209
(dp3210
g74
(dp3211
g101
g102
ssg83
g3200
sg76
(lp3212
S':'
asbag69
(g90
g71
NtRp3213
(dp3214
g74
(dp3215
sg83
g3200
sg76
(lp3216
g69
(g70
g71
NtRp3217
(dp3218
g74
(dp3219
g82
I3
ssg83
g3213
sg76
(lp3220
g1942
asbasbasbag69
(g85
g71
NtRp3221
(dp3222
g74
(dp3223
sg83
g2626
sg76
(lp3224
g69
(g90
g71
NtRp3225
(dp3226
g74
(dp3227
g94
g95
ssg83
g3221
sg76
(lp3228
S'wsgi.version'
p3229
asbag69
(g90
g71
NtRp3230
(dp3231
g74
(dp3232
g101
g102
ssg83
g3221
sg76
(lp3233
S':'
asbag69
(g90
g71
NtRp3234
(dp3235
g74
(dp3236
sg83
g3221
sg76
(lp3237
g69
(g70
g71
NtRp3238
(dp3239
g74
(dp3240
g82
I3
ssg83
g3234
sg76
(lp3241
S'1'
asbasbasbasbasbasbasbasbasbasbasbasbasbsS'frames'
p3242
(lp3243
(dp3244
S'file'
p3245
S'c:\\Users\\rochacbruno\\jul12\\cursojulho12\\web2py\\gluon\\restricted.py'
p3246
sS'dump'
p3247
(dp3248
S'environment'
p3249
S"{'A': <class 'gluon.html.A'>, 'Auth': <class 'gluon.tools.Auth'>, 'B': <class 'gluon.html.B'>, 'BEAUTIFY': <class 'gluon.html.BEAUTIFY'>, 'BODY': <class 'gluon.html.BODY'>, 'BR': <class 'gluon.html.BR'>, 'BUTTON': <class 'gluon.html.BUTTON'>, 'CAT': <class 'gluon.html.CAT'>, 'CENTER': <class 'gluon.html.CENTER'>, 'CLEANUP': <class 'gluon.validators.CLEANUP'>, ...}"
p3250
sS'ccode'
p3251
S'<code object <module> at 054E8728, file "c:\\User...cations\\ecommerce\\views\\home/index.html", line 1>'
p3252
ssS'lnum'
p3253
I205
sS'lines'
p3254
(dp3255
I200
S'    try:'
p3256
sI201
S'        if type(code) == types.CodeType:'
p3257
sI202
S'            ccode = code'
p3258
sI203
S'        else:'
p3259
sI204
S'            ccode = compile2(code,layer)'
p3260
sI205
S'        exec ccode in environment'
p3261
sI206
S'    except HTTP:'
p3262
sI207
S'        raise'
p3263
sI208
S'    except RestrictedError:'
p3264
sI209
S'        # do not encapsulate (obfuscate) the original RestrictedError'
p3265
ssS'call'
p3266
S'(code=\'response.write(\\\'<!DOCTYPE html>\\\\r\\\\n<html lang="e...r -->\\\\r\\\\n  </body>\\\\r\\\\n</html>\\\\r\\\\n\\\', escape=False)\', environment={\'A\': <class \'gluon.html.A\'>, \'Auth\': <class \'gluon.tools.Auth\'>, \'B\': <class \'gluon.html.B\'>, \'BEAUTIFY\': <class \'gluon.html.BEAUTIFY\'>, \'BODY\': <class \'gluon.html.BODY\'>, \'BR\': <class \'gluon.html.BR\'>, \'BUTTON\': <class \'gluon.html.BUTTON\'>, \'CAT\': <class \'gluon.html.CAT\'>, \'CENTER\': <class \'gluon.html.CENTER\'>, \'CLEANUP\': <class \'gluon.validators.CLEANUP\'>, ...}, layer=r\'c:\\Users\\rochacbruno\\jul12\\cursojulho12\\web2py\\applications\\ecommerce\\views\\home/index.html\')'
p3267
sS'func'
p3268
S'restricted'
p3269
sa(dp3270
g3245
S'c:\\Users\\rochacbruno\\jul12\\cursojulho12\\web2py\\applications\\ecommerce\\views\\home\\index.html'
p3271
sg3247
(dp3272
sg3253
I61
sg3254
(dp3273
I52
S"response.write('\\r\\n    </div>\\t\\r\\n', escape=False)"
p3274
sI53
S"response.write('\\r\\n\\r\\n      ', escape=False)"
p3275
sI54
S"response.write('\\r\\n    <h1> GALLERY </h1>\\r\\n    ', escape=False)"
p3276
sI55
S'get_thumbnails(products, size=(260, 180), box="span3")'
p3277
sI56
S"response.write('\\r\\n', escape=False)"
p3278
sI57
S"response.write('\\r\\n\\r\\n      ', escape=False)"
p3279
sI58
S"#include '../static/fail.html'"
p3280
sI59
S"response.write('\\r\\n      <hr>\\r\\n      \\r\\n      ', escape=False)"
p3281
sI60
S"response.write('\\r\\n\\r\\n', escape=False)"
p3282
sI61
S'response.write(UL(*[LI(A(menu["title"], _href=URL(menu["url"]))) for menu in meus_menus]))'
p3283
sI62
S"response.write('\\r\\n\\r\\n', escape=False)"
p3284
sI63
S"response.write('\\r\\n    </div> <!-- /container -->\\r\\n  </body>\\r\\n</html>\\r\\n', escape=False)"
p3285
ssg3266
S'()'
p3286
sg3268
S'<module>'
p3287
sa(dp3288
g3245
S'c:\\Users\\rochacbruno\\jul12\\cursojulho12\\web2py\\gluon\\html.py'
p3289
sg3247
(dp3290
S'function'
p3291
S"''"
p3292
sS'application'
p3293
S"'ecommerce'"
p3294
sS'controller'
p3295
S"'home'"
p3296
sS'builtinSyntaxError'
p3297
S"<type 'exceptions.SyntaxError'>"
p3298
ssg3253
I283
sg3254
(dp3299
I278
S"            function, extension = function.rsplit('.', 1)"
p3300
sI279
S''
sI280
S"    function2 = '%s.%s' % (function,extension or 'html')"
p3301
sI281
S''
sI282
S'    if not (application and controller and function):'
p3302
sI283
S"        raise SyntaxError, 'not enough information to build the url (%s %s %s)' % (application, controller, function)"
p3303
sI284
S''
sI285
S'    if args:'
p3304
sI286
S'        if url_encode:'
p3305
sI287
S'            if encode_embedded_slash:'
p3306
ssg3266
S"(a=None, c=None, f='', r=<Storage {'body': <cStringIO.StringO object at 0..._vars': <Storage {}>, 'post_vars': <Storage {}>}>, args=[], vars={}, anchor='', extension=None, env=<Storage {'debugging': False, 'http_user_agent':...[]), 'query_string': '', 'wsgi_run_once': False}>, hmac_key=None, hash_vars=True, salt=None, user_signature=None, scheme=None, host=None, port=None, encode_embedded_slash=False, url_encode=True)"
p3307
sg3268
S'URL'
p3308
sasS'pyver'
p3309
S'Python 2.7.2: c:\\Python27\\python.exe'
p3310
sS'session'
p3311
g69
(g70
g71
NtRp3312
(dp3313
g74
(dp3314
sg76
(lp3315
g69
(g78
g71
NtRp3316
(dp3317
g74
(dp3318
g82
I5
ssg83
Nsg76
(lp3319
sbasbsS'etype'
p3320
S"<type 'exceptions.SyntaxError'>"
p3321
sS'date'
p3322
S'Sun Aug 12 11:17:38 2012'
p3323
sS'response'
p3324
g69
(g70
g71
NtRp3325
(dp3326
g74
(dp3327
sg76
(lp3328
g69
(g78
g71
NtRp3329
(dp3330
g74
(dp3331
g82
I5
ssg83
Nsg76
(lp3332
g69
(g85
g71
NtRp3333
(dp3334
g74
(dp3335
sg83
g3329
sg76
(lp3336
g69
(g90
g71
NtRp3337
(dp3338
g74
(dp3339
g94
g95
ssg83
g3333
sg76
(lp3340
g167
asbag69
(g90
g71
NtRp3341
(dp3342
g74
(dp3343
g101
g102
ssg83
g3333
sg76
(lp3344
S':'
asbag69
(g90
g71
NtRp3345
(dp3346
g74
(dp3347
sg83
g3333
sg76
(lp3348
g69
(g70
g71
NtRp3349
(dp3350
g74
(dp3351
g82
I5
ssg83
g3345
sg76
(lp3352
S'<cStringIO.StringO object at 0x02DD4A20>'
p3353
asbasbasbag69
(g85
g71
NtRp3354
(dp3355
g74
(dp3356
sg83
g3329
sg76
(lp3357
g69
(g90
g71
NtRp3358
(dp3359
g74
(dp3360
g94
g95
ssg83
g3354
sg76
(lp3361
g233
asbag69
(g90
g71
NtRp3362
(dp3363
g74
(dp3364
g101
g102
ssg83
g3354
sg76
(lp3365
S':'
asbag69
(g90
g71
NtRp3366
(dp3367
g74
(dp3368
sg83
g3354
sg76
(lp3369
g69
(g70
g71
NtRp3370
(dp3371
g74
(dp3372
g82
I5
ssg83
g3366
sg76
(lp3373
g69
(g78
g71
NtRp3374
(dp3375
g74
(dp3376
g82
I4
ssg83
Nsg76
(lp3377
g69
(g85
g71
NtRp3378
(dp3379
g74
(dp3380
sg83
g3374
sg76
(lp3381
g69
(g90
g71
NtRp3382
(dp3383
g74
(dp3384
g94
g95
ssg83
g3378
sg76
(lp3385
S'session_id_ecommerce'
p3386
asbag69
(g90
g71
NtRp3387
(dp3388
g74
(dp3389
g101
g102
ssg83
g3378
sg76
(lp3390
S':'
asbag69
(g90
g71
NtRp3391
(dp3392
g74
(dp3393
sg83
g3378
sg76
(lp3394
g69
(g70
g71
NtRp3395
(dp3396
g74
(dp3397
g82
I4
ssg83
g3391
sg76
(lp3398
g465
ag69
(g78
g71
NtRp3399
(dp3400
g74
(dp3401
g82
I3
ssg83
Nsg76
(lp3402
g69
(g85
g71
NtRp3403
(dp3404
g74
(dp3405
sg83
g3399
sg76
(lp3406
g69
(g90
g71
NtRp3407
(dp3408
g74
(dp3409
g94
g95
ssg83
g3403
sg76
(lp3410
g284
asbag69
(g90
g71
NtRp3411
(dp3412
g74
(dp3413
g101
g102
ssg83
g3403
sg76
(lp3414
S':'
asbag69
(g90
g71
NtRp3415
(dp3416
g74
(dp3417
sg83
g3403
sg76
(lp3418
g69
(g70
g71
NtRp3419
(dp3420
g74
(dp3421
g82
I3
ssg83
g3415
sg76
(lp3422
S''
asbasbasbag69
(g85
g71
NtRp3423
(dp3424
g74
(dp3425
sg83
g3399
sg76
(lp3426
g69
(g90
g71
NtRp3427
(dp3428
g74
(dp3429
g94
g95
ssg83
g3423
sg76
(lp3430
g305
asbag69
(g90
g71
NtRp3431
(dp3432
g74
(dp3433
g101
g102
ssg83
g3423
sg76
(lp3434
S':'
asbag69
(g90
g71
NtRp3435
(dp3436
g74
(dp3437
sg83
g3423
sg76
(lp3438
g69
(g70
g71
NtRp3439
(dp3440
g74
(dp3441
g82
I3
ssg83
g3435
sg76
(lp3442
S''
asbasbasbag69
(g85
g71
NtRp3443
(dp3444
g74
(dp3445
sg83
g3399
sg76
(lp3446
g69
(g90
g71
NtRp3447
(dp3448
g74
(dp3449
g94
g95
ssg83
g3443
sg76
(lp3450
g326
asbag69
(g90
g71
NtRp3451
(dp3452
g74
(dp3453
g101
g102
ssg83
g3443
sg76
(lp3454
S':'
asbag69
(g90
g71
NtRp3455
(dp3456
g74
(dp3457
sg83
g3443
sg76
(lp3458
g69
(g70
g71
NtRp3459
(dp3460
g74
(dp3461
g82
I3
ssg83
g3455
sg76
(lp3462
S''
asbasbasbag69
(g85
g71
NtRp3463
(dp3464
g74
(dp3465
sg83
g3399
sg76
(lp3466
g69
(g90
g71
NtRp3467
(dp3468
g74
(dp3469
g94
g95
ssg83
g3463
sg76
(lp3470
g347
asbag69
(g90
g71
NtRp3471
(dp3472
g74
(dp3473
g101
g102
ssg83
g3463
sg76
(lp3474
S':'
asbag69
(g90
g71
NtRp3475
(dp3476
g74
(dp3477
sg83
g3463
sg76
(lp3478
g69
(g70
g71
NtRp3479
(dp3480
g74
(dp3481
g82
I3
ssg83
g3475
sg76
(lp3482
S''
asbasbasbag69
(g85
g71
NtRp3483
(dp3484
g74
(dp3485
sg83
g3399
sg76
(lp3486
g69
(g90
g71
NtRp3487
(dp3488
g74
(dp3489
g94
g95
ssg83
g3483
sg76
(lp3490
g368
asbag69
(g90
g71
NtRp3491
(dp3492
g74
(dp3493
g101
g102
ssg83
g3483
sg76
(lp3494
S':'
asbag69
(g90
g71
NtRp3495
(dp3496
g74
(dp3497
sg83
g3483
sg76
(lp3498
g69
(g70
g71
NtRp3499
(dp3500
g74
(dp3501
g82
I3
ssg83
g3495
sg76
(lp3502
S''
asbasbasbag69
(g85
g71
NtRp3503
(dp3504
g74
(dp3505
sg83
g3399
sg76
(lp3506
g69
(g90
g71
NtRp3507
(dp3508
g74
(dp3509
g94
g95
ssg83
g3503
sg76
(lp3510
g389
asbag69
(g90
g71
NtRp3511
(dp3512
g74
(dp3513
g101
g102
ssg83
g3503
sg76
(lp3514
S':'
asbag69
(g90
g71
NtRp3515
(dp3516
g74
(dp3517
sg83
g3503
sg76
(lp3518
g69
(g70
g71
NtRp3519
(dp3520
g74
(dp3521
g82
I3
ssg83
g3515
sg76
(lp3522
S'/'
asbasbasbag69
(g85
g71
NtRp3523
(dp3524
g74
(dp3525
sg83
g3399
sg76
(lp3526
g69
(g90
g71
NtRp3527
(dp3528
g74
(dp3529
g94
g95
ssg83
g3523
sg76
(lp3530
g410
asbag69
(g90
g71
NtRp3531
(dp3532
g74
(dp3533
g101
g102
ssg83
g3523
sg76
(lp3534
S':'
asbag69
(g90
g71
NtRp3535
(dp3536
g74
(dp3537
sg83
g3523
sg76
(lp3538
g69
(g70
g71
NtRp3539
(dp3540
g74
(dp3541
g82
I3
ssg83
g3535
sg76
(lp3542
S''
asbasbasbag69
(g85
g71
NtRp3543
(dp3544
g74
(dp3545
sg83
g3399
sg76
(lp3546
g69
(g90
g71
NtRp3547
(dp3548
g74
(dp3549
g94
g95
ssg83
g3543
sg76
(lp3550
g431
asbag69
(g90
g71
NtRp3551
(dp3552
g74
(dp3553
g101
g102
ssg83
g3543
sg76
(lp3554
S':'
asbag69
(g90
g71
NtRp3555
(dp3556
g74
(dp3557
sg83
g3543
sg76
(lp3558
g69
(g70
g71
NtRp3559
(dp3560
g74
(dp3561
g82
I3
ssg83
g3555
sg76
(lp3562
S''
asbasbasbasbasbasbasbasbasbasbasbag69
(g85
g71
NtRp3563
(dp3564
g74
(dp3565
sg83
g3329
sg76
(lp3566
g69
(g90
g71
NtRp3567
(dp3568
g74
(dp3569
g94
g95
ssg83
g3563
sg76
(lp3570
S'delimiters'
p3571
asbag69
(g90
g71
NtRp3572
(dp3573
g74
(dp3574
g101
g102
ssg83
g3563
sg76
(lp3575
S':'
asbag69
(g90
g71
NtRp3576
(dp3577
g74
(dp3578
sg83
g3563
sg76
(lp3579
g69
(g70
g71
NtRp3580
(dp3581
g74
(dp3582
g82
I5
ssg83
g3576
sg76
(lp3583
g69
(g78
g71
NtRp3584
(dp3585
g74
(dp3586
g82
I4
ssg83
Nsg76
(lp3587
g69
(g85
g71
NtRp3588
(dp3589
g74
(dp3590
sg83
g3584
sg76
(lp3591
g69
(g90
g71
NtRp3592
(dp3593
g74
(dp3594
sg83
g3588
sg76
(lp3595
g69
(g70
g71
NtRp3596
(dp3597
g74
(dp3598
g82
I4
ssg83
g3592
sg76
(lp3599
S'{{'
p3600
asbasbasbag69
(g85
g71
NtRp3601
(dp3602
g74
(dp3603
sg83
g3584
sg76
(lp3604
g69
(g90
g71
NtRp3605
(dp3606
g74
(dp3607
sg83
g3601
sg76
(lp3608
g69
(g70
g71
NtRp3609
(dp3610
g74
(dp3611
g82
I4
ssg83
g3605
sg76
(lp3612
S'}}'
p3613
asbasbasbasbasbasbasbag69
(g85
g71
NtRp3614
(dp3615
g74
(dp3616
sg83
g3329
sg76
(lp3617
g69
(g90
g71
NtRp3618
(dp3619
g74
(dp3620
g94
g95
ssg83
g3614
sg76
(lp3621
S'description'
p3622
asbag69
(g90
g71
NtRp3623
(dp3624
g74
(dp3625
g101
g102
ssg83
g3614
sg76
(lp3626
S':'
asbag69
(g90
g71
NtRp3627
(dp3628
g74
(dp3629
sg83
g3614
sg76
(lp3630
g69
(g70
g71
NtRp3631
(dp3632
g74
(dp3633
g82
I5
ssg83
g3627
sg76
(lp3634
S'Ecommerce'
p3635
asbasbasbag69
(g85
g71
NtRp3636
(dp3637
g74
(dp3638
sg83
g3329
sg76
(lp3639
g69
(g90
g71
NtRp3640
(dp3641
g74
(dp3642
g94
g95
ssg83
g3636
sg76
(lp3643
S'files'
p3644
asbag69
(g90
g71
NtRp3645
(dp3646
g74
(dp3647
g101
g102
ssg83
g3636
sg76
(lp3648
S':'
asbag69
(g90
g71
NtRp3649
(dp3650
g74
(dp3651
sg83
g3636
sg76
(lp3652
g69
(g70
g71
NtRp3653
(dp3654
g74
(dp3655
g82
I5
ssg83
g3649
sg76
(lp3656
g69
(g78
g71
NtRp3657
(dp3658
g74
(dp3659
g82
I4
ssg83
Nsg76
(lp3660
sbasbasbasbag69
(g85
g71
NtRp3661
(dp3662
g74
(dp3663
sg83
g3329
sg76
(lp3664
g69
(g90
g71
NtRp3665
(dp3666
g74
(dp3667
g94
g95
ssg83
g3661
sg76
(lp3668
S'flash'
p3669
asbag69
(g90
g71
NtRp3670
(dp3671
g74
(dp3672
g101
g102
ssg83
g3661
sg76
(lp3673
S':'
asbag69
(g90
g71
NtRp3674
(dp3675
g74
(dp3676
sg83
g3661
sg76
(lp3677
g69
(g70
g71
NtRp3678
(dp3679
g74
(dp3680
g82
I5
ssg83
g3674
sg76
(lp3681
S''
asbasbasbag69
(g85
g71
NtRp3682
(dp3683
g74
(dp3684
sg83
g3329
sg76
(lp3685
g69
(g90
g71
NtRp3686
(dp3687
g74
(dp3688
g94
g95
ssg83
g3682
sg76
(lp3689
S'generic_patterns'
p3690
asbag69
(g90
g71
NtRp3691
(dp3692
g74
(dp3693
g101
g102
ssg83
g3682
sg76
(lp3694
S':'
asbag69
(g90
g71
NtRp3695
(dp3696
g74
(dp3697
sg83
g3682
sg76
(lp3698
g69
(g70
g71
NtRp3699
(dp3700
g74
(dp3701
g82
I5
ssg83
g3695
sg76
(lp3702
g69
(g78
g71
NtRp3703
(dp3704
g74
(dp3705
g82
I4
ssg83
Nsg76
(lp3706
g69
(g85
g71
NtRp3707
(dp3708
g74
(dp3709
sg83
g3703
sg76
(lp3710
g69
(g90
g71
NtRp3711
(dp3712
g74
(dp3713
sg83
g3707
sg76
(lp3714
g69
(g70
g71
NtRp3715
(dp3716
g74
(dp3717
g82
I4
ssg83
g3711
sg76
(lp3718
S'*'
asbasbasbasbasbasbasbag69
(g85
g71
NtRp3719
(dp3720
g74
(dp3721
sg83
g3329
sg76
(lp3722
g69
(g90
g71
NtRp3723
(dp3724
g74
(dp3725
g94
g95
ssg83
g3719
sg76
(lp3726
S'headers'
p3727
asbag69
(g90
g71
NtRp3728
(dp3729
g74
(dp3730
g101
g102
ssg83
g3719
sg76
(lp3731
S':'
asbag69
(g90
g71
NtRp3732
(dp3733
g74
(dp3734
sg83
g3719
sg76
(lp3735
g69
(g70
g71
NtRp3736
(dp3737
g74
(dp3738
g82
I5
ssg83
g3732
sg76
(lp3739
g69
(g78
g71
NtRp3740
(dp3741
g74
(dp3742
g82
I4
ssg83
Nsg76
(lp3743
g69
(g85
g71
NtRp3744
(dp3745
g74
(dp3746
sg83
g3740
sg76
(lp3747
g69
(g90
g71
NtRp3748
(dp3749
g74
(dp3750
g94
g95
ssg83
g3744
sg76
(lp3751
S'Cache-Control'
p3752
asbag69
(g90
g71
NtRp3753
(dp3754
g74
(dp3755
g101
g102
ssg83
g3744
sg76
(lp3756
S':'
asbag69
(g90
g71
NtRp3757
(dp3758
g74
(dp3759
sg83
g3744
sg76
(lp3760
g69
(g70
g71
NtRp3761
(dp3762
g74
(dp3763
g82
I4
ssg83
g3757
sg76
(lp3764
S'no-store, no-cache, must-revalidate, post-check=0, pre-check=0'
p3765
asbasbasbag69
(g85
g71
NtRp3766
(dp3767
g74
(dp3768
sg83
g3740
sg76
(lp3769
g69
(g90
g71
NtRp3770
(dp3771
g74
(dp3772
g94
g95
ssg83
g3766
sg76
(lp3773
S'Content-Type'
p3774
asbag69
(g90
g71
NtRp3775
(dp3776
g74
(dp3777
g101
g102
ssg83
g3766
sg76
(lp3778
S':'
asbag69
(g90
g71
NtRp3779
(dp3780
g74
(dp3781
sg83
g3766
sg76
(lp3782
g69
(g70
g71
NtRp3783
(dp3784
g74
(dp3785
g82
I4
ssg83
g3779
sg76
(lp3786
S'text/html; charset=utf-8'
p3787
asbasbasbag69
(g85
g71
NtRp3788
(dp3789
g74
(dp3790
sg83
g3740
sg76
(lp3791
g69
(g90
g71
NtRp3792
(dp3793
g74
(dp3794
g94
g95
ssg83
g3788
sg76
(lp3795
S'Expires'
p3796
asbag69
(g90
g71
NtRp3797
(dp3798
g74
(dp3799
g101
g102
ssg83
g3788
sg76
(lp3800
S':'
asbag69
(g90
g71
NtRp3801
(dp3802
g74
(dp3803
sg83
g3788
sg76
(lp3804
g69
(g70
g71
NtRp3805
(dp3806
g74
(dp3807
g82
I4
ssg83
g3801
sg76
(lp3808
S'Sun, 12 Aug 2012 14:17:38 GMT'
p3809
asbasbasbag69
(g85
g71
NtRp3810
(dp3811
g74
(dp3812
sg83
g3740
sg76
(lp3813
g69
(g90
g71
NtRp3814
(dp3815
g74
(dp3816
g94
g95
ssg83
g3810
sg76
(lp3817
S'Pragma'
p3818
asbag69
(g90
g71
NtRp3819
(dp3820
g74
(dp3821
g101
g102
ssg83
g3810
sg76
(lp3822
S':'
asbag69
(g90
g71
NtRp3823
(dp3824
g74
(dp3825
sg83
g3810
sg76
(lp3826
g69
(g70
g71
NtRp3827
(dp3828
g74
(dp3829
g82
I4
ssg83
g3823
sg76
(lp3830
S'no-cache'
p3831
asbasbasbag69
(g85
g71
NtRp3832
(dp3833
g74
(dp3834
sg83
g3740
sg76
(lp3835
g69
(g90
g71
NtRp3836
(dp3837
g74
(dp3838
g94
g95
ssg83
g3832
sg76
(lp3839
S'X-Powered-By'
p3840
asbag69
(g90
g71
NtRp3841
(dp3842
g74
(dp3843
g101
g102
ssg83
g3832
sg76
(lp3844
S':'
asbag69
(g90
g71
NtRp3845
(dp3846
g74
(dp3847
sg83
g3832
sg76
(lp3848
g69
(g70
g71
NtRp3849
(dp3850
g74
(dp3851
g82
I4
ssg83
g3845
sg76
(lp3852
S'web2py'
p3853
asbasbasbasbasbasbasbag69
(g85
g71
NtRp3854
(dp3855
g74
(dp3856
sg83
g3329
sg76
(lp3857
g69
(g90
g71
NtRp3858
(dp3859
g74
(dp3860
g94
g95
ssg83
g3854
sg76
(lp3861
S'menu'
p3862
asbag69
(g90
g71
NtRp3863
(dp3864
g74
(dp3865
g101
g102
ssg83
g3854
sg76
(lp3866
S':'
asbag69
(g90
g71
NtRp3867
(dp3868
g74
(dp3869
sg83
g3854
sg76
(lp3870
g69
(g70
g71
NtRp3871
(dp3872
g74
(dp3873
g82
I5
ssg83
g3867
sg76
(lp3874
g69
(g78
g71
NtRp3875
(dp3876
g74
(dp3877
g82
I4
ssg83
Nsg76
(lp3878
sbasbasbasbag69
(g85
g71
NtRp3879
(dp3880
g74
(dp3881
sg83
g3329
sg76
(lp3882
g69
(g90
g71
NtRp3883
(dp3884
g74
(dp3885
g94
g95
ssg83
g3879
sg76
(lp3886
S'meta'
p3887
asbag69
(g90
g71
NtRp3888
(dp3889
g74
(dp3890
g101
g102
ssg83
g3879
sg76
(lp3891
S':'
asbag69
(g90
g71
NtRp3892
(dp3893
g74
(dp3894
sg83
g3879
sg76
(lp3895
g69
(g70
g71
NtRp3896
(dp3897
g74
(dp3898
g82
I5
ssg83
g3892
sg76
(lp3899
g69
(g78
g71
NtRp3900
(dp3901
g74
(dp3902
g82
I4
ssg83
Nsg76
(lp3903
sbasbasbasbag69
(g85
g71
NtRp3904
(dp3905
g74
(dp3906
sg83
g3329
sg76
(lp3907
g69
(g90
g71
NtRp3908
(dp3909
g74
(dp3910
g94
g95
ssg83
g3904
sg76
(lp3911
S'postprocessing'
p3912
asbag69
(g90
g71
NtRp3913
(dp3914
g74
(dp3915
g101
g102
ssg83
g3904
sg76
(lp3916
S':'
asbag69
(g90
g71
NtRp3917
(dp3918
g74
(dp3919
sg83
g3904
sg76
(lp3920
g69
(g70
g71
NtRp3921
(dp3922
g74
(dp3923
g82
I5
ssg83
g3917
sg76
(lp3924
g69
(g78
g71
NtRp3925
(dp3926
g74
(dp3927
g82
I4
ssg83
Nsg76
(lp3928
sbasbasbasbag69
(g85
g71
NtRp3929
(dp3930
g74
(dp3931
sg83
g3329
sg76
(lp3932
g69
(g90
g71
NtRp3933
(dp3934
g74
(dp3935
g94
g95
ssg83
g3929
sg76
(lp3936
S'session_file'
p3937
asbag69
(g90
g71
NtRp3938
(dp3939
g74
(dp3940
g101
g102
ssg83
g3929
sg76
(lp3941
S':'
asbag69
(g90
g71
NtRp3942
(dp3943
g74
(dp3944
sg83
g3929
sg76
(lp3945
g69
(g70
g71
NtRp3946
(dp3947
g74
(dp3948
g82
I5
ssg83
g3942
sg76
(lp3949
S"<open file 'c:\\Users\\rochacbruno\\jul12\\cursojulho12\\web2py\\applications\\ecommerce\\sessions\\127.0.0.1-0fe94d39-4aae-427f-bfbc-597a65cd32c1', mode 'rb+' at 0x02DCDBD0>"
p3950
asbasbasbag69
(g85
g71
NtRp3951
(dp3952
g74
(dp3953
sg83
g3329
sg76
(lp3954
g69
(g90
g71
NtRp3955
(dp3956
g74
(dp3957
g94
g95
ssg83
g3951
sg76
(lp3958
S'session_filename'
p3959
asbag69
(g90
g71
NtRp3960
(dp3961
g74
(dp3962
g101
g102
ssg83
g3951
sg76
(lp3963
S':'
asbag69
(g90
g71
NtRp3964
(dp3965
g74
(dp3966
sg83
g3951
sg76
(lp3967
g69
(g70
g71
NtRp3968
(dp3969
g74
(dp3970
g82
I5
ssg83
g3964
sg76
(lp3971
S'c:\\Users\\rochacbruno\\jul12\\cursojulho12\\web2py\\applications\\ecommerce\\sessions\\127.0.0.1-0fe94d39-4aae-427f-bfbc-597a65cd32c1'
p3972
asbasbasbag69
(g85
g71
NtRp3973
(dp3974
g74
(dp3975
sg83
g3329
sg76
(lp3976
g69
(g90
g71
NtRp3977
(dp3978
g74
(dp3979
g94
g95
ssg83
g3973
sg76
(lp3980
S'session_id'
p3981
asbag69
(g90
g71
NtRp3982
(dp3983
g74
(dp3984
g101
g102
ssg83
g3973
sg76
(lp3985
S':'
asbag69
(g90
g71
NtRp3986
(dp3987
g74
(dp3988
sg83
g3973
sg76
(lp3989
g69
(g70
g71
NtRp3990
(dp3991
g74
(dp3992
g82
I5
ssg83
g3986
sg76
(lp3993
g465
asbasbasbag69
(g85
g71
NtRp3994
(dp3995
g74
(dp3996
sg83
g3329
sg76
(lp3997
g69
(g90
g71
NtRp3998
(dp3999
g74
(dp4000
g94
g95
ssg83
g3994
sg76
(lp4001
S'session_id_name'
p4002
asbag69
(g90
g71
NtRp4003
(dp4004
g74
(dp4005
g101
g102
ssg83
g3994
sg76
(lp4006
S':'
asbag69
(g90
g71
NtRp4007
(dp4008
g74
(dp4009
sg83
g3994
sg76
(lp4010
g69
(g70
g71
NtRp4011
(dp4012
g74
(dp4013
g82
I5
ssg83
g4007
sg76
(lp4014
g3386
asbasbasbag69
(g85
g71
NtRp4015
(dp4016
g74
(dp4017
sg83
g3329
sg76
(lp4018
g69
(g90
g71
NtRp4019
(dp4020
g74
(dp4021
g94
g95
ssg83
g4015
sg76
(lp4022
S'session_locked'
p4023
asbag69
(g90
g71
NtRp4024
(dp4025
g74
(dp4026
g101
g102
ssg83
g4015
sg76
(lp4027
S':'
asbag69
(g90
g71
NtRp4028
(dp4029
g74
(dp4030
sg83
g4015
sg76
(lp4031
g69
(g70
g71
NtRp4032
(dp4033
g74
(dp4034
g82
I5
ssg83
g4028
sg76
(lp4035
g1899
asbasbasbag69
(g85
g71
NtRp4036
(dp4037
g74
(dp4038
sg83
g3329
sg76
(lp4039
g69
(g90
g71
NtRp4040
(dp4041
g74
(dp4042
g94
g95
ssg83
g4036
sg76
(lp4043
S'session_new'
p4044
asbag69
(g90
g71
NtRp4045
(dp4046
g74
(dp4047
g101
g102
ssg83
g4036
sg76
(lp4048
S':'
asbag69
(g90
g71
NtRp4049
(dp4050
g74
(dp4051
sg83
g4036
sg76
(lp4052
g69
(g70
g71
NtRp4053
(dp4054
g74
(dp4055
g82
I5
ssg83
g4049
sg76
(lp4056
g112
asbasbasbag69
(g85
g71
NtRp4057
(dp4058
g74
(dp4059
sg83
g3329
sg76
(lp4060
g69
(g90
g71
NtRp4061
(dp4062
g74
(dp4063
g94
g95
ssg83
g4057
sg76
(lp4064
S'status'
p4065
asbag69
(g90
g71
NtRp4066
(dp4067
g74
(dp4068
g101
g102
ssg83
g4057
sg76
(lp4069
S':'
asbag69
(g90
g71
NtRp4070
(dp4071
g74
(dp4072
sg83
g4057
sg76
(lp4073
g69
(g70
g71
NtRp4074
(dp4075
g74
(dp4076
g82
I5
ssg83
g4070
sg76
(lp4077
S'200'
p4078
asbasbasbag69
(g85
g71
NtRp4079
(dp4080
g74
(dp4081
sg83
g3329
sg76
(lp4082
g69
(g90
g71
NtRp4083
(dp4084
g74
(dp4085
g94
g95
ssg83
g4079
sg76
(lp4086
S'title'
p4087
asbag69
(g90
g71
NtRp4088
(dp4089
g74
(dp4090
g101
g102
ssg83
g4079
sg76
(lp4091
S':'
asbag69
(g90
g71
NtRp4092
(dp4093
g74
(dp4094
sg83
g4079
sg76
(lp4095
g69
(g70
g71
NtRp4096
(dp4097
g74
(dp4098
g82
I5
ssg83
g4092
sg76
(lp4099
S'Ecommerce do Bruno | CursodePython.com.br'
p4100
asbasbasbag69
(g85
g71
NtRp4101
(dp4102
g74
(dp4103
sg83
g3329
sg76
(lp4104
g69
(g90
g71
NtRp4105
(dp4106
g74
(dp4107
g94
g95
ssg83
g4101
sg76
(lp4108
g2541
asbag69
(g90
g71
NtRp4109
(dp4110
g74
(dp4111
g101
g102
ssg83
g4101
sg76
(lp4112
S':'
asbag69
(g90
g71
NtRp4113
(dp4114
g74
(dp4115
sg83
g4101
sg76
(lp4116
g69
(g70
g71
NtRp4117
(dp4118
g74
(dp4119
g82
I5
ssg83
g4113
sg76
(lp4120
g2554
asbasbasbag69
(g85
g71
NtRp4121
(dp4122
g74
(dp4123
sg83
g3329
sg76
(lp4124
g69
(g90
g71
NtRp4125
(dp4126
g74
(dp4127
g94
g95
ssg83
g4121
sg76
(lp4128
S'view'
p4129
asbag69
(g90
g71
NtRp4130
(dp4131
g74
(dp4132
g101
g102
ssg83
g4121
sg76
(lp4133
S':'
asbag69
(g90
g71
NtRp4134
(dp4135
g74
(dp4136
sg83
g4121
sg76
(lp4137
g69
(g70
g71
NtRp4138
(dp4139
g74
(dp4140
g82
I5
ssg83
g4134
sg76
(lp4141
S'home/index.html'
p4142
asbasbasbasbasbsS'locals'
p4143
(dp4144
g2563
g21
sS'hash_vars'
p4145
g1899
sS'port'
p4146
S'None'
p4147
sS'current'
p4148
S'<thread._local object>'
p4149
sg121
S"'ecommerce'"
p4150
sS'user_signature'
p4151
S'None'
p4152
sg1010
S"<Storage {'debugging': False, 'http_user_agent':...[]), 'query_string': '', 'wsgi_run_once': False}>"
p4153
sS'url_encode'
p4154
g1899
sS'scheme'
p4155
S'None'
p4156
sg2044
S"''"
p4157
sS'encode_embedded_slash'
p4158
g112
sg52
S'[]'
p4159
sS'url_out'
p4160
S'<function url_out>'
p4161
sg211
S"'home'"
p4162
sS'a'
S'None'
p4163
sS'c'
S'None'
p4164
sS'function2'
p4165
S"'.html'"
p4166
sg2000
S'None'
p4167
sS'f'
S"''"
p4168
sS'items'
p4169
S"['']"
p4170
sS'host'
p4171
S'None'
p4172
sS'hmac_key'
p4173
S'None'
p4174
sS'r'
S"<Storage {'body': <cStringIO.StringO object at 0..._vars': <Storage {}>, 'post_vars': <Storage {}>}>"
p4175
sS'salt'
p4176
S'None'
p4177
sS'anchor'
p4178
S"''"
p4179
sssS'traceback'
p4180
S'Traceback (most recent call last):\n  File "c:\\Users\\rochacbruno\\jul12\\cursojulho12\\web2py\\gluon\\restricted.py", line 205, in restricted\n    exec ccode in environment\n  File "c:\\Users\\rochacbruno\\jul12\\cursojulho12\\web2py\\applications\\ecommerce\\views\\home/index.html", line 61, in <module>\n  File "c:\\Users\\rochacbruno\\jul12\\cursojulho12\\web2py\\gluon\\html.py", line 283, in URL\n    raise SyntaxError, \'not enough information to build the url (%s %s %s)\' % (application, controller, function)\nSyntaxError: not enough information to build the url (ecommerce home )\n'
p4181
s.